GAS LISTING /tmp/ccDrcwOJ.s 			page 1


   1               		.file	"clksys_driver.c"
   2               	__SREG__ = 0x3f
   3               	__SP_H__ = 0x3e
   4               	__SP_L__ = 0x3d
   5               	__CCP__  = 0x34
   6               	__tmp_reg__ = 0
   7               	__zero_reg__ = 1
   8               		.section	.debug_abbrev,"",@progbits
   9               	.Ldebug_abbrev0:
  10               		.section	.debug_info,"",@progbits
  11               	.Ldebug_info0:
  12               		.section	.debug_line,"",@progbits
  13               	.Ldebug_line0:
  14               		.text
  15               	.Ltext0:
  16               	.global	CCPWrite
  17               		.type	CCPWrite, @function
  18               	CCPWrite:
  19               	.LFB6:
  20               	.LM1:
  21               	.LVL0:
  22 0000 0F93      		push r16
  23 0002 DF93      		push r29
  24 0004 CF93      		push r28
  25 0006 0F92      		push __tmp_reg__
  26 0008 CDB7      		in r28,__SP_L__
  27 000a DEB7      		in r29,__SP_H__
  28               	/* prologue: function */
  29               	/* frame size = 1 */
  30               	.LM2:
  31 000c 2FB7      		in r18,__SREG__
  32               	.LVL1:
  33 000e 2983      		std Y+1,r18
  34               	/* #APP */
  35               	 ;  108 "clksys_driver.c" 1
  36 0010 F894      		cli
  37               	 ;  0 "" 2
  38               	.LM3:
  39               	/* #NOAPP */
  40 0012 1BBE      		out 59-0,__zero_reg__
  41               	.LM4:
  42               	/* #APP */
  43               	 ;  113 "clksys_driver.c" 1
  44 0014 FC01      		movw r30,  r24
  45 0016 08ED      		ldi  r16,  216
  46 0018 04BF      		out   52, r16
  47 001a 6083      		st     Z,  r22
  48               		
  49               	 ;  0 "" 2
  50               	.LM5:
  51               	/* #NOAPP */
  52 001c 8981      		ldd r24,Y+1
  53               	.LVL2:
  54 001e 8FBF      		out __SREG__,r24
  55               	/* epilogue start */
  56               	.LM6:
  57 0020 0F90      		pop __tmp_reg__
GAS LISTING /tmp/ccDrcwOJ.s 			page 2


  58 0022 CF91      		pop r28
  59 0024 DF91      		pop r29
  60 0026 0F91      		pop r16
  61 0028 0895      		ret
  62               	.LFE6:
  63               		.size	CCPWrite, .-CCPWrite
  64               	.global	CLKSYS_XOSC_Config
  65               		.type	CLKSYS_XOSC_Config, @function
  66               	CLKSYS_XOSC_Config:
  67               	.LFB7:
  68               	.LM7:
  69               	.LVL3:
  70               	/* prologue: function */
  71               	/* frame size = 0 */
  72               	.LM8:
  73 002a 6623      		tst r22
  74 002c 01F4      		brne .L4
  75 002e 90E0      		ldi r25,lo8(0)
  76 0030 482B      		or r20,r24
  77               	.LVL4:
  78 0032 942B      		or r25,r20
  79 0034 E0E5      		ldi r30,lo8(80)
  80 0036 F0E0      		ldi r31,hi8(80)
  81 0038 9283      		std Z+2,r25
  82               	/* epilogue start */
  83               	.LM9:
  84 003a 0895      		ret
  85               	.L4:
  86               	.LM10:
  87 003c 90E2      		ldi r25,lo8(32)
  88 003e 482B      		or r20,r24
  89               	.LVL5:
  90 0040 942B      		or r25,r20
  91 0042 E0E5      		ldi r30,lo8(80)
  92 0044 F0E0      		ldi r31,hi8(80)
  93 0046 9283      		std Z+2,r25
  94               	.LM11:
  95 0048 0895      		ret
  96               	.LFE7:
  97               		.size	CLKSYS_XOSC_Config, .-CLKSYS_XOSC_Config
  98               	.global	CLKSYS_PLL_Config
  99               		.type	CLKSYS_PLL_Config, @function
 100               	CLKSYS_PLL_Config:
 101               	.LFB8:
 102               	.LM12:
 103               	.LVL6:
 104               	/* prologue: function */
 105               	/* frame size = 0 */
 106               	.LM13:
 107 004a 6F71      		andi r22,lo8(31)
 108               	.LVL7:
 109 004c 682B      		or r22,r24
 110 004e E0E5      		ldi r30,lo8(80)
 111 0050 F0E0      		ldi r31,hi8(80)
 112 0052 6583      		std Z+5,r22
 113               	/* epilogue start */
 114               	.LM14:
GAS LISTING /tmp/ccDrcwOJ.s 			page 3


 115 0054 0895      		ret
 116               	.LFE8:
 117               		.size	CLKSYS_PLL_Config, .-CLKSYS_PLL_Config
 118               	.global	CLKSYS_Disable
 119               		.type	CLKSYS_Disable, @function
 120               	CLKSYS_Disable:
 121               	.LFB9:
 122               	.LM15:
 123               	.LVL8:
 124               	/* prologue: function */
 125               	/* frame size = 0 */
 126               	.LM16:
 127 0056 E0E5      		ldi r30,lo8(80)
 128 0058 F0E0      		ldi r31,hi8(80)
 129 005a 2081      		ld r18,Z
 130 005c 982F      		mov r25,r24
 131 005e 9095      		com r25
 132 0060 9223      		and r25,r18
 133 0062 9083      		st Z,r25
 134               	.LM17:
 135 0064 9081      		ld r25,Z
 136               	.LM18:
 137 0066 8923      		and r24,r25
 138               	.LVL9:
 139               	/* epilogue start */
 140 0068 0895      		ret
 141               	.LFE9:
 142               		.size	CLKSYS_Disable, .-CLKSYS_Disable
 143               	.global	CLKSYS_Prescalers_Config
 144               		.type	CLKSYS_Prescalers_Config, @function
 145               	CLKSYS_Prescalers_Config:
 146               	.LFB10:
 147               	.LM19:
 148               	.LVL10:
 149 006a 0F93      		push r16
 150 006c DF93      		push r29
 151 006e CF93      		push r28
 152 0070 0F92      		push __tmp_reg__
 153 0072 CDB7      		in r28,__SP_L__
 154 0074 DEB7      		in r29,__SP_H__
 155               	/* prologue: function */
 156               	/* frame size = 1 */
 157               	.LBB10:
 158               	.LBB11:
 159               	.LM20:
 160 0076 9FB7      		in r25,__SREG__
 161 0078 9983      		std Y+1,r25
 162               	.LVL11:
 163               	/* #APP */
 164               	 ;  108 "clksys_driver.c" 1
 165 007a F894      		cli
 166               	 ;  0 "" 2
 167               	.LM21:
 168               	/* #NOAPP */
 169 007c 1BBE      		out 59-0,__zero_reg__
 170               	.LM22:
 171 007e 682B      		or r22,r24
GAS LISTING /tmp/ccDrcwOJ.s 			page 4


 172               	.LVL12:
 173 0080 81E4      		ldi r24,lo8(65)
 174 0082 90E0      		ldi r25,hi8(65)
 175               	.LVL13:
 176               	/* #APP */
 177               	 ;  113 "clksys_driver.c" 1
 178 0084 FC01      		movw r30,  r24
 179 0086 08ED      		ldi  r16,  216
 180 0088 04BF      		out   52, r16
 181 008a 6083      		st     Z,  r22
 182               		
 183               	 ;  0 "" 2
 184               	.LM23:
 185               	/* #NOAPP */
 186 008c 8981      		ldd r24,Y+1
 187 008e 8FBF      		out __SREG__,r24
 188               	/* epilogue start */
 189               	.LBE11:
 190               	.LBE10:
 191               	.LM24:
 192 0090 0F90      		pop __tmp_reg__
 193 0092 CF91      		pop r28
 194 0094 DF91      		pop r29
 195 0096 0F91      		pop r16
 196 0098 0895      		ret
 197               	.LFE10:
 198               		.size	CLKSYS_Prescalers_Config, .-CLKSYS_Prescalers_Config
 199               	.global	CLKSYS_Main_ClockSource_Select
 200               		.type	CLKSYS_Main_ClockSource_Select, @function
 201               	CLKSYS_Main_ClockSource_Select:
 202               	.LFB11:
 203               	.LM25:
 204               	.LVL14:
 205 009a 0F93      		push r16
 206 009c DF93      		push r29
 207 009e CF93      		push r28
 208 00a0 0F92      		push __tmp_reg__
 209 00a2 CDB7      		in r28,__SP_L__
 210 00a4 DEB7      		in r29,__SP_H__
 211               	/* prologue: function */
 212               	/* frame size = 1 */
 213               	.LM26:
 214 00a6 2091 4000 		lds r18,64
 215               	.LBB12:
 216               	.LBB13:
 217               	.LM27:
 218 00aa 9FB7      		in r25,__SREG__
 219 00ac 9983      		std Y+1,r25
 220               	.LVL15:
 221               	/* #APP */
 222               	 ;  108 "clksys_driver.c" 1
 223 00ae F894      		cli
 224               	 ;  0 "" 2
 225               	.LM28:
 226               	/* #NOAPP */
 227 00b0 1BBE      		out 59-0,__zero_reg__
 228               	.LM29:
GAS LISTING /tmp/ccDrcwOJ.s 			page 5


 229 00b2 A0E4      		ldi r26,lo8(64)
 230 00b4 B0E0      		ldi r27,hi8(64)
 231 00b6 287F      		andi r18,lo8(-8)
 232 00b8 282B      		or r18,r24
 233               	/* #APP */
 234               	 ;  113 "clksys_driver.c" 1
 235 00ba FD01      		movw r30,  r26
 236 00bc 08ED      		ldi  r16,  216
 237 00be 04BF      		out   52, r16
 238 00c0 2083      		st     Z,  r18
 239               		
 240               	 ;  0 "" 2
 241               	.LM30:
 242               	/* #NOAPP */
 243 00c2 9981      		ldd r25,Y+1
 244 00c4 9FBF      		out __SREG__,r25
 245               	.LBE13:
 246               	.LBE12:
 247               	.LM31:
 248 00c6 9C91      		ld r25,X
 249               	.LM32:
 250 00c8 8923      		and r24,r25
 251               	.LVL16:
 252               	/* epilogue start */
 253 00ca 0F90      		pop __tmp_reg__
 254 00cc CF91      		pop r28
 255 00ce DF91      		pop r29
 256 00d0 0F91      		pop r16
 257 00d2 0895      		ret
 258               	.LFE11:
 259               		.size	CLKSYS_Main_ClockSource_Select, .-CLKSYS_Main_ClockSource_Select
 260               	.global	CLKSYS_RTC_ClockSource_Enable
 261               		.type	CLKSYS_RTC_ClockSource_Enable, @function
 262               	CLKSYS_RTC_ClockSource_Enable:
 263               	.LFB12:
 264               	.LM33:
 265               	.LVL17:
 266               	/* prologue: function */
 267               	/* frame size = 0 */
 268               	.LM34:
 269 00d4 E0E4      		ldi r30,lo8(64)
 270 00d6 F0E0      		ldi r31,hi8(64)
 271 00d8 9381      		ldd r25,Z+3
 272 00da 917F      		andi r25,lo8(-15)
 273 00dc 9160      		ori r25,lo8(1)
 274 00de 982B      		or r25,r24
 275 00e0 9383      		std Z+3,r25
 276               	/* epilogue start */
 277               	.LM35:
 278 00e2 0895      		ret
 279               	.LFE12:
 280               		.size	CLKSYS_RTC_ClockSource_Enable, .-CLKSYS_RTC_ClockSource_Enable
 281               	.global	CLKSYS_AutoCalibration_Enable
 282               		.type	CLKSYS_AutoCalibration_Enable, @function
 283               	CLKSYS_AutoCalibration_Enable:
 284               	.LFB13:
 285               	.LM36:
GAS LISTING /tmp/ccDrcwOJ.s 			page 6


 286               	.LVL18:
 287               	/* prologue: function */
 288               	/* frame size = 0 */
 289 00e4 282F      		mov r18,r24
 290               	.LM37:
 291 00e6 3091 5600 		lds r19,86
 292 00ea 6623      		tst r22
 293 00ec 01F0      		breq .L19
 294               	.LVL19:
 295 00ee 982F      		mov r25,r24
 296               	.LVL20:
 297               	.L20:
 298 00f0 822F      		mov r24,r18
 299               	.LVL21:
 300 00f2 8095      		com r24
 301 00f4 8323      		and r24,r19
 302 00f6 982B      		or r25,r24
 303 00f8 E0E5      		ldi r30,lo8(80)
 304 00fa F0E0      		ldi r31,hi8(80)
 305 00fc 9683      		std Z+6,r25
 306               	.LM38:
 307 00fe 2130      		cpi r18,lo8(1)
 308 0100 01F0      		breq .L24
 309               	.LM39:
 310 0102 2230      		cpi r18,lo8(2)
 311 0104 01F0      		breq .L25
 312 0106 0895      		ret
 313               	.LVL22:
 314               	.L19:
 315               	.LM40:
 316 0108 90E0      		ldi r25,lo8(0)
 317 010a 00C0      		rjmp .L20
 318               	.LVL23:
 319               	.L25:
 320               	.LM41:
 321 010c 8091 6000 		lds r24,96
 322 0110 8160      		ori r24,lo8(1)
 323 0112 8093 6000 		sts 96,r24
 324 0116 0895      		ret
 325               	.L24:
 326               	.LM42:
 327 0118 8091 6800 		lds r24,104
 328 011c 8160      		ori r24,lo8(1)
 329 011e 8093 6800 		sts 104,r24
 330 0122 0895      		ret
 331               	.LFE13:
 332               		.size	CLKSYS_AutoCalibration_Enable, .-CLKSYS_AutoCalibration_Enable
 333               	.global	CLKSYS_XOSC_FailureDetection_Enable
 334               		.type	CLKSYS_XOSC_FailureDetection_Enable, @function
 335               	CLKSYS_XOSC_FailureDetection_Enable:
 336               	.LFB14:
 337               	.LM43:
 338 0124 0F93      		push r16
 339 0126 DF93      		push r29
 340 0128 CF93      		push r28
 341 012a 0F92      		push __tmp_reg__
 342 012c CDB7      		in r28,__SP_L__
GAS LISTING /tmp/ccDrcwOJ.s 			page 7


 343 012e DEB7      		in r29,__SP_H__
 344               	/* prologue: function */
 345               	/* frame size = 1 */
 346               	.LBB14:
 347               	.LBB15:
 348               	.LM44:
 349 0130 8FB7      		in r24,__SREG__
 350 0132 8983      		std Y+1,r24
 351               	.LVL24:
 352               	/* #APP */
 353               	 ;  108 "clksys_driver.c" 1
 354 0134 F894      		cli
 355               	 ;  0 "" 2
 356               	.LM45:
 357               	/* #NOAPP */
 358 0136 1BBE      		out 59-0,__zero_reg__
 359               	.LM46:
 360 0138 23E0      		ldi r18,lo8(3)
 361 013a 83E5      		ldi r24,lo8(83)
 362 013c 90E0      		ldi r25,hi8(83)
 363               	/* #APP */
 364               	 ;  113 "clksys_driver.c" 1
 365 013e FC01      		movw r30,  r24
 366 0140 08ED      		ldi  r16,  216
 367 0142 04BF      		out   52, r16
 368 0144 2083      		st     Z,  r18
 369               		
 370               	 ;  0 "" 2
 371               	.LM47:
 372               	/* #NOAPP */
 373 0146 8981      		ldd r24,Y+1
 374 0148 8FBF      		out __SREG__,r24
 375               	/* epilogue start */
 376               	.LBE15:
 377               	.LBE14:
 378               	.LM48:
 379 014a 0F90      		pop __tmp_reg__
 380 014c CF91      		pop r28
 381 014e DF91      		pop r29
 382 0150 0F91      		pop r16
 383 0152 0895      		ret
 384               	.LFE14:
 385               		.size	CLKSYS_XOSC_FailureDetection_Enable, .-CLKSYS_XOSC_FailureDetection_Enable
 386               	.global	CLKSYS_Configuration_Lock
 387               		.type	CLKSYS_Configuration_Lock, @function
 388               	CLKSYS_Configuration_Lock:
 389               	.LFB15:
 390               	.LM49:
 391 0154 0F93      		push r16
 392 0156 DF93      		push r29
 393 0158 CF93      		push r28
 394 015a 0F92      		push __tmp_reg__
 395 015c CDB7      		in r28,__SP_L__
 396 015e DEB7      		in r29,__SP_H__
 397               	/* prologue: function */
 398               	/* frame size = 1 */
 399               	.LBB16:
GAS LISTING /tmp/ccDrcwOJ.s 			page 8


 400               	.LBB17:
 401               	.LM50:
 402 0160 8FB7      		in r24,__SREG__
 403 0162 8983      		std Y+1,r24
 404               	.LVL25:
 405               	/* #APP */
 406               	 ;  108 "clksys_driver.c" 1
 407 0164 F894      		cli
 408               	 ;  0 "" 2
 409               	.LM51:
 410               	/* #NOAPP */
 411 0166 1BBE      		out 59-0,__zero_reg__
 412               	.LM52:
 413 0168 21E0      		ldi r18,lo8(1)
 414 016a 82E4      		ldi r24,lo8(66)
 415 016c 90E0      		ldi r25,hi8(66)
 416               	/* #APP */
 417               	 ;  113 "clksys_driver.c" 1
 418 016e FC01      		movw r30,  r24
 419 0170 08ED      		ldi  r16,  216
 420 0172 04BF      		out   52, r16
 421 0174 2083      		st     Z,  r18
 422               		
 423               	 ;  0 "" 2
 424               	.LM53:
 425               	/* #NOAPP */
 426 0176 8981      		ldd r24,Y+1
 427 0178 8FBF      		out __SREG__,r24
 428               	/* epilogue start */
 429               	.LBE17:
 430               	.LBE16:
 431               	.LM54:
 432 017a 0F90      		pop __tmp_reg__
 433 017c CF91      		pop r28
 434 017e DF91      		pop r29
 435 0180 0F91      		pop r16
 436 0182 0895      		ret
 437               	.LFE15:
 438               		.size	CLKSYS_Configuration_Lock, .-CLKSYS_Configuration_Lock
 439               		.section	.debug_frame,"",@progbits
 440               	.Lframe0:
 441 0000 0C00 0000 		.long	.LECIE0-.LSCIE0
 442               	.LSCIE0:
 443 0004 FFFF FFFF 		.long	0xffffffff
 444 0008 01        		.byte	0x1
 445 0009 00        		.string	""
 446 000a 01        		.uleb128 0x1
 447 000b 7F        		.sleb128 -1
 448 000c 24        		.byte	0x24
 449 000d 0C        		.byte	0xc
 450 000e 20        		.uleb128 0x20
 451 000f 00        		.uleb128 0x0
 452               		.p2align	2
 453               	.LECIE0:
 454               	.LSFDE0:
 455 0010 0C00 0000 		.long	.LEFDE0-.LASFDE0
 456               	.LASFDE0:
GAS LISTING /tmp/ccDrcwOJ.s 			page 9


 457 0014 0000 0000 		.long	.Lframe0
 458 0018 0000 0000 		.long	.LFB6
 459 001c 2A00 0000 		.long	.LFE6-.LFB6
 460               		.p2align	2
 461               	.LEFDE0:
 462               	.LSFDE2:
 463 0020 0C00 0000 		.long	.LEFDE2-.LASFDE2
 464               	.LASFDE2:
 465 0024 0000 0000 		.long	.Lframe0
 466 0028 0000 0000 		.long	.LFB7
 467 002c 2000 0000 		.long	.LFE7-.LFB7
 468               		.p2align	2
 469               	.LEFDE2:
 470               	.LSFDE4:
 471 0030 0C00 0000 		.long	.LEFDE4-.LASFDE4
 472               	.LASFDE4:
 473 0034 0000 0000 		.long	.Lframe0
 474 0038 0000 0000 		.long	.LFB8
 475 003c 0C00 0000 		.long	.LFE8-.LFB8
 476               		.p2align	2
 477               	.LEFDE4:
 478               	.LSFDE6:
 479 0040 0C00 0000 		.long	.LEFDE6-.LASFDE6
 480               	.LASFDE6:
 481 0044 0000 0000 		.long	.Lframe0
 482 0048 0000 0000 		.long	.LFB9
 483 004c 1400 0000 		.long	.LFE9-.LFB9
 484               		.p2align	2
 485               	.LEFDE6:
 486               	.LSFDE8:
 487 0050 0C00 0000 		.long	.LEFDE8-.LASFDE8
 488               	.LASFDE8:
 489 0054 0000 0000 		.long	.Lframe0
 490 0058 0000 0000 		.long	.LFB10
 491 005c 3000 0000 		.long	.LFE10-.LFB10
 492               		.p2align	2
 493               	.LEFDE8:
 494               	.LSFDE10:
 495 0060 0C00 0000 		.long	.LEFDE10-.LASFDE10
 496               	.LASFDE10:
 497 0064 0000 0000 		.long	.Lframe0
 498 0068 0000 0000 		.long	.LFB11
 499 006c 3A00 0000 		.long	.LFE11-.LFB11
 500               		.p2align	2
 501               	.LEFDE10:
 502               	.LSFDE12:
 503 0070 0C00 0000 		.long	.LEFDE12-.LASFDE12
 504               	.LASFDE12:
 505 0074 0000 0000 		.long	.Lframe0
 506 0078 0000 0000 		.long	.LFB12
 507 007c 1000 0000 		.long	.LFE12-.LFB12
 508               		.p2align	2
 509               	.LEFDE12:
 510               	.LSFDE14:
 511 0080 0C00 0000 		.long	.LEFDE14-.LASFDE14
 512               	.LASFDE14:
 513 0084 0000 0000 		.long	.Lframe0
GAS LISTING /tmp/ccDrcwOJ.s 			page 10


 514 0088 0000 0000 		.long	.LFB13
 515 008c 4000 0000 		.long	.LFE13-.LFB13
 516               		.p2align	2
 517               	.LEFDE14:
 518               	.LSFDE16:
 519 0090 0C00 0000 		.long	.LEFDE16-.LASFDE16
 520               	.LASFDE16:
 521 0094 0000 0000 		.long	.Lframe0
 522 0098 0000 0000 		.long	.LFB14
 523 009c 3000 0000 		.long	.LFE14-.LFB14
 524               		.p2align	2
 525               	.LEFDE16:
 526               	.LSFDE18:
 527 00a0 0C00 0000 		.long	.LEFDE18-.LASFDE18
 528               	.LASFDE18:
 529 00a4 0000 0000 		.long	.Lframe0
 530 00a8 0000 0000 		.long	.LFB15
 531 00ac 3000 0000 		.long	.LFE15-.LFB15
 532               		.p2align	2
 533               	.LEFDE18:
 534               		.text
 535               	.Letext0:
 536               		.section	.debug_loc,"",@progbits
 537               	.Ldebug_loc0:
 538               	.LLST1:
 539 0000 0000 0000 		.long	.LVL0-.Ltext0
 540 0004 1E00 0000 		.long	.LVL2-.Ltext0
 541 0008 0600      		.word	0x6
 542 000a 68        		.byte	0x68
 543 000b 93        		.byte	0x93
 544 000c 01        		.uleb128 0x1
 545 000d 69        		.byte	0x69
 546 000e 93        		.byte	0x93
 547 000f 01        		.uleb128 0x1
 548 0010 0000 0000 		.long	0x0
 549 0014 0000 0000 		.long	0x0
 550               	.LLST5:
 551 0018 5600 0000 		.long	.LVL8-.Ltext0
 552 001c 6800 0000 		.long	.LVL9-.Ltext0
 553 0020 0100      		.word	0x1
 554 0022 68        		.byte	0x68
 555 0023 0000 0000 		.long	0x0
 556 0027 0000 0000 		.long	0x0
 557               	.LLST7:
 558 002b 6A00 0000 		.long	.LVL10-.Ltext0
 559 002f 8400 0000 		.long	.LVL13-.Ltext0
 560 0033 0100      		.word	0x1
 561 0035 68        		.byte	0x68
 562 0036 0000 0000 		.long	0x0
 563 003a 0000 0000 		.long	0x0
 564               	.LLST9:
 565 003e 9A00 0000 		.long	.LVL14-.Ltext0
 566 0042 CA00 0000 		.long	.LVL16-.Ltext0
 567 0046 0100      		.word	0x1
 568 0048 68        		.byte	0x68
 569 0049 0000 0000 		.long	0x0
 570 004d 0000 0000 		.long	0x0
GAS LISTING /tmp/ccDrcwOJ.s 			page 11


 571               	.LLST12:
 572 0051 E400 0000 		.long	.LVL18-.Ltext0
 573 0055 EE00 0000 		.long	.LVL19-.Ltext0
 574 0059 0100      		.word	0x1
 575 005b 68        		.byte	0x68
 576 005c EE00 0000 		.long	.LVL19-.Ltext0
 577 0060 F000 0000 		.long	.LVL20-.Ltext0
 578 0064 0100      		.word	0x1
 579 0066 62        		.byte	0x62
 580 0067 F000 0000 		.long	.LVL20-.Ltext0
 581 006b F200 0000 		.long	.LVL21-.Ltext0
 582 006f 0100      		.word	0x1
 583 0071 68        		.byte	0x68
 584 0072 F200 0000 		.long	.LVL21-.Ltext0
 585 0076 2401 0000 		.long	.LFE13-.Ltext0
 586 007a 0100      		.word	0x1
 587 007c 62        		.byte	0x62
 588 007d 0000 0000 		.long	0x0
 589 0081 0000 0000 		.long	0x0
 590               		.section	.debug_info
 591 0000 4606 0000 		.long	0x646
 592 0004 0200      		.word	0x2
 593 0006 0000 0000 		.long	.Ldebug_abbrev0
 594 000a 04        		.byte	0x4
 595 000b 01        		.uleb128 0x1
 596 000c 0000 0000 		.long	.LASF106
 597 0010 01        		.byte	0x1
 598 0011 0000 0000 		.long	.LASF107
 599 0015 0000 0000 		.long	.LASF108
 600 0019 0000 0000 		.long	.Ltext0
 601 001d 0000 0000 		.long	.Letext0
 602 0021 0000 0000 		.long	.Ldebug_line0
 603 0025 02        		.uleb128 0x2
 604 0026 01        		.byte	0x1
 605 0027 06        		.byte	0x6
 606 0028 0000 0000 		.long	.LASF0
 607 002c 03        		.uleb128 0x3
 608 002d 0000 0000 		.long	.LASF20
 609 0031 03        		.byte	0x3
 610 0032 7A        		.byte	0x7a
 611 0033 3700 0000 		.long	0x37
 612 0037 02        		.uleb128 0x2
 613 0038 01        		.byte	0x1
 614 0039 08        		.byte	0x8
 615 003a 0000 0000 		.long	.LASF1
 616 003e 04        		.uleb128 0x4
 617 003f 02        		.byte	0x2
 618 0040 05        		.byte	0x5
 619 0041 696E 7400 		.string	"int"
 620 0045 02        		.uleb128 0x2
 621 0046 02        		.byte	0x2
 622 0047 07        		.byte	0x7
 623 0048 0000 0000 		.long	.LASF2
 624 004c 02        		.uleb128 0x2
 625 004d 04        		.byte	0x4
 626 004e 05        		.byte	0x5
 627 004f 0000 0000 		.long	.LASF3
GAS LISTING /tmp/ccDrcwOJ.s 			page 12


 628 0053 02        		.uleb128 0x2
 629 0054 04        		.byte	0x4
 630 0055 07        		.byte	0x7
 631 0056 0000 0000 		.long	.LASF4
 632 005a 02        		.uleb128 0x2
 633 005b 08        		.byte	0x8
 634 005c 05        		.byte	0x5
 635 005d 0000 0000 		.long	.LASF5
 636 0061 02        		.uleb128 0x2
 637 0062 08        		.byte	0x8
 638 0063 07        		.byte	0x7
 639 0064 0000 0000 		.long	.LASF6
 640 0068 05        		.uleb128 0x5
 641 0069 2C00 0000 		.long	0x2c
 642 006d 05        		.uleb128 0x5
 643 006e 3700 0000 		.long	0x37
 644 0072 06        		.uleb128 0x6
 645 0073 0000 0000 		.long	.LASF13
 646 0077 01        		.byte	0x1
 647 0078 02        		.byte	0x2
 648 0079 91        		.byte	0x91
 649 007a 8D00 0000 		.long	0x8d
 650 007e 07        		.uleb128 0x7
 651 007f 0000 0000 		.long	.LASF7
 652 0083 9D01      		.sleb128 157
 653 0085 07        		.uleb128 0x7
 654 0086 0000 0000 		.long	.LASF8
 655 008a D801      		.sleb128 216
 656 008c 00        		.byte	0x0
 657 008d 08        		.uleb128 0x8
 658 008e 0000 0000 		.long	.LASF46
 659 0092 04        		.byte	0x4
 660 0093 02        		.byte	0x2
 661 0094 9F        		.byte	0x9f
 662 0095 D200 0000 		.long	0xd2
 663 0099 09        		.uleb128 0x9
 664 009a 0000 0000 		.long	.LASF9
 665 009e 02        		.byte	0x2
 666 009f A0        		.byte	0xa0
 667 00a0 6D00 0000 		.long	0x6d
 668 00a4 02        		.byte	0x2
 669 00a5 23        		.byte	0x23
 670 00a6 00        		.uleb128 0x0
 671 00a7 09        		.uleb128 0x9
 672 00a8 0000 0000 		.long	.LASF10
 673 00ac 02        		.byte	0x2
 674 00ad A1        		.byte	0xa1
 675 00ae 6D00 0000 		.long	0x6d
 676 00b2 02        		.byte	0x2
 677 00b3 23        		.byte	0x23
 678 00b4 01        		.uleb128 0x1
 679 00b5 09        		.uleb128 0x9
 680 00b6 0000 0000 		.long	.LASF11
 681 00ba 02        		.byte	0x2
 682 00bb A2        		.byte	0xa2
 683 00bc 6D00 0000 		.long	0x6d
 684 00c0 02        		.byte	0x2
GAS LISTING /tmp/ccDrcwOJ.s 			page 13


 685 00c1 23        		.byte	0x23
 686 00c2 02        		.uleb128 0x2
 687 00c3 09        		.uleb128 0x9
 688 00c4 0000 0000 		.long	.LASF12
 689 00c8 02        		.byte	0x2
 690 00c9 A3        		.byte	0xa3
 691 00ca 6D00 0000 		.long	0x6d
 692 00ce 02        		.byte	0x2
 693 00cf 23        		.byte	0x23
 694 00d0 03        		.uleb128 0x3
 695 00d1 00        		.byte	0x0
 696 00d2 06        		.uleb128 0x6
 697 00d3 0000 0000 		.long	.LASF14
 698 00d7 01        		.byte	0x1
 699 00d8 02        		.byte	0x2
 700 00d9 BA        		.byte	0xba
 701 00da FD00 0000 		.long	0xfd
 702 00de 07        		.uleb128 0x7
 703 00df 0000 0000 		.long	.LASF15
 704 00e3 00        		.sleb128 0
 705 00e4 07        		.uleb128 0x7
 706 00e5 0000 0000 		.long	.LASF16
 707 00e9 01        		.sleb128 1
 708 00ea 07        		.uleb128 0x7
 709 00eb 0000 0000 		.long	.LASF17
 710 00ef 02        		.sleb128 2
 711 00f0 07        		.uleb128 0x7
 712 00f1 0000 0000 		.long	.LASF18
 713 00f5 03        		.sleb128 3
 714 00f6 07        		.uleb128 0x7
 715 00f7 0000 0000 		.long	.LASF19
 716 00fb 04        		.sleb128 4
 717 00fc 00        		.byte	0x0
 718 00fd 03        		.uleb128 0x3
 719 00fe 0000 0000 		.long	.LASF21
 720 0102 02        		.byte	0x2
 721 0103 C0        		.byte	0xc0
 722 0104 D200 0000 		.long	0xd2
 723 0108 06        		.uleb128 0x6
 724 0109 0000 0000 		.long	.LASF22
 725 010d 01        		.byte	0x1
 726 010e 02        		.byte	0x2
 727 010f C4        		.byte	0xc4
 728 0110 5201 0000 		.long	0x152
 729 0114 07        		.uleb128 0x7
 730 0115 0000 0000 		.long	.LASF23
 731 0119 00        		.sleb128 0
 732 011a 07        		.uleb128 0x7
 733 011b 0000 0000 		.long	.LASF24
 734 011f 04        		.sleb128 4
 735 0120 07        		.uleb128 0x7
 736 0121 0000 0000 		.long	.LASF25
 737 0125 0C        		.sleb128 12
 738 0126 07        		.uleb128 0x7
 739 0127 0000 0000 		.long	.LASF26
 740 012b 14        		.sleb128 20
 741 012c 07        		.uleb128 0x7
GAS LISTING /tmp/ccDrcwOJ.s 			page 14


 742 012d 0000 0000 		.long	.LASF27
 743 0131 1C        		.sleb128 28
 744 0132 07        		.uleb128 0x7
 745 0133 0000 0000 		.long	.LASF28
 746 0137 24        		.sleb128 36
 747 0138 07        		.uleb128 0x7
 748 0139 0000 0000 		.long	.LASF29
 749 013d 2C        		.sleb128 44
 750 013e 07        		.uleb128 0x7
 751 013f 0000 0000 		.long	.LASF30
 752 0143 34        		.sleb128 52
 753 0144 07        		.uleb128 0x7
 754 0145 0000 0000 		.long	.LASF31
 755 0149 3C        		.sleb128 60
 756 014a 07        		.uleb128 0x7
 757 014b 0000 0000 		.long	.LASF32
 758 014f C400      		.sleb128 68
 759 0151 00        		.byte	0x0
 760 0152 03        		.uleb128 0x3
 761 0153 0000 0000 		.long	.LASF33
 762 0157 02        		.byte	0x2
 763 0158 CF        		.byte	0xcf
 764 0159 0801 0000 		.long	0x108
 765 015d 06        		.uleb128 0x6
 766 015e 0000 0000 		.long	.LASF34
 767 0162 01        		.byte	0x1
 768 0163 02        		.byte	0x2
 769 0164 D3        		.byte	0xd3
 770 0165 8201 0000 		.long	0x182
 771 0169 07        		.uleb128 0x7
 772 016a 0000 0000 		.long	.LASF35
 773 016e 00        		.sleb128 0
 774 016f 07        		.uleb128 0x7
 775 0170 0000 0000 		.long	.LASF36
 776 0174 01        		.sleb128 1
 777 0175 07        		.uleb128 0x7
 778 0176 0000 0000 		.long	.LASF37
 779 017a 02        		.sleb128 2
 780 017b 07        		.uleb128 0x7
 781 017c 0000 0000 		.long	.LASF38
 782 0180 03        		.sleb128 3
 783 0181 00        		.byte	0x0
 784 0182 03        		.uleb128 0x3
 785 0183 0000 0000 		.long	.LASF39
 786 0187 02        		.byte	0x2
 787 0188 D8        		.byte	0xd8
 788 0189 5D01 0000 		.long	0x15d
 789 018d 06        		.uleb128 0x6
 790 018e 0000 0000 		.long	.LASF40
 791 0192 01        		.byte	0x1
 792 0193 02        		.byte	0x2
 793 0194 DC        		.byte	0xdc
 794 0195 B201 0000 		.long	0x1b2
 795 0199 07        		.uleb128 0x7
 796 019a 0000 0000 		.long	.LASF41
 797 019e 00        		.sleb128 0
 798 019f 07        		.uleb128 0x7
GAS LISTING /tmp/ccDrcwOJ.s 			page 15


 799 01a0 0000 0000 		.long	.LASF42
 800 01a4 02        		.sleb128 2
 801 01a5 07        		.uleb128 0x7
 802 01a6 0000 0000 		.long	.LASF43
 803 01aa 04        		.sleb128 4
 804 01ab 07        		.uleb128 0x7
 805 01ac 0000 0000 		.long	.LASF44
 806 01b0 0A        		.sleb128 10
 807 01b1 00        		.byte	0x0
 808 01b2 03        		.uleb128 0x3
 809 01b3 0000 0000 		.long	.LASF45
 810 01b7 02        		.byte	0x2
 811 01b8 E1        		.byte	0xe1
 812 01b9 8D01 0000 		.long	0x18d
 813 01bd 0A        		.uleb128 0xa
 814 01be 0000 0000 		.long	.LASF47
 815 01c2 07        		.byte	0x7
 816 01c3 02        		.byte	0x2
 817 01c4 0301      		.word	0x103
 818 01c6 3402 0000 		.long	0x234
 819 01ca 0B        		.uleb128 0xb
 820 01cb 0000 0000 		.long	.LASF9
 821 01cf 02        		.byte	0x2
 822 01d0 0401      		.word	0x104
 823 01d2 6D00 0000 		.long	0x6d
 824 01d6 02        		.byte	0x2
 825 01d7 23        		.byte	0x23
 826 01d8 00        		.uleb128 0x0
 827 01d9 0B        		.uleb128 0xb
 828 01da 0000 0000 		.long	.LASF48
 829 01de 02        		.byte	0x2
 830 01df 0501      		.word	0x105
 831 01e1 6D00 0000 		.long	0x6d
 832 01e5 02        		.byte	0x2
 833 01e6 23        		.byte	0x23
 834 01e7 01        		.uleb128 0x1
 835 01e8 0B        		.uleb128 0xb
 836 01e9 0000 0000 		.long	.LASF49
 837 01ed 02        		.byte	0x2
 838 01ee 0601      		.word	0x106
 839 01f0 6D00 0000 		.long	0x6d
 840 01f4 02        		.byte	0x2
 841 01f5 23        		.byte	0x23
 842 01f6 02        		.uleb128 0x2
 843 01f7 0B        		.uleb128 0xb
 844 01f8 0000 0000 		.long	.LASF50
 845 01fc 02        		.byte	0x2
 846 01fd 0701      		.word	0x107
 847 01ff 6D00 0000 		.long	0x6d
 848 0203 02        		.byte	0x2
 849 0204 23        		.byte	0x23
 850 0205 03        		.uleb128 0x3
 851 0206 0B        		.uleb128 0xb
 852 0207 0000 0000 		.long	.LASF51
 853 020b 02        		.byte	0x2
 854 020c 0801      		.word	0x108
 855 020e 6D00 0000 		.long	0x6d
GAS LISTING /tmp/ccDrcwOJ.s 			page 16


 856 0212 02        		.byte	0x2
 857 0213 23        		.byte	0x23
 858 0214 04        		.uleb128 0x4
 859 0215 0B        		.uleb128 0xb
 860 0216 0000 0000 		.long	.LASF52
 861 021a 02        		.byte	0x2
 862 021b 0901      		.word	0x109
 863 021d 6D00 0000 		.long	0x6d
 864 0221 02        		.byte	0x2
 865 0222 23        		.byte	0x23
 866 0223 05        		.uleb128 0x5
 867 0224 0B        		.uleb128 0xb
 868 0225 0000 0000 		.long	.LASF53
 869 0229 02        		.byte	0x2
 870 022a 0A01      		.word	0x10a
 871 022c 6D00 0000 		.long	0x6d
 872 0230 02        		.byte	0x2
 873 0231 23        		.byte	0x23
 874 0232 06        		.uleb128 0x6
 875 0233 00        		.byte	0x0
 876 0234 0C        		.uleb128 0xc
 877 0235 0000 0000 		.long	.LASF54
 878 0239 01        		.byte	0x1
 879 023a 02        		.byte	0x2
 880 023b 0F01      		.word	0x10f
 881 023d 5D02 0000 		.long	0x25d
 882 0241 07        		.uleb128 0x7
 883 0242 0000 0000 		.long	.LASF55
 884 0246 00        		.sleb128 0
 885 0247 07        		.uleb128 0x7
 886 0248 0000 0000 		.long	.LASF56
 887 024c C000      		.sleb128 64
 888 024e 07        		.uleb128 0x7
 889 024f 0000 0000 		.long	.LASF57
 890 0253 8001      		.sleb128 128
 891 0255 07        		.uleb128 0x7
 892 0256 0000 0000 		.long	.LASF58
 893 025a C001      		.sleb128 192
 894 025c 00        		.byte	0x0
 895 025d 0D        		.uleb128 0xd
 896 025e 0000 0000 		.long	.LASF59
 897 0262 02        		.byte	0x2
 898 0263 1401      		.word	0x114
 899 0265 3402 0000 		.long	0x234
 900 0269 0C        		.uleb128 0xc
 901 026a 0000 0000 		.long	.LASF60
 902 026e 01        		.byte	0x1
 903 026f 02        		.byte	0x2
 904 0270 1801      		.word	0x118
 905 0272 9502 0000 		.long	0x295
 906 0276 07        		.uleb128 0x7
 907 0277 0000 0000 		.long	.LASF61
 908 027b 00        		.sleb128 0
 909 027c 07        		.uleb128 0x7
 910 027d 0000 0000 		.long	.LASF62
 911 0281 02        		.sleb128 2
 912 0282 07        		.uleb128 0x7
GAS LISTING /tmp/ccDrcwOJ.s 			page 17


 913 0283 0000 0000 		.long	.LASF63
 914 0287 03        		.sleb128 3
 915 0288 07        		.uleb128 0x7
 916 0289 0000 0000 		.long	.LASF64
 917 028d 07        		.sleb128 7
 918 028e 07        		.uleb128 0x7
 919 028f 0000 0000 		.long	.LASF65
 920 0293 0B        		.sleb128 11
 921 0294 00        		.byte	0x0
 922 0295 0D        		.uleb128 0xd
 923 0296 0000 0000 		.long	.LASF66
 924 029a 02        		.byte	0x2
 925 029b 1E01      		.word	0x11e
 926 029d 6902 0000 		.long	0x269
 927 02a1 0C        		.uleb128 0xc
 928 02a2 0000 0000 		.long	.LASF67
 929 02a6 01        		.byte	0x1
 930 02a7 02        		.byte	0x2
 931 02a8 2201      		.word	0x122
 932 02aa C302 0000 		.long	0x2c3
 933 02ae 07        		.uleb128 0x7
 934 02af 0000 0000 		.long	.LASF68
 935 02b3 00        		.sleb128 0
 936 02b4 07        		.uleb128 0x7
 937 02b5 0000 0000 		.long	.LASF69
 938 02b9 8001      		.sleb128 128
 939 02bb 07        		.uleb128 0x7
 940 02bc 0000 0000 		.long	.LASF70
 941 02c0 C001      		.sleb128 192
 942 02c2 00        		.byte	0x0
 943 02c3 0D        		.uleb128 0xd
 944 02c4 0000 0000 		.long	.LASF71
 945 02c8 02        		.byte	0x2
 946 02c9 2601      		.word	0x126
 947 02cb A102 0000 		.long	0x2a1
 948 02cf 0A        		.uleb128 0xa
 949 02d0 0000 0000 		.long	.LASF72
 950 02d4 08        		.byte	0x8
 951 02d5 02        		.byte	0x2
 952 02d6 3101      		.word	0x131
 953 02d8 5503 0000 		.long	0x355
 954 02dc 0B        		.uleb128 0xb
 955 02dd 0000 0000 		.long	.LASF9
 956 02e1 02        		.byte	0x2
 957 02e2 3201      		.word	0x132
 958 02e4 6D00 0000 		.long	0x6d
 959 02e8 02        		.byte	0x2
 960 02e9 23        		.byte	0x23
 961 02ea 00        		.uleb128 0x0
 962 02eb 0B        		.uleb128 0xb
 963 02ec 0000 0000 		.long	.LASF73
 964 02f0 02        		.byte	0x2
 965 02f1 3301      		.word	0x133
 966 02f3 6D00 0000 		.long	0x6d
 967 02f7 02        		.byte	0x2
 968 02f8 23        		.byte	0x23
 969 02f9 01        		.uleb128 0x1
GAS LISTING /tmp/ccDrcwOJ.s 			page 18


 970 02fa 0B        		.uleb128 0xb
 971 02fb 0000 0000 		.long	.LASF74
 972 02ff 02        		.byte	0x2
 973 0300 3401      		.word	0x134
 974 0302 6D00 0000 		.long	0x6d
 975 0306 02        		.byte	0x2
 976 0307 23        		.byte	0x23
 977 0308 02        		.uleb128 0x2
 978 0309 0B        		.uleb128 0xb
 979 030a 0000 0000 		.long	.LASF75
 980 030e 02        		.byte	0x2
 981 030f 3501      		.word	0x135
 982 0311 6D00 0000 		.long	0x6d
 983 0315 02        		.byte	0x2
 984 0316 23        		.byte	0x23
 985 0317 03        		.uleb128 0x3
 986 0318 0B        		.uleb128 0xb
 987 0319 0000 0000 		.long	.LASF76
 988 031d 02        		.byte	0x2
 989 031e 3601      		.word	0x136
 990 0320 6D00 0000 		.long	0x6d
 991 0324 02        		.byte	0x2
 992 0325 23        		.byte	0x23
 993 0326 04        		.uleb128 0x4
 994 0327 0B        		.uleb128 0xb
 995 0328 0000 0000 		.long	.LASF77
 996 032c 02        		.byte	0x2
 997 032d 3701      		.word	0x137
 998 032f 6D00 0000 		.long	0x6d
 999 0333 02        		.byte	0x2
 1000 0334 23        		.byte	0x23
 1001 0335 05        		.uleb128 0x5
 1002 0336 0B        		.uleb128 0xb
 1003 0337 0000 0000 		.long	.LASF78
 1004 033b 02        		.byte	0x2
 1005 033c 3801      		.word	0x138
 1006 033e 6D00 0000 		.long	0x6d
 1007 0342 02        		.byte	0x2
 1008 0343 23        		.byte	0x23
 1009 0344 06        		.uleb128 0x6
 1010 0345 0B        		.uleb128 0xb
 1011 0346 0000 0000 		.long	.LASF79
 1012 034a 02        		.byte	0x2
 1013 034b 3901      		.word	0x139
 1014 034d 6D00 0000 		.long	0x6d
 1015 0351 02        		.byte	0x2
 1016 0352 23        		.byte	0x23
 1017 0353 07        		.uleb128 0x7
 1018 0354 00        		.byte	0x0
 1019 0355 0E        		.uleb128 0xe
 1020 0356 02        		.byte	0x2
 1021 0357 07        		.byte	0x7
 1022 0358 0E        		.uleb128 0xe
 1023 0359 01        		.byte	0x1
 1024 035a 08        		.byte	0x8
 1025 035b 0F        		.uleb128 0xf
 1026 035c 01        		.byte	0x1
GAS LISTING /tmp/ccDrcwOJ.s 			page 19


 1027 035d 0000 0000 		.long	.LASF109
 1028 0361 01        		.byte	0x1
 1029 0362 4E        		.byte	0x4e
 1030 0363 01        		.byte	0x1
 1031 0364 00        		.byte	0x0
 1032 0365 9603 0000 		.long	0x396
 1033 0369 10        		.uleb128 0x10
 1034 036a 0000 0000 		.long	.LASF80
 1035 036e 01        		.byte	0x1
 1036 036f 4D        		.byte	0x4d
 1037 0370 9603 0000 		.long	0x396
 1038 0374 10        		.uleb128 0x10
 1039 0375 0000 0000 		.long	.LASF81
 1040 0379 01        		.byte	0x1
 1041 037a 4D        		.byte	0x4d
 1042 037b 2C00 0000 		.long	0x2c
 1043 037f 11        		.uleb128 0x11
 1044 0380 0000 0000 		.long	.LASF82
 1045 0384 01        		.byte	0x1
 1046 0385 6C        		.byte	0x6c
 1047 0386 6800 0000 		.long	0x68
 1048 038a 11        		.uleb128 0x11
 1049 038b 0000 0000 		.long	.LASF83
 1050 038f 01        		.byte	0x1
 1051 0390 6D        		.byte	0x6d
 1052 0391 9603 0000 		.long	0x396
 1053 0395 00        		.byte	0x0
 1054 0396 12        		.uleb128 0x12
 1055 0397 02        		.byte	0x2
 1056 0398 6800 0000 		.long	0x68
 1057 039c 13        		.uleb128 0x13
 1058 039d 5B03 0000 		.long	0x35b
 1059 03a1 0000 0000 		.long	.LFB6
 1060 03a5 0000 0000 		.long	.LFE6
 1061 03a9 02        		.byte	0x2
 1062 03aa 90        		.byte	0x90
 1063 03ab 20        		.uleb128 0x20
 1064 03ac CD03 0000 		.long	0x3cd
 1065 03b0 14        		.uleb128 0x14
 1066 03b1 6903 0000 		.long	0x369
 1067 03b5 0000 0000 		.long	.LLST1
 1068 03b9 15        		.uleb128 0x15
 1069 03ba 7403 0000 		.long	0x374
 1070 03be 01        		.byte	0x1
 1071 03bf 66        		.byte	0x66
 1072 03c0 16        		.uleb128 0x16
 1073 03c1 7F03 0000 		.long	0x37f
 1074 03c5 01        		.byte	0x1
 1075 03c6 62        		.byte	0x62
 1076 03c7 17        		.uleb128 0x17
 1077 03c8 8A03 0000 		.long	0x38a
 1078 03cc 00        		.byte	0x0
 1079 03cd 18        		.uleb128 0x18
 1080 03ce 01        		.byte	0x1
 1081 03cf 0000 0000 		.long	.LASF88
 1082 03d3 01        		.byte	0x1
 1083 03d4 90        		.byte	0x90
GAS LISTING /tmp/ccDrcwOJ.s 			page 20


 1084 03d5 01        		.byte	0x1
 1085 03d6 0000 0000 		.long	.LFB7
 1086 03da 0000 0000 		.long	.LFE7
 1087 03de 02        		.byte	0x2
 1088 03df 90        		.byte	0x90
 1089 03e0 20        		.uleb128 0x20
 1090 03e1 0D04 0000 		.long	0x40d
 1091 03e5 19        		.uleb128 0x19
 1092 03e6 0000 0000 		.long	.LASF84
 1093 03ea 01        		.byte	0x1
 1094 03eb 8D        		.byte	0x8d
 1095 03ec 5D02 0000 		.long	0x25d
 1096 03f0 01        		.byte	0x1
 1097 03f1 68        		.byte	0x68
 1098 03f2 19        		.uleb128 0x19
 1099 03f3 0000 0000 		.long	.LASF85
 1100 03f7 01        		.byte	0x1
 1101 03f8 8E        		.byte	0x8e
 1102 03f9 0D04 0000 		.long	0x40d
 1103 03fd 01        		.byte	0x1
 1104 03fe 66        		.byte	0x66
 1105 03ff 19        		.uleb128 0x19
 1106 0400 0000 0000 		.long	.LASF86
 1107 0404 01        		.byte	0x1
 1108 0405 8F        		.byte	0x8f
 1109 0406 9502 0000 		.long	0x295
 1110 040a 01        		.byte	0x1
 1111 040b 64        		.byte	0x64
 1112 040c 00        		.byte	0x0
 1113 040d 02        		.uleb128 0x2
 1114 040e 01        		.byte	0x1
 1115 040f 02        		.byte	0x2
 1116 0410 0000 0000 		.long	.LASF87
 1117 0414 18        		.uleb128 0x18
 1118 0415 01        		.byte	0x1
 1119 0416 0000 0000 		.long	.LASF89
 1120 041a 01        		.byte	0x1
 1121 041b A8        		.byte	0xa8
 1122 041c 01        		.byte	0x1
 1123 041d 0000 0000 		.long	.LFB8
 1124 0421 0000 0000 		.long	.LFE8
 1125 0425 02        		.byte	0x2
 1126 0426 90        		.byte	0x90
 1127 0427 20        		.uleb128 0x20
 1128 0428 4704 0000 		.long	0x447
 1129 042c 19        		.uleb128 0x19
 1130 042d 0000 0000 		.long	.LASF90
 1131 0431 01        		.byte	0x1
 1132 0432 A7        		.byte	0xa7
 1133 0433 C302 0000 		.long	0x2c3
 1134 0437 01        		.byte	0x1
 1135 0438 68        		.byte	0x68
 1136 0439 19        		.uleb128 0x19
 1137 043a 0000 0000 		.long	.LASF91
 1138 043e 01        		.byte	0x1
 1139 043f A7        		.byte	0xa7
 1140 0440 2C00 0000 		.long	0x2c
GAS LISTING /tmp/ccDrcwOJ.s 			page 21


 1141 0444 01        		.byte	0x1
 1142 0445 66        		.byte	0x66
 1143 0446 00        		.byte	0x0
 1144 0447 1A        		.uleb128 0x1a
 1145 0448 01        		.byte	0x1
 1146 0449 0000 0000 		.long	.LASF98
 1147 044d 01        		.byte	0x1
 1148 044e BC        		.byte	0xbc
 1149 044f 01        		.byte	0x1
 1150 0450 2C00 0000 		.long	0x2c
 1151 0454 0000 0000 		.long	.LFB9
 1152 0458 0000 0000 		.long	.LFE9
 1153 045c 02        		.byte	0x2
 1154 045d 90        		.byte	0x90
 1155 045e 20        		.uleb128 0x20
 1156 045f 7E04 0000 		.long	0x47e
 1157 0463 1B        		.uleb128 0x1b
 1158 0464 0000 0000 		.long	.LASF92
 1159 0468 01        		.byte	0x1
 1160 0469 BB        		.byte	0xbb
 1161 046a 2C00 0000 		.long	0x2c
 1162 046e 0000 0000 		.long	.LLST5
 1163 0472 11        		.uleb128 0x11
 1164 0473 0000 0000 		.long	.LASF93
 1165 0477 01        		.byte	0x1
 1166 0478 BE        		.byte	0xbe
 1167 0479 2C00 0000 		.long	0x2c
 1168 047d 00        		.byte	0x0
 1169 047e 18        		.uleb128 0x18
 1170 047f 01        		.byte	0x1
 1171 0480 0000 0000 		.long	.LASF94
 1172 0484 01        		.byte	0x1
 1173 0485 D0        		.byte	0xd0
 1174 0486 01        		.byte	0x1
 1175 0487 0000 0000 		.long	.LFB10
 1176 048b 0000 0000 		.long	.LFE10
 1177 048f 02        		.byte	0x2
 1178 0490 90        		.byte	0x90
 1179 0491 20        		.uleb128 0x20
 1180 0492 EF04 0000 		.long	0x4ef
 1181 0496 1B        		.uleb128 0x1b
 1182 0497 0000 0000 		.long	.LASF95
 1183 049b 01        		.byte	0x1
 1184 049c CE        		.byte	0xce
 1185 049d 5201 0000 		.long	0x152
 1186 04a1 0000 0000 		.long	.LLST7
 1187 04a5 19        		.uleb128 0x19
 1188 04a6 0000 0000 		.long	.LASF96
 1189 04aa 01        		.byte	0x1
 1190 04ab CF        		.byte	0xcf
 1191 04ac 8201 0000 		.long	0x182
 1192 04b0 01        		.byte	0x1
 1193 04b1 66        		.byte	0x66
 1194 04b2 11        		.uleb128 0x11
 1195 04b3 0000 0000 		.long	.LASF97
 1196 04b7 01        		.byte	0x1
 1197 04b8 D1        		.byte	0xd1
GAS LISTING /tmp/ccDrcwOJ.s 			page 22


 1198 04b9 2C00 0000 		.long	0x2c
 1199 04bd 1C        		.uleb128 0x1c
 1200 04be 5B03 0000 		.long	0x35b
 1201 04c2 0000 0000 		.long	.LBB10
 1202 04c6 0000 0000 		.long	.LBE10
 1203 04ca 01        		.byte	0x1
 1204 04cb D2        		.byte	0xd2
 1205 04cc 1D        		.uleb128 0x1d
 1206 04cd B903 0000 		.long	0x3b9
 1207 04d1 1D        		.uleb128 0x1d
 1208 04d2 B003 0000 		.long	0x3b0
 1209 04d6 1E        		.uleb128 0x1e
 1210 04d7 0000 0000 		.long	.LBB11
 1211 04db 0000 0000 		.long	.LBE11
 1212 04df 16        		.uleb128 0x16
 1213 04e0 7F03 0000 		.long	0x37f
 1214 04e4 02        		.byte	0x2
 1215 04e5 8C        		.byte	0x8c
 1216 04e6 01        		.sleb128 1
 1217 04e7 17        		.uleb128 0x17
 1218 04e8 8A03 0000 		.long	0x38a
 1219 04ec 00        		.byte	0x0
 1220 04ed 00        		.byte	0x0
 1221 04ee 00        		.byte	0x0
 1222 04ef 1A        		.uleb128 0x1a
 1223 04f0 01        		.byte	0x1
 1224 04f1 0000 0000 		.long	.LASF99
 1225 04f5 01        		.byte	0x1
 1226 04f6 E2        		.byte	0xe2
 1227 04f7 01        		.byte	0x1
 1228 04f8 2C00 0000 		.long	0x2c
 1229 04fc 0000 0000 		.long	.LFB11
 1230 0500 0000 0000 		.long	.LFE11
 1231 0504 02        		.byte	0x2
 1232 0505 90        		.byte	0x90
 1233 0506 20        		.uleb128 0x20
 1234 0507 5705 0000 		.long	0x557
 1235 050b 1B        		.uleb128 0x1b
 1236 050c 0000 0000 		.long	.LASF90
 1237 0510 01        		.byte	0x1
 1238 0511 E1        		.byte	0xe1
 1239 0512 FD00 0000 		.long	0xfd
 1240 0516 0000 0000 		.long	.LLST9
 1241 051a 11        		.uleb128 0x11
 1242 051b 0000 0000 		.long	.LASF100
 1243 051f 01        		.byte	0x1
 1244 0520 E3        		.byte	0xe3
 1245 0521 2C00 0000 		.long	0x2c
 1246 0525 1C        		.uleb128 0x1c
 1247 0526 5B03 0000 		.long	0x35b
 1248 052a 0000 0000 		.long	.LBB12
 1249 052e 0000 0000 		.long	.LBE12
 1250 0532 01        		.byte	0x1
 1251 0533 E4        		.byte	0xe4
 1252 0534 1D        		.uleb128 0x1d
 1253 0535 B903 0000 		.long	0x3b9
 1254 0539 1D        		.uleb128 0x1d
GAS LISTING /tmp/ccDrcwOJ.s 			page 23


 1255 053a B003 0000 		.long	0x3b0
 1256 053e 1E        		.uleb128 0x1e
 1257 053f 0000 0000 		.long	.LBB13
 1258 0543 0000 0000 		.long	.LBE13
 1259 0547 16        		.uleb128 0x16
 1260 0548 7F03 0000 		.long	0x37f
 1261 054c 02        		.byte	0x2
 1262 054d 8C        		.byte	0x8c
 1263 054e 01        		.sleb128 1
 1264 054f 17        		.uleb128 0x17
 1265 0550 8A03 0000 		.long	0x38a
 1266 0554 00        		.byte	0x0
 1267 0555 00        		.byte	0x0
 1268 0556 00        		.byte	0x0
 1269 0557 18        		.uleb128 0x18
 1270 0558 01        		.byte	0x1
 1271 0559 0000 0000 		.long	.LASF101
 1272 055d 01        		.byte	0x1
 1273 055e F2        		.byte	0xf2
 1274 055f 01        		.byte	0x1
 1275 0560 0000 0000 		.long	.LFB12
 1276 0564 0000 0000 		.long	.LFE12
 1277 0568 02        		.byte	0x2
 1278 0569 90        		.byte	0x90
 1279 056a 20        		.uleb128 0x20
 1280 056b 7D05 0000 		.long	0x57d
 1281 056f 19        		.uleb128 0x19
 1282 0570 0000 0000 		.long	.LASF90
 1283 0574 01        		.byte	0x1
 1284 0575 F1        		.byte	0xf1
 1285 0576 B201 0000 		.long	0x1b2
 1286 057a 01        		.byte	0x1
 1287 057b 68        		.byte	0x68
 1288 057c 00        		.byte	0x0
 1289 057d 1F        		.uleb128 0x1f
 1290 057e 01        		.byte	0x1
 1291 057f 0000 0000 		.long	.LASF102
 1292 0583 01        		.byte	0x1
 1293 0584 0501      		.word	0x105
 1294 0586 01        		.byte	0x1
 1295 0587 0000 0000 		.long	.LFB13
 1296 058b 0000 0000 		.long	.LFE13
 1297 058f 02        		.byte	0x2
 1298 0590 90        		.byte	0x90
 1299 0591 20        		.uleb128 0x20
 1300 0592 B505 0000 		.long	0x5b5
 1301 0596 20        		.uleb128 0x20
 1302 0597 0000 0000 		.long	.LASF103
 1303 059b 01        		.byte	0x1
 1304 059c 0401      		.word	0x104
 1305 059e 2C00 0000 		.long	0x2c
 1306 05a2 0000 0000 		.long	.LLST12
 1307 05a6 21        		.uleb128 0x21
 1308 05a7 0000 0000 		.long	.LASF104
 1309 05ab 01        		.byte	0x1
 1310 05ac 0401      		.word	0x104
 1311 05ae 0D04 0000 		.long	0x40d
GAS LISTING /tmp/ccDrcwOJ.s 			page 24


 1312 05b2 01        		.byte	0x1
 1313 05b3 66        		.byte	0x66
 1314 05b4 00        		.byte	0x0
 1315 05b5 1F        		.uleb128 0x1f
 1316 05b6 01        		.byte	0x1
 1317 05b7 0000 0000 		.long	.LASF105
 1318 05bb 01        		.byte	0x1
 1319 05bc 1901      		.word	0x119
 1320 05be 01        		.byte	0x1
 1321 05bf 0000 0000 		.long	.LFB14
 1322 05c3 0000 0000 		.long	.LFE14
 1323 05c7 02        		.byte	0x2
 1324 05c8 90        		.byte	0x90
 1325 05c9 20        		.uleb128 0x20
 1326 05ca 0106 0000 		.long	0x601
 1327 05ce 22        		.uleb128 0x22
 1328 05cf 5B03 0000 		.long	0x35b
 1329 05d3 0000 0000 		.long	.LBB14
 1330 05d7 0000 0000 		.long	.LBE14
 1331 05db 01        		.byte	0x1
 1332 05dc 1A01      		.word	0x11a
 1333 05de 1D        		.uleb128 0x1d
 1334 05df B903 0000 		.long	0x3b9
 1335 05e3 1D        		.uleb128 0x1d
 1336 05e4 B003 0000 		.long	0x3b0
 1337 05e8 1E        		.uleb128 0x1e
 1338 05e9 0000 0000 		.long	.LBB15
 1339 05ed 0000 0000 		.long	.LBE15
 1340 05f1 16        		.uleb128 0x16
 1341 05f2 7F03 0000 		.long	0x37f
 1342 05f6 02        		.byte	0x2
 1343 05f7 8C        		.byte	0x8c
 1344 05f8 01        		.sleb128 1
 1345 05f9 17        		.uleb128 0x17
 1346 05fa 8A03 0000 		.long	0x38a
 1347 05fe 00        		.byte	0x0
 1348 05ff 00        		.byte	0x0
 1349 0600 00        		.byte	0x0
 1350 0601 23        		.uleb128 0x23
 1351 0602 01        		.byte	0x1
 1352 0603 0000 0000 		.long	.LASF110
 1353 0607 01        		.byte	0x1
 1354 0608 2501      		.word	0x125
 1355 060a 01        		.byte	0x1
 1356 060b 0000 0000 		.long	.LFB15
 1357 060f 0000 0000 		.long	.LFE15
 1358 0613 02        		.byte	0x2
 1359 0614 90        		.byte	0x90
 1360 0615 20        		.uleb128 0x20
 1361 0616 22        		.uleb128 0x22
 1362 0617 5B03 0000 		.long	0x35b
 1363 061b 0000 0000 		.long	.LBB16
 1364 061f 0000 0000 		.long	.LBE16
 1365 0623 01        		.byte	0x1
 1366 0624 2601      		.word	0x126
 1367 0626 1D        		.uleb128 0x1d
 1368 0627 B903 0000 		.long	0x3b9
GAS LISTING /tmp/ccDrcwOJ.s 			page 25


 1369 062b 1D        		.uleb128 0x1d
 1370 062c B003 0000 		.long	0x3b0
 1371 0630 1E        		.uleb128 0x1e
 1372 0631 0000 0000 		.long	.LBB17
 1373 0635 0000 0000 		.long	.LBE17
 1374 0639 16        		.uleb128 0x16
 1375 063a 7F03 0000 		.long	0x37f
 1376 063e 02        		.byte	0x2
 1377 063f 8C        		.byte	0x8c
 1378 0640 01        		.sleb128 1
 1379 0641 17        		.uleb128 0x17
 1380 0642 8A03 0000 		.long	0x38a
 1381 0646 00        		.byte	0x0
 1382 0647 00        		.byte	0x0
 1383 0648 00        		.byte	0x0
 1384 0649 00        		.byte	0x0
 1385               		.section	.debug_abbrev
 1386 0000 01        		.uleb128 0x1
 1387 0001 11        		.uleb128 0x11
 1388 0002 01        		.byte	0x1
 1389 0003 25        		.uleb128 0x25
 1390 0004 0E        		.uleb128 0xe
 1391 0005 13        		.uleb128 0x13
 1392 0006 0B        		.uleb128 0xb
 1393 0007 03        		.uleb128 0x3
 1394 0008 0E        		.uleb128 0xe
 1395 0009 1B        		.uleb128 0x1b
 1396 000a 0E        		.uleb128 0xe
 1397 000b 11        		.uleb128 0x11
 1398 000c 01        		.uleb128 0x1
 1399 000d 12        		.uleb128 0x12
 1400 000e 01        		.uleb128 0x1
 1401 000f 10        		.uleb128 0x10
 1402 0010 06        		.uleb128 0x6
 1403 0011 00        		.byte	0x0
 1404 0012 00        		.byte	0x0
 1405 0013 02        		.uleb128 0x2
 1406 0014 24        		.uleb128 0x24
 1407 0015 00        		.byte	0x0
 1408 0016 0B        		.uleb128 0xb
 1409 0017 0B        		.uleb128 0xb
 1410 0018 3E        		.uleb128 0x3e
 1411 0019 0B        		.uleb128 0xb
 1412 001a 03        		.uleb128 0x3
 1413 001b 0E        		.uleb128 0xe
 1414 001c 00        		.byte	0x0
 1415 001d 00        		.byte	0x0
 1416 001e 03        		.uleb128 0x3
 1417 001f 16        		.uleb128 0x16
 1418 0020 00        		.byte	0x0
 1419 0021 03        		.uleb128 0x3
 1420 0022 0E        		.uleb128 0xe
 1421 0023 3A        		.uleb128 0x3a
 1422 0024 0B        		.uleb128 0xb
 1423 0025 3B        		.uleb128 0x3b
 1424 0026 0B        		.uleb128 0xb
 1425 0027 49        		.uleb128 0x49
GAS LISTING /tmp/ccDrcwOJ.s 			page 26


 1426 0028 13        		.uleb128 0x13
 1427 0029 00        		.byte	0x0
 1428 002a 00        		.byte	0x0
 1429 002b 04        		.uleb128 0x4
 1430 002c 24        		.uleb128 0x24
 1431 002d 00        		.byte	0x0
 1432 002e 0B        		.uleb128 0xb
 1433 002f 0B        		.uleb128 0xb
 1434 0030 3E        		.uleb128 0x3e
 1435 0031 0B        		.uleb128 0xb
 1436 0032 03        		.uleb128 0x3
 1437 0033 08        		.uleb128 0x8
 1438 0034 00        		.byte	0x0
 1439 0035 00        		.byte	0x0
 1440 0036 05        		.uleb128 0x5
 1441 0037 35        		.uleb128 0x35
 1442 0038 00        		.byte	0x0
 1443 0039 49        		.uleb128 0x49
 1444 003a 13        		.uleb128 0x13
 1445 003b 00        		.byte	0x0
 1446 003c 00        		.byte	0x0
 1447 003d 06        		.uleb128 0x6
 1448 003e 04        		.uleb128 0x4
 1449 003f 01        		.byte	0x1
 1450 0040 03        		.uleb128 0x3
 1451 0041 0E        		.uleb128 0xe
 1452 0042 0B        		.uleb128 0xb
 1453 0043 0B        		.uleb128 0xb
 1454 0044 3A        		.uleb128 0x3a
 1455 0045 0B        		.uleb128 0xb
 1456 0046 3B        		.uleb128 0x3b
 1457 0047 0B        		.uleb128 0xb
 1458 0048 01        		.uleb128 0x1
 1459 0049 13        		.uleb128 0x13
 1460 004a 00        		.byte	0x0
 1461 004b 00        		.byte	0x0
 1462 004c 07        		.uleb128 0x7
 1463 004d 28        		.uleb128 0x28
 1464 004e 00        		.byte	0x0
 1465 004f 03        		.uleb128 0x3
 1466 0050 0E        		.uleb128 0xe
 1467 0051 1C        		.uleb128 0x1c
 1468 0052 0D        		.uleb128 0xd
 1469 0053 00        		.byte	0x0
 1470 0054 00        		.byte	0x0
 1471 0055 08        		.uleb128 0x8
 1472 0056 13        		.uleb128 0x13
 1473 0057 01        		.byte	0x1
 1474 0058 03        		.uleb128 0x3
 1475 0059 0E        		.uleb128 0xe
 1476 005a 0B        		.uleb128 0xb
 1477 005b 0B        		.uleb128 0xb
 1478 005c 3A        		.uleb128 0x3a
 1479 005d 0B        		.uleb128 0xb
 1480 005e 3B        		.uleb128 0x3b
 1481 005f 0B        		.uleb128 0xb
 1482 0060 01        		.uleb128 0x1
GAS LISTING /tmp/ccDrcwOJ.s 			page 27


 1483 0061 13        		.uleb128 0x13
 1484 0062 00        		.byte	0x0
 1485 0063 00        		.byte	0x0
 1486 0064 09        		.uleb128 0x9
 1487 0065 0D        		.uleb128 0xd
 1488 0066 00        		.byte	0x0
 1489 0067 03        		.uleb128 0x3
 1490 0068 0E        		.uleb128 0xe
 1491 0069 3A        		.uleb128 0x3a
 1492 006a 0B        		.uleb128 0xb
 1493 006b 3B        		.uleb128 0x3b
 1494 006c 0B        		.uleb128 0xb
 1495 006d 49        		.uleb128 0x49
 1496 006e 13        		.uleb128 0x13
 1497 006f 38        		.uleb128 0x38
 1498 0070 0A        		.uleb128 0xa
 1499 0071 00        		.byte	0x0
 1500 0072 00        		.byte	0x0
 1501 0073 0A        		.uleb128 0xa
 1502 0074 13        		.uleb128 0x13
 1503 0075 01        		.byte	0x1
 1504 0076 03        		.uleb128 0x3
 1505 0077 0E        		.uleb128 0xe
 1506 0078 0B        		.uleb128 0xb
 1507 0079 0B        		.uleb128 0xb
 1508 007a 3A        		.uleb128 0x3a
 1509 007b 0B        		.uleb128 0xb
 1510 007c 3B        		.uleb128 0x3b
 1511 007d 05        		.uleb128 0x5
 1512 007e 01        		.uleb128 0x1
 1513 007f 13        		.uleb128 0x13
 1514 0080 00        		.byte	0x0
 1515 0081 00        		.byte	0x0
 1516 0082 0B        		.uleb128 0xb
 1517 0083 0D        		.uleb128 0xd
 1518 0084 00        		.byte	0x0
 1519 0085 03        		.uleb128 0x3
 1520 0086 0E        		.uleb128 0xe
 1521 0087 3A        		.uleb128 0x3a
 1522 0088 0B        		.uleb128 0xb
 1523 0089 3B        		.uleb128 0x3b
 1524 008a 05        		.uleb128 0x5
 1525 008b 49        		.uleb128 0x49
 1526 008c 13        		.uleb128 0x13
 1527 008d 38        		.uleb128 0x38
 1528 008e 0A        		.uleb128 0xa
 1529 008f 00        		.byte	0x0
 1530 0090 00        		.byte	0x0
 1531 0091 0C        		.uleb128 0xc
 1532 0092 04        		.uleb128 0x4
 1533 0093 01        		.byte	0x1
 1534 0094 03        		.uleb128 0x3
 1535 0095 0E        		.uleb128 0xe
 1536 0096 0B        		.uleb128 0xb
 1537 0097 0B        		.uleb128 0xb
 1538 0098 3A        		.uleb128 0x3a
 1539 0099 0B        		.uleb128 0xb
GAS LISTING /tmp/ccDrcwOJ.s 			page 28


 1540 009a 3B        		.uleb128 0x3b
 1541 009b 05        		.uleb128 0x5
 1542 009c 01        		.uleb128 0x1
 1543 009d 13        		.uleb128 0x13
 1544 009e 00        		.byte	0x0
 1545 009f 00        		.byte	0x0
 1546 00a0 0D        		.uleb128 0xd
 1547 00a1 16        		.uleb128 0x16
 1548 00a2 00        		.byte	0x0
 1549 00a3 03        		.uleb128 0x3
 1550 00a4 0E        		.uleb128 0xe
 1551 00a5 3A        		.uleb128 0x3a
 1552 00a6 0B        		.uleb128 0xb
 1553 00a7 3B        		.uleb128 0x3b
 1554 00a8 05        		.uleb128 0x5
 1555 00a9 49        		.uleb128 0x49
 1556 00aa 13        		.uleb128 0x13
 1557 00ab 00        		.byte	0x0
 1558 00ac 00        		.byte	0x0
 1559 00ad 0E        		.uleb128 0xe
 1560 00ae 24        		.uleb128 0x24
 1561 00af 00        		.byte	0x0
 1562 00b0 0B        		.uleb128 0xb
 1563 00b1 0B        		.uleb128 0xb
 1564 00b2 3E        		.uleb128 0x3e
 1565 00b3 0B        		.uleb128 0xb
 1566 00b4 00        		.byte	0x0
 1567 00b5 00        		.byte	0x0
 1568 00b6 0F        		.uleb128 0xf
 1569 00b7 2E        		.uleb128 0x2e
 1570 00b8 01        		.byte	0x1
 1571 00b9 3F        		.uleb128 0x3f
 1572 00ba 0C        		.uleb128 0xc
 1573 00bb 03        		.uleb128 0x3
 1574 00bc 0E        		.uleb128 0xe
 1575 00bd 3A        		.uleb128 0x3a
 1576 00be 0B        		.uleb128 0xb
 1577 00bf 3B        		.uleb128 0x3b
 1578 00c0 0B        		.uleb128 0xb
 1579 00c1 27        		.uleb128 0x27
 1580 00c2 0C        		.uleb128 0xc
 1581 00c3 20        		.uleb128 0x20
 1582 00c4 0B        		.uleb128 0xb
 1583 00c5 01        		.uleb128 0x1
 1584 00c6 13        		.uleb128 0x13
 1585 00c7 00        		.byte	0x0
 1586 00c8 00        		.byte	0x0
 1587 00c9 10        		.uleb128 0x10
 1588 00ca 05        		.uleb128 0x5
 1589 00cb 00        		.byte	0x0
 1590 00cc 03        		.uleb128 0x3
 1591 00cd 0E        		.uleb128 0xe
 1592 00ce 3A        		.uleb128 0x3a
 1593 00cf 0B        		.uleb128 0xb
 1594 00d0 3B        		.uleb128 0x3b
 1595 00d1 0B        		.uleb128 0xb
 1596 00d2 49        		.uleb128 0x49
GAS LISTING /tmp/ccDrcwOJ.s 			page 29


 1597 00d3 13        		.uleb128 0x13
 1598 00d4 00        		.byte	0x0
 1599 00d5 00        		.byte	0x0
 1600 00d6 11        		.uleb128 0x11
 1601 00d7 34        		.uleb128 0x34
 1602 00d8 00        		.byte	0x0
 1603 00d9 03        		.uleb128 0x3
 1604 00da 0E        		.uleb128 0xe
 1605 00db 3A        		.uleb128 0x3a
 1606 00dc 0B        		.uleb128 0xb
 1607 00dd 3B        		.uleb128 0x3b
 1608 00de 0B        		.uleb128 0xb
 1609 00df 49        		.uleb128 0x49
 1610 00e0 13        		.uleb128 0x13
 1611 00e1 00        		.byte	0x0
 1612 00e2 00        		.byte	0x0
 1613 00e3 12        		.uleb128 0x12
 1614 00e4 0F        		.uleb128 0xf
 1615 00e5 00        		.byte	0x0
 1616 00e6 0B        		.uleb128 0xb
 1617 00e7 0B        		.uleb128 0xb
 1618 00e8 49        		.uleb128 0x49
 1619 00e9 13        		.uleb128 0x13
 1620 00ea 00        		.byte	0x0
 1621 00eb 00        		.byte	0x0
 1622 00ec 13        		.uleb128 0x13
 1623 00ed 2E        		.uleb128 0x2e
 1624 00ee 01        		.byte	0x1
 1625 00ef 31        		.uleb128 0x31
 1626 00f0 13        		.uleb128 0x13
 1627 00f1 11        		.uleb128 0x11
 1628 00f2 01        		.uleb128 0x1
 1629 00f3 12        		.uleb128 0x12
 1630 00f4 01        		.uleb128 0x1
 1631 00f5 40        		.uleb128 0x40
 1632 00f6 0A        		.uleb128 0xa
 1633 00f7 01        		.uleb128 0x1
 1634 00f8 13        		.uleb128 0x13
 1635 00f9 00        		.byte	0x0
 1636 00fa 00        		.byte	0x0
 1637 00fb 14        		.uleb128 0x14
 1638 00fc 05        		.uleb128 0x5
 1639 00fd 00        		.byte	0x0
 1640 00fe 31        		.uleb128 0x31
 1641 00ff 13        		.uleb128 0x13
 1642 0100 02        		.uleb128 0x2
 1643 0101 06        		.uleb128 0x6
 1644 0102 00        		.byte	0x0
 1645 0103 00        		.byte	0x0
 1646 0104 15        		.uleb128 0x15
 1647 0105 05        		.uleb128 0x5
 1648 0106 00        		.byte	0x0
 1649 0107 31        		.uleb128 0x31
 1650 0108 13        		.uleb128 0x13
 1651 0109 02        		.uleb128 0x2
 1652 010a 0A        		.uleb128 0xa
 1653 010b 00        		.byte	0x0
GAS LISTING /tmp/ccDrcwOJ.s 			page 30


 1654 010c 00        		.byte	0x0
 1655 010d 16        		.uleb128 0x16
 1656 010e 34        		.uleb128 0x34
 1657 010f 00        		.byte	0x0
 1658 0110 31        		.uleb128 0x31
 1659 0111 13        		.uleb128 0x13
 1660 0112 02        		.uleb128 0x2
 1661 0113 0A        		.uleb128 0xa
 1662 0114 00        		.byte	0x0
 1663 0115 00        		.byte	0x0
 1664 0116 17        		.uleb128 0x17
 1665 0117 34        		.uleb128 0x34
 1666 0118 00        		.byte	0x0
 1667 0119 31        		.uleb128 0x31
 1668 011a 13        		.uleb128 0x13
 1669 011b 00        		.byte	0x0
 1670 011c 00        		.byte	0x0
 1671 011d 18        		.uleb128 0x18
 1672 011e 2E        		.uleb128 0x2e
 1673 011f 01        		.byte	0x1
 1674 0120 3F        		.uleb128 0x3f
 1675 0121 0C        		.uleb128 0xc
 1676 0122 03        		.uleb128 0x3
 1677 0123 0E        		.uleb128 0xe
 1678 0124 3A        		.uleb128 0x3a
 1679 0125 0B        		.uleb128 0xb
 1680 0126 3B        		.uleb128 0x3b
 1681 0127 0B        		.uleb128 0xb
 1682 0128 27        		.uleb128 0x27
 1683 0129 0C        		.uleb128 0xc
 1684 012a 11        		.uleb128 0x11
 1685 012b 01        		.uleb128 0x1
 1686 012c 12        		.uleb128 0x12
 1687 012d 01        		.uleb128 0x1
 1688 012e 40        		.uleb128 0x40
 1689 012f 0A        		.uleb128 0xa
 1690 0130 01        		.uleb128 0x1
 1691 0131 13        		.uleb128 0x13
 1692 0132 00        		.byte	0x0
 1693 0133 00        		.byte	0x0
 1694 0134 19        		.uleb128 0x19
 1695 0135 05        		.uleb128 0x5
 1696 0136 00        		.byte	0x0
 1697 0137 03        		.uleb128 0x3
 1698 0138 0E        		.uleb128 0xe
 1699 0139 3A        		.uleb128 0x3a
 1700 013a 0B        		.uleb128 0xb
 1701 013b 3B        		.uleb128 0x3b
 1702 013c 0B        		.uleb128 0xb
 1703 013d 49        		.uleb128 0x49
 1704 013e 13        		.uleb128 0x13
 1705 013f 02        		.uleb128 0x2
 1706 0140 0A        		.uleb128 0xa
 1707 0141 00        		.byte	0x0
 1708 0142 00        		.byte	0x0
 1709 0143 1A        		.uleb128 0x1a
 1710 0144 2E        		.uleb128 0x2e
GAS LISTING /tmp/ccDrcwOJ.s 			page 31


 1711 0145 01        		.byte	0x1
 1712 0146 3F        		.uleb128 0x3f
 1713 0147 0C        		.uleb128 0xc
 1714 0148 03        		.uleb128 0x3
 1715 0149 0E        		.uleb128 0xe
 1716 014a 3A        		.uleb128 0x3a
 1717 014b 0B        		.uleb128 0xb
 1718 014c 3B        		.uleb128 0x3b
 1719 014d 0B        		.uleb128 0xb
 1720 014e 27        		.uleb128 0x27
 1721 014f 0C        		.uleb128 0xc
 1722 0150 49        		.uleb128 0x49
 1723 0151 13        		.uleb128 0x13
 1724 0152 11        		.uleb128 0x11
 1725 0153 01        		.uleb128 0x1
 1726 0154 12        		.uleb128 0x12
 1727 0155 01        		.uleb128 0x1
 1728 0156 40        		.uleb128 0x40
 1729 0157 0A        		.uleb128 0xa
 1730 0158 01        		.uleb128 0x1
 1731 0159 13        		.uleb128 0x13
 1732 015a 00        		.byte	0x0
 1733 015b 00        		.byte	0x0
 1734 015c 1B        		.uleb128 0x1b
 1735 015d 05        		.uleb128 0x5
 1736 015e 00        		.byte	0x0
 1737 015f 03        		.uleb128 0x3
 1738 0160 0E        		.uleb128 0xe
 1739 0161 3A        		.uleb128 0x3a
 1740 0162 0B        		.uleb128 0xb
 1741 0163 3B        		.uleb128 0x3b
 1742 0164 0B        		.uleb128 0xb
 1743 0165 49        		.uleb128 0x49
 1744 0166 13        		.uleb128 0x13
 1745 0167 02        		.uleb128 0x2
 1746 0168 06        		.uleb128 0x6
 1747 0169 00        		.byte	0x0
 1748 016a 00        		.byte	0x0
 1749 016b 1C        		.uleb128 0x1c
 1750 016c 1D        		.uleb128 0x1d
 1751 016d 01        		.byte	0x1
 1752 016e 31        		.uleb128 0x31
 1753 016f 13        		.uleb128 0x13
 1754 0170 11        		.uleb128 0x11
 1755 0171 01        		.uleb128 0x1
 1756 0172 12        		.uleb128 0x12
 1757 0173 01        		.uleb128 0x1
 1758 0174 58        		.uleb128 0x58
 1759 0175 0B        		.uleb128 0xb
 1760 0176 59        		.uleb128 0x59
 1761 0177 0B        		.uleb128 0xb
 1762 0178 00        		.byte	0x0
 1763 0179 00        		.byte	0x0
 1764 017a 1D        		.uleb128 0x1d
 1765 017b 05        		.uleb128 0x5
 1766 017c 00        		.byte	0x0
 1767 017d 31        		.uleb128 0x31
GAS LISTING /tmp/ccDrcwOJ.s 			page 32


 1768 017e 13        		.uleb128 0x13
 1769 017f 00        		.byte	0x0
 1770 0180 00        		.byte	0x0
 1771 0181 1E        		.uleb128 0x1e
 1772 0182 0B        		.uleb128 0xb
 1773 0183 01        		.byte	0x1
 1774 0184 11        		.uleb128 0x11
 1775 0185 01        		.uleb128 0x1
 1776 0186 12        		.uleb128 0x12
 1777 0187 01        		.uleb128 0x1
 1778 0188 00        		.byte	0x0
 1779 0189 00        		.byte	0x0
 1780 018a 1F        		.uleb128 0x1f
 1781 018b 2E        		.uleb128 0x2e
 1782 018c 01        		.byte	0x1
 1783 018d 3F        		.uleb128 0x3f
 1784 018e 0C        		.uleb128 0xc
 1785 018f 03        		.uleb128 0x3
 1786 0190 0E        		.uleb128 0xe
 1787 0191 3A        		.uleb128 0x3a
 1788 0192 0B        		.uleb128 0xb
 1789 0193 3B        		.uleb128 0x3b
 1790 0194 05        		.uleb128 0x5
 1791 0195 27        		.uleb128 0x27
 1792 0196 0C        		.uleb128 0xc
 1793 0197 11        		.uleb128 0x11
 1794 0198 01        		.uleb128 0x1
 1795 0199 12        		.uleb128 0x12
 1796 019a 01        		.uleb128 0x1
 1797 019b 40        		.uleb128 0x40
 1798 019c 0A        		.uleb128 0xa
 1799 019d 01        		.uleb128 0x1
 1800 019e 13        		.uleb128 0x13
 1801 019f 00        		.byte	0x0
 1802 01a0 00        		.byte	0x0
 1803 01a1 20        		.uleb128 0x20
 1804 01a2 05        		.uleb128 0x5
 1805 01a3 00        		.byte	0x0
 1806 01a4 03        		.uleb128 0x3
 1807 01a5 0E        		.uleb128 0xe
 1808 01a6 3A        		.uleb128 0x3a
 1809 01a7 0B        		.uleb128 0xb
 1810 01a8 3B        		.uleb128 0x3b
 1811 01a9 05        		.uleb128 0x5
 1812 01aa 49        		.uleb128 0x49
 1813 01ab 13        		.uleb128 0x13
 1814 01ac 02        		.uleb128 0x2
 1815 01ad 06        		.uleb128 0x6
 1816 01ae 00        		.byte	0x0
 1817 01af 00        		.byte	0x0
 1818 01b0 21        		.uleb128 0x21
 1819 01b1 05        		.uleb128 0x5
 1820 01b2 00        		.byte	0x0
 1821 01b3 03        		.uleb128 0x3
 1822 01b4 0E        		.uleb128 0xe
 1823 01b5 3A        		.uleb128 0x3a
 1824 01b6 0B        		.uleb128 0xb
GAS LISTING /tmp/ccDrcwOJ.s 			page 33


 1825 01b7 3B        		.uleb128 0x3b
 1826 01b8 05        		.uleb128 0x5
 1827 01b9 49        		.uleb128 0x49
 1828 01ba 13        		.uleb128 0x13
 1829 01bb 02        		.uleb128 0x2
 1830 01bc 0A        		.uleb128 0xa
 1831 01bd 00        		.byte	0x0
 1832 01be 00        		.byte	0x0
 1833 01bf 22        		.uleb128 0x22
 1834 01c0 1D        		.uleb128 0x1d
 1835 01c1 01        		.byte	0x1
 1836 01c2 31        		.uleb128 0x31
 1837 01c3 13        		.uleb128 0x13
 1838 01c4 11        		.uleb128 0x11
 1839 01c5 01        		.uleb128 0x1
 1840 01c6 12        		.uleb128 0x12
 1841 01c7 01        		.uleb128 0x1
 1842 01c8 58        		.uleb128 0x58
 1843 01c9 0B        		.uleb128 0xb
 1844 01ca 59        		.uleb128 0x59
 1845 01cb 05        		.uleb128 0x5
 1846 01cc 00        		.byte	0x0
 1847 01cd 00        		.byte	0x0
 1848 01ce 23        		.uleb128 0x23
 1849 01cf 2E        		.uleb128 0x2e
 1850 01d0 01        		.byte	0x1
 1851 01d1 3F        		.uleb128 0x3f
 1852 01d2 0C        		.uleb128 0xc
 1853 01d3 03        		.uleb128 0x3
 1854 01d4 0E        		.uleb128 0xe
 1855 01d5 3A        		.uleb128 0x3a
 1856 01d6 0B        		.uleb128 0xb
 1857 01d7 3B        		.uleb128 0x3b
 1858 01d8 05        		.uleb128 0x5
 1859 01d9 27        		.uleb128 0x27
 1860 01da 0C        		.uleb128 0xc
 1861 01db 11        		.uleb128 0x11
 1862 01dc 01        		.uleb128 0x1
 1863 01dd 12        		.uleb128 0x12
 1864 01de 01        		.uleb128 0x1
 1865 01df 40        		.uleb128 0x40
 1866 01e0 0A        		.uleb128 0xa
 1867 01e1 00        		.byte	0x0
 1868 01e2 00        		.byte	0x0
 1869 01e3 00        		.byte	0x0
 1870               		.section	.debug_pubnames,"",@progbits
 1871 0000 2501 0000 		.long	0x125
 1872 0004 0200      		.word	0x2
 1873 0006 0000 0000 		.long	.Ldebug_info0
 1874 000a 4A06 0000 		.long	0x64a
 1875 000e 9C03 0000 		.long	0x39c
 1876 0012 4343 5057 		.string	"CCPWrite"
 1876      7269 7465 
 1876      00
 1877 001b CD03 0000 		.long	0x3cd
 1878 001f 434C 4B53 		.string	"CLKSYS_XOSC_Config"
 1878      5953 5F58 
GAS LISTING /tmp/ccDrcwOJ.s 			page 34


 1878      4F53 435F 
 1878      436F 6E66 
 1878      6967 00
 1879 0032 1404 0000 		.long	0x414
 1880 0036 434C 4B53 		.string	"CLKSYS_PLL_Config"
 1880      5953 5F50 
 1880      4C4C 5F43 
 1880      6F6E 6669 
 1880      6700 
 1881 0048 4704 0000 		.long	0x447
 1882 004c 434C 4B53 		.string	"CLKSYS_Disable"
 1882      5953 5F44 
 1882      6973 6162 
 1882      6C65 00
 1883 005b 7E04 0000 		.long	0x47e
 1884 005f 434C 4B53 		.string	"CLKSYS_Prescalers_Config"
 1884      5953 5F50 
 1884      7265 7363 
 1884      616C 6572 
 1884      735F 436F 
 1885 0078 EF04 0000 		.long	0x4ef
 1886 007c 434C 4B53 		.string	"CLKSYS_Main_ClockSource_Select"
 1886      5953 5F4D 
 1886      6169 6E5F 
 1886      436C 6F63 
 1886      6B53 6F75 
 1887 009b 5705 0000 		.long	0x557
 1888 009f 434C 4B53 		.string	"CLKSYS_RTC_ClockSource_Enable"
 1888      5953 5F52 
 1888      5443 5F43 
 1888      6C6F 636B 
 1888      536F 7572 
 1889 00bd 7D05 0000 		.long	0x57d
 1890 00c1 434C 4B53 		.string	"CLKSYS_AutoCalibration_Enable"
 1890      5953 5F41 
 1890      7574 6F43 
 1890      616C 6962 
 1890      7261 7469 
 1891 00df B505 0000 		.long	0x5b5
 1892 00e3 434C 4B53 		.string	"CLKSYS_XOSC_FailureDetection_Enable"
 1892      5953 5F58 
 1892      4F53 435F 
 1892      4661 696C 
 1892      7572 6544 
 1893 0107 0106 0000 		.long	0x601
 1894 010b 434C 4B53 		.string	"CLKSYS_Configuration_Lock"
 1894      5953 5F43 
 1894      6F6E 6669 
 1894      6775 7261 
 1894      7469 6F6E 
 1895 0125 0000 0000 		.long	0x0
 1896               		.section	.debug_aranges,"",@progbits
 1897 0000 1C00 0000 		.long	0x1c
 1898 0004 0200      		.word	0x2
 1899 0006 0000 0000 		.long	.Ldebug_info0
 1900 000a 04        		.byte	0x4
 1901 000b 00        		.byte	0x0
GAS LISTING /tmp/ccDrcwOJ.s 			page 35


 1902 000c 0000      		.word	0x0
 1903 000e 0000      		.word	0x0
 1904 0010 0000 0000 		.long	.Ltext0
 1905 0014 8401 0000 		.long	.Letext0-.Ltext0
 1906 0018 0000 0000 		.long	0x0
 1907 001c 0000 0000 		.long	0x0
 1908               		.section	.debug_line
 1909 0000 8302 0000 		.long	.LELT0-.LSLT0
 1910               	.LSLT0:
 1911 0004 0200      		.word	0x2
 1912 0006 B700 0000 		.long	.LELTP0-.LASLTP0
 1913               	.LASLTP0:
 1914 000a 01        		.byte	0x1
 1915 000b 01        		.byte	0x1
 1916 000c F6        		.byte	0xf6
 1917 000d F5        		.byte	0xf5
 1918 000e 0A        		.byte	0xa
 1919 000f 00        		.byte	0x0
 1920 0010 01        		.byte	0x1
 1921 0011 01        		.byte	0x1
 1922 0012 01        		.byte	0x1
 1923 0013 01        		.byte	0x1
 1924 0014 00        		.byte	0x0
 1925 0015 00        		.byte	0x0
 1926 0016 00        		.byte	0x0
 1927 0017 01        		.byte	0x1
 1928 0018 2F75 7372 		.ascii	"/usr/local/avr/lib/gcc/avr/4.3.4/../../../../avr/include"
 1928      2F6C 6F63 
 1928      616C 2F61 
 1928      7672 2F6C 
 1928      6962 2F67 
 1929 0050 00        		.byte	0
 1930 0051 2F75 7372 		.ascii	"/usr/local/avr/lib/gcc/avr/4.3.4/../../../../avr/include/avr"
 1930      2F6C 6F63 
 1930      616C 2F61 
 1930      7672 2F6C 
 1930      6962 2F67 
 1931 008d 00        		.byte	0
 1932 008e 00        		.byte	0x0
 1933 008f 636C 6B73 		.string	"clksys_driver.c"
 1933      7973 5F64 
 1933      7269 7665 
 1933      722E 6300 
 1934 009f 00        		.uleb128 0x0
 1935 00a0 00        		.uleb128 0x0
 1936 00a1 00        		.uleb128 0x0
 1937 00a2 6176 722F 		.string	"avr/iox128a3.h"
 1937      696F 7831 
 1937      3238 6133 
 1937      2E68 00
 1938 00b1 01        		.uleb128 0x1
 1939 00b2 00        		.uleb128 0x0
 1940 00b3 00        		.uleb128 0x0
 1941 00b4 7374 6469 		.string	"stdint.h"
 1941      6E74 2E68 
 1941      00
 1942 00bd 01        		.uleb128 0x1
GAS LISTING /tmp/ccDrcwOJ.s 			page 36


 1943 00be 00        		.uleb128 0x0
 1944 00bf 00        		.uleb128 0x0
 1945 00c0 00        		.byte	0x0
 1946               	.LELTP0:
 1947 00c1 00        		.byte	0x0
 1948 00c2 05        		.uleb128 0x5
 1949 00c3 02        		.byte	0x2
 1950 00c4 0000 0000 		.long	.LM1
 1951 00c8 61        		.byte	0x61
 1952 00c9 00        		.byte	0x0
 1953 00ca 05        		.uleb128 0x5
 1954 00cb 02        		.byte	0x2
 1955 00cc 0000 0000 		.long	.LM2
 1956 00d0 32        		.byte	0x32
 1957 00d1 00        		.byte	0x0
 1958 00d2 05        		.uleb128 0x5
 1959 00d3 02        		.byte	0x2
 1960 00d4 0000 0000 		.long	.LM3
 1961 00d8 17        		.byte	0x17
 1962 00d9 00        		.byte	0x0
 1963 00da 05        		.uleb128 0x5
 1964 00db 02        		.byte	0x2
 1965 00dc 0000 0000 		.long	.LM4
 1966 00e0 16        		.byte	0x16
 1967 00e1 00        		.byte	0x0
 1968 00e2 05        		.uleb128 0x5
 1969 00e3 02        		.byte	0x2
 1970 00e4 0000 0000 		.long	.LM5
 1971 00e8 1E        		.byte	0x1e
 1972 00e9 00        		.byte	0x0
 1973 00ea 05        		.uleb128 0x5
 1974 00eb 02        		.byte	0x2
 1975 00ec 0000 0000 		.long	.LM6
 1976 00f0 16        		.byte	0x16
 1977 00f1 00        		.byte	0x0
 1978 00f2 05        		.uleb128 0x5
 1979 00f3 02        		.byte	0x2
 1980 00f4 0000 0000 		.long	.LM7
 1981 00f8 27        		.byte	0x27
 1982 00f9 00        		.byte	0x0
 1983 00fa 05        		.uleb128 0x5
 1984 00fb 02        		.byte	0x2
 1985 00fc 0000 0000 		.long	.LM8
 1986 0100 15        		.byte	0x15
 1987 0101 00        		.byte	0x0
 1988 0102 05        		.uleb128 0x5
 1989 0103 02        		.byte	0x2
 1990 0104 0000 0000 		.long	.LM9
 1991 0108 17        		.byte	0x17
 1992 0109 00        		.byte	0x0
 1993 010a 05        		.uleb128 0x5
 1994 010b 02        		.byte	0x2
 1995 010c 0000 0000 		.long	.LM10
 1996 0110 11        		.byte	0x11
 1997 0111 00        		.byte	0x0
 1998 0112 05        		.uleb128 0x5
 1999 0113 02        		.byte	0x2
GAS LISTING /tmp/ccDrcwOJ.s 			page 37


 2000 0114 0000 0000 		.long	.LM11
 2001 0118 17        		.byte	0x17
 2002 0119 00        		.byte	0x0
 2003 011a 05        		.uleb128 0x5
 2004 011b 02        		.byte	0x2
 2005 011c 0000 0000 		.long	.LM12
 2006 0120 28        		.byte	0x28
 2007 0121 00        		.byte	0x0
 2008 0122 05        		.uleb128 0x5
 2009 0123 02        		.byte	0x2
 2010 0124 0000 0000 		.long	.LM13
 2011 0128 16        		.byte	0x16
 2012 0129 00        		.byte	0x0
 2013 012a 05        		.uleb128 0x5
 2014 012b 02        		.byte	0x2
 2015 012c 0000 0000 		.long	.LM14
 2016 0130 15        		.byte	0x15
 2017 0131 00        		.byte	0x0
 2018 0132 05        		.uleb128 0x5
 2019 0133 02        		.byte	0x2
 2020 0134 0000 0000 		.long	.LM15
 2021 0138 25        		.byte	0x25
 2022 0139 00        		.byte	0x0
 2023 013a 05        		.uleb128 0x5
 2024 013b 02        		.byte	0x2
 2025 013c 0000 0000 		.long	.LM16
 2026 0140 15        		.byte	0x15
 2027 0141 00        		.byte	0x0
 2028 0142 05        		.uleb128 0x5
 2029 0143 02        		.byte	0x2
 2030 0144 0000 0000 		.long	.LM17
 2031 0148 15        		.byte	0x15
 2032 0149 00        		.byte	0x0
 2033 014a 05        		.uleb128 0x5
 2034 014b 02        		.byte	0x2
 2035 014c 0000 0000 		.long	.LM18
 2036 0150 16        		.byte	0x16
 2037 0151 00        		.byte	0x0
 2038 0152 05        		.uleb128 0x5
 2039 0153 02        		.byte	0x2
 2040 0154 0000 0000 		.long	.LM19
 2041 0158 24        		.byte	0x24
 2042 0159 00        		.byte	0x0
 2043 015a 05        		.uleb128 0x5
 2044 015b 02        		.byte	0x2
 2045 015c 0000 0000 		.long	.LM20
 2046 0160 03        		.byte	0x3
 2047 0161 9C7F      		.sleb128 -100
 2048 0163 01        		.byte	0x1
 2049 0164 00        		.byte	0x0
 2050 0165 05        		.uleb128 0x5
 2051 0166 02        		.byte	0x2
 2052 0167 0000 0000 		.long	.LM21
 2053 016b 17        		.byte	0x17
 2054 016c 00        		.byte	0x0
 2055 016d 05        		.uleb128 0x5
 2056 016e 02        		.byte	0x2
GAS LISTING /tmp/ccDrcwOJ.s 			page 38


 2057 016f 0000 0000 		.long	.LM22
 2058 0173 16        		.byte	0x16
 2059 0174 00        		.byte	0x0
 2060 0175 05        		.uleb128 0x5
 2061 0176 02        		.byte	0x2
 2062 0177 0000 0000 		.long	.LM23
 2063 017b 1E        		.byte	0x1e
 2064 017c 00        		.byte	0x0
 2065 017d 05        		.uleb128 0x5
 2066 017e 02        		.byte	0x2
 2067 017f 0000 0000 		.long	.LM24
 2068 0183 6C        		.byte	0x6c
 2069 0184 00        		.byte	0x0
 2070 0185 05        		.uleb128 0x5
 2071 0186 02        		.byte	0x2
 2072 0187 0000 0000 		.long	.LM25
 2073 018b 23        		.byte	0x23
 2074 018c 00        		.byte	0x0
 2075 018d 05        		.uleb128 0x5
 2076 018e 02        		.byte	0x2
 2077 018f 0000 0000 		.long	.LM26
 2078 0193 15        		.byte	0x15
 2079 0194 00        		.byte	0x0
 2080 0195 05        		.uleb128 0x5
 2081 0196 02        		.byte	0x2
 2082 0197 0000 0000 		.long	.LM27
 2083 019b 03        		.byte	0x3
 2084 019c 897F      		.sleb128 -119
 2085 019e 01        		.byte	0x1
 2086 019f 00        		.byte	0x0
 2087 01a0 05        		.uleb128 0x5
 2088 01a1 02        		.byte	0x2
 2089 01a2 0000 0000 		.long	.LM28
 2090 01a6 17        		.byte	0x17
 2091 01a7 00        		.byte	0x0
 2092 01a8 05        		.uleb128 0x5
 2093 01a9 02        		.byte	0x2
 2094 01aa 0000 0000 		.long	.LM29
 2095 01ae 16        		.byte	0x16
 2096 01af 00        		.byte	0x0
 2097 01b0 05        		.uleb128 0x5
 2098 01b1 02        		.byte	0x2
 2099 01b2 0000 0000 		.long	.LM30
 2100 01b6 1E        		.byte	0x1e
 2101 01b7 00        		.byte	0x0
 2102 01b8 05        		.uleb128 0x5
 2103 01b9 02        		.byte	0x2
 2104 01ba 0000 0000 		.long	.LM31
 2105 01be 7E        		.byte	0x7e
 2106 01bf 00        		.byte	0x0
 2107 01c0 05        		.uleb128 0x5
 2108 01c1 02        		.byte	0x2
 2109 01c2 0000 0000 		.long	.LM32
 2110 01c6 16        		.byte	0x16
 2111 01c7 00        		.byte	0x0
 2112 01c8 05        		.uleb128 0x5
 2113 01c9 02        		.byte	0x2
GAS LISTING /tmp/ccDrcwOJ.s 			page 39


 2114 01ca 0000 0000 		.long	.LM33
 2115 01ce 1F        		.byte	0x1f
 2116 01cf 00        		.byte	0x0
 2117 01d0 05        		.uleb128 0x5
 2118 01d1 02        		.byte	0x2
 2119 01d2 0000 0000 		.long	.LM34
 2120 01d6 15        		.byte	0x15
 2121 01d7 00        		.byte	0x0
 2122 01d8 05        		.uleb128 0x5
 2123 01d9 02        		.byte	0x2
 2124 01da 0000 0000 		.long	.LM35
 2125 01de 17        		.byte	0x17
 2126 01df 00        		.byte	0x0
 2127 01e0 05        		.uleb128 0x5
 2128 01e1 02        		.byte	0x2
 2129 01e2 0000 0000 		.long	.LM36
 2130 01e6 23        		.byte	0x23
 2131 01e7 00        		.byte	0x0
 2132 01e8 05        		.uleb128 0x5
 2133 01e9 02        		.byte	0x2
 2134 01ea 0000 0000 		.long	.LM37
 2135 01ee 15        		.byte	0x15
 2136 01ef 00        		.byte	0x0
 2137 01f0 05        		.uleb128 0x5
 2138 01f1 02        		.byte	0x2
 2139 01f2 0000 0000 		.long	.LM38
 2140 01f6 16        		.byte	0x16
 2141 01f7 00        		.byte	0x0
 2142 01f8 05        		.uleb128 0x5
 2143 01f9 02        		.byte	0x2
 2144 01fa 0000 0000 		.long	.LM39
 2145 01fe 16        		.byte	0x16
 2146 01ff 00        		.byte	0x0
 2147 0200 05        		.uleb128 0x5
 2148 0201 02        		.byte	0x2
 2149 0202 0000 0000 		.long	.LM40
 2150 0206 10        		.byte	0x10
 2151 0207 00        		.byte	0x0
 2152 0208 05        		.uleb128 0x5
 2153 0209 02        		.byte	0x2
 2154 020a 0000 0000 		.long	.LM41
 2155 020e 19        		.byte	0x19
 2156 020f 00        		.byte	0x0
 2157 0210 05        		.uleb128 0x5
 2158 0211 02        		.byte	0x2
 2159 0212 0000 0000 		.long	.LM42
 2160 0216 12        		.byte	0x12
 2161 0217 00        		.byte	0x0
 2162 0218 05        		.uleb128 0x5
 2163 0219 02        		.byte	0x2
 2164 021a 0000 0000 		.long	.LM43
 2165 021e 24        		.byte	0x24
 2166 021f 00        		.byte	0x0
 2167 0220 05        		.uleb128 0x5
 2168 0221 02        		.byte	0x2
 2169 0222 0000 0000 		.long	.LM44
 2170 0226 03        		.byte	0x3
GAS LISTING /tmp/ccDrcwOJ.s 			page 40


 2171 0227 D37E      		.sleb128 -173
 2172 0229 01        		.byte	0x1
 2173 022a 00        		.byte	0x0
 2174 022b 05        		.uleb128 0x5
 2175 022c 02        		.byte	0x2
 2176 022d 0000 0000 		.long	.LM45
 2177 0231 17        		.byte	0x17
 2178 0232 00        		.byte	0x0
 2179 0233 05        		.uleb128 0x5
 2180 0234 02        		.byte	0x2
 2181 0235 0000 0000 		.long	.LM46
 2182 0239 16        		.byte	0x16
 2183 023a 00        		.byte	0x0
 2184 023b 05        		.uleb128 0x5
 2185 023c 02        		.byte	0x2
 2186 023d 0000 0000 		.long	.LM47
 2187 0241 1E        		.byte	0x1e
 2188 0242 00        		.byte	0x0
 2189 0243 05        		.uleb128 0x5
 2190 0244 02        		.byte	0x2
 2191 0245 0000 0000 		.long	.LM48
 2192 0249 B4        		.byte	0xb4
 2193 024a 00        		.byte	0x0
 2194 024b 05        		.uleb128 0x5
 2195 024c 02        		.byte	0x2
 2196 024d 0000 0000 		.long	.LM49
 2197 0251 1E        		.byte	0x1e
 2198 0252 00        		.byte	0x0
 2199 0253 05        		.uleb128 0x5
 2200 0254 02        		.byte	0x2
 2201 0255 0000 0000 		.long	.LM50
 2202 0259 03        		.byte	0x3
 2203 025a C77E      		.sleb128 -185
 2204 025c 01        		.byte	0x1
 2205 025d 00        		.byte	0x0
 2206 025e 05        		.uleb128 0x5
 2207 025f 02        		.byte	0x2
 2208 0260 0000 0000 		.long	.LM51
 2209 0264 17        		.byte	0x17
 2210 0265 00        		.byte	0x0
 2211 0266 05        		.uleb128 0x5
 2212 0267 02        		.byte	0x2
 2213 0268 0000 0000 		.long	.LM52
 2214 026c 16        		.byte	0x16
 2215 026d 00        		.byte	0x0
 2216 026e 05        		.uleb128 0x5
 2217 026f 02        		.byte	0x2
 2218 0270 0000 0000 		.long	.LM53
 2219 0274 1E        		.byte	0x1e
 2220 0275 00        		.byte	0x0
 2221 0276 05        		.uleb128 0x5
 2222 0277 02        		.byte	0x2
 2223 0278 0000 0000 		.long	.LM54
 2224 027c C0        		.byte	0xc0
 2225 027d 00        		.byte	0x0
 2226 027e 05        		.uleb128 0x5
 2227 027f 02        		.byte	0x2
GAS LISTING /tmp/ccDrcwOJ.s 			page 41


 2228 0280 0000 0000 		.long	.Letext0
 2229 0284 00        		.byte	0x0
 2230 0285 01        		.uleb128 0x1
 2231 0286 01        		.byte	0x1
 2232               	.LELT0:
 2233 0287 1600 0000 		.section	.debug_str,"MS",@progbits,1
 2233      0200 1000 
 2233      0000 0101 
 2233      FB0E 0A00 
 2233      0101 0101 
 2234               	.LASF33:
 2235 0000 434C 4B5F 		.string	"CLK_PSADIV_t"
 2235      5053 4144 
 2235      4956 5F74 
 2235      00
 2236               	.LASF96:
 2237 000d 5053 4243 		.string	"PSBCfactor"
 2237      6661 6374 
 2237      6F72 00
 2238               	.LASF106:
 2239 0018 474E 5520 		.string	"GNU C 4.3.4"
 2239      4320 342E 
 2239      332E 3400 
 2240               	.LASF70:
 2241 0024 4F53 435F 		.string	"OSC_PLLSRC_XOSC_gc"
 2241      504C 4C53 
 2241      5243 5F58 
 2241      4F53 435F 
 2241      6763 00
 2242               	.LASF8:
 2243 0037 4343 505F 		.string	"CCP_IOREG_gc"
 2243      494F 5245 
 2243      475F 6763 
 2243      00
 2244               	.LASF74:
 2245 0044 4341 4C41 		.string	"CALA"
 2245      00
 2246               	.LASF75:
 2247 0049 4341 4C42 		.string	"CALB"
 2247      00
 2248               	.LASF78:
 2249 004e 434F 4D50 		.string	"COMP2"
 2249      3200 
 2250               	.LASF94:
 2251 0054 434C 4B53 		.string	"CLKSYS_Prescalers_Config"
 2251      5953 5F50 
 2251      7265 7363 
 2251      616C 6572 
 2251      735F 436F 
 2252               	.LASF25:
 2253 006d 434C 4B5F 		.string	"CLK_PSADIV_4_gc"
 2253      5053 4144 
 2253      4956 5F34 
 2253      5F67 6300 
 2254               	.LASF19:
 2255 007d 434C 4B5F 		.string	"CLK_SCLKSEL_PLL_gc"
 2255      5343 4C4B 
GAS LISTING /tmp/ccDrcwOJ.s 			page 42


 2255      5345 4C5F 
 2255      504C 4C5F 
 2255      6763 00
 2256               	.LASF26:
 2257 0090 434C 4B5F 		.string	"CLK_PSADIV_8_gc"
 2257      5053 4144 
 2257      4956 5F38 
 2257      5F67 6300 
 2258               	.LASF73:
 2259 00a0 7265 7365 		.string	"reserved_0x01"
 2259      7276 6564 
 2259      5F30 7830 
 2259      3100 
 2260               	.LASF79:
 2261 00ae 7265 7365 		.string	"reserved_0x07"
 2261      7276 6564 
 2261      5F30 7830 
 2261      3700 
 2262               	.LASF110:
 2263 00bc 434C 4B53 		.string	"CLKSYS_Configuration_Lock"
 2263      5953 5F43 
 2263      6F6E 6669 
 2263      6775 7261 
 2263      7469 6F6E 
 2264               	.LASF37:
 2265 00d6 434C 4B5F 		.string	"CLK_PSBCDIV_4_1_gc"
 2265      5053 4243 
 2265      4449 565F 
 2265      345F 315F 
 2265      6763 00
 2266               	.LASF18:
 2267 00e9 434C 4B5F 		.string	"CLK_SCLKSEL_XOSC_gc"
 2267      5343 4C4B 
 2267      5345 4C5F 
 2267      584F 5343 
 2267      5F67 6300 
 2268               	.LASF108:
 2269 00fd 2F68 6F6D 		.string	"/home/tomlinsj/falconSvn/44x201007/firmware/mcu/chb_motor_test"
 2269      652F 746F 
 2269      6D6C 696E 
 2269      736A 2F66 
 2269      616C 636F 
 2270               	.LASF81:
 2271 013c 7661 6C75 		.string	"value"
 2271      6500 
 2272               	.LASF50:
 2273 0142 584F 5343 		.string	"XOSCFAIL"
 2273      4641 494C 
 2273      00
 2274               	.LASF101:
 2275 014b 434C 4B53 		.string	"CLKSYS_RTC_ClockSource_Enable"
 2275      5953 5F52 
 2275      5443 5F43 
 2275      6C6F 636B 
 2275      536F 7572 
 2276               	.LASF107:
 2277 0169 636C 6B73 		.string	"clksys_driver.c"
GAS LISTING /tmp/ccDrcwOJ.s 			page 43


 2277      7973 5F64 
 2277      7269 7665 
 2277      722E 6300 
 2278               	.LASF20:
 2279 0179 7569 6E74 		.string	"uint8_t"
 2279      385F 7400 
 2280               	.LASF62:
 2281 0181 4F53 435F 		.string	"OSC_XOSCSEL_32KHz_gc"
 2281      584F 5343 
 2281      5345 4C5F 
 2281      3332 4B48 
 2281      7A5F 6763 
 2282               	.LASF34:
 2283 0196 434C 4B5F 		.string	"CLK_PSBCDIV_enum"
 2283      5053 4243 
 2283      4449 565F 
 2283      656E 756D 
 2283      00
 2284               	.LASF17:
 2285 01a7 434C 4B5F 		.string	"CLK_SCLKSEL_RC32K_gc"
 2285      5343 4C4B 
 2285      5345 4C5F 
 2285      5243 3332 
 2285      4B5F 6763 
 2286               	.LASF109:
 2287 01bc 4343 5057 		.string	"CCPWrite"
 2287      7269 7465 
 2287      00
 2288               	.LASF21:
 2289 01c5 434C 4B5F 		.string	"CLK_SCLKSEL_t"
 2289      5343 4C4B 
 2289      5345 4C5F 
 2289      7400 
 2290               	.LASF39:
 2291 01d3 434C 4B5F 		.string	"CLK_PSBCDIV_t"
 2291      5053 4243 
 2291      4449 565F 
 2291      7400 
 2292               	.LASF44:
 2293 01e1 434C 4B5F 		.string	"CLK_RTCSRC_TOSC32_gc"
 2293      5254 4353 
 2293      5243 5F54 
 2293      4F53 4333 
 2293      325F 6763 
 2294               	.LASF57:
 2295 01f6 4F53 435F 		.string	"OSC_FRQRANGE_9TO12_gc"
 2295      4652 5152 
 2295      414E 4745 
 2295      5F39 544F 
 2295      3132 5F67 
 2296               	.LASF100:
 2297 020c 636C 6B43 		.string	"clkCtrl"
 2297      7472 6C00 
 2298               	.LASF5:
 2299 0214 6C6F 6E67 		.string	"long long int"
 2299      206C 6F6E 
 2299      6720 696E 
GAS LISTING /tmp/ccDrcwOJ.s 			page 44


 2299      7400 
 2300               	.LASF6:
 2301 0222 6C6F 6E67 		.string	"long long unsigned int"
 2301      206C 6F6E 
 2301      6720 756E 
 2301      7369 676E 
 2301      6564 2069 
 2302               	.LASF32:
 2303 0239 434C 4B5F 		.string	"CLK_PSADIV_512_gc"
 2303      5053 4144 
 2303      4956 5F35 
 2303      3132 5F67 
 2303      6300 
 2304               	.LASF99:
 2305 024b 434C 4B53 		.string	"CLKSYS_Main_ClockSource_Select"
 2305      5953 5F4D 
 2305      6169 6E5F 
 2305      436C 6F63 
 2305      6B53 6F75 
 2306               	.LASF48:
 2307 026a 5354 4154 		.string	"STATUS"
 2307      5553 00
 2308               	.LASF86:
 2309 0271 786F 7363 		.string	"xoscModeSelection"
 2309      4D6F 6465 
 2309      5365 6C65 
 2309      6374 696F 
 2309      6E00 
 2310               	.LASF72:
 2311 0283 4446 4C4C 		.string	"DFLL_struct"
 2311      5F73 7472 
 2311      7563 7400 
 2312               	.LASF82:
 2313 028f 7361 7665 		.string	"saved_sreg"
 2313      645F 7372 
 2313      6567 00
 2314               	.LASF28:
 2315 029a 434C 4B5F 		.string	"CLK_PSADIV_32_gc"
 2315      5053 4144 
 2315      4956 5F33 
 2315      325F 6763 
 2315      00
 2316               	.LASF7:
 2317 02ab 4343 505F 		.string	"CCP_SPM_gc"
 2317      5350 4D5F 
 2317      6763 00
 2318               	.LASF68:
 2319 02b6 4F53 435F 		.string	"OSC_PLLSRC_RC2M_gc"
 2319      504C 4C53 
 2319      5243 5F52 
 2319      4332 4D5F 
 2319      6763 00
 2320               	.LASF27:
 2321 02c9 434C 4B5F 		.string	"CLK_PSADIV_16_gc"
 2321      5053 4144 
 2321      4956 5F31 
 2321      365F 6763 
GAS LISTING /tmp/ccDrcwOJ.s 			page 45


 2321      00
 2322               	.LASF59:
 2323 02da 4F53 435F 		.string	"OSC_FRQRANGE_t"
 2323      4652 5152 
 2323      414E 4745 
 2323      5F74 00
 2324               	.LASF64:
 2325 02e9 4F53 435F 		.string	"OSC_XOSCSEL_XTAL_1KCLK_gc"
 2325      584F 5343 
 2325      5345 4C5F 
 2325      5854 414C 
 2325      5F31 4B43 
 2326               	.LASF11:
 2327 0303 4C4F 434B 		.string	"LOCK"
 2327      00
 2328               	.LASF95:
 2329 0308 5053 4166 		.string	"PSAfactor"
 2329      6163 746F 
 2329      7200 
 2330               	.LASF40:
 2331 0312 434C 4B5F 		.string	"CLK_RTCSRC_enum"
 2331      5254 4353 
 2331      5243 5F65 
 2331      6E75 6D00 
 2332               	.LASF54:
 2333 0322 4F53 435F 		.string	"OSC_FRQRANGE_enum"
 2333      4652 5152 
 2333      414E 4745 
 2333      5F65 6E75 
 2333      6D00 
 2334               	.LASF42:
 2335 0334 434C 4B5F 		.string	"CLK_RTCSRC_TOSC_gc"
 2335      5254 4353 
 2335      5243 5F54 
 2335      4F53 435F 
 2335      6763 00
 2336               	.LASF38:
 2337 0347 434C 4B5F 		.string	"CLK_PSBCDIV_2_2_gc"
 2337      5053 4243 
 2337      4449 565F 
 2337      325F 325F 
 2337      6763 00
 2338               	.LASF91:
 2339 035a 6661 6374 		.string	"factor"
 2339      6F72 00
 2340               	.LASF60:
 2341 0361 4F53 435F 		.string	"OSC_XOSCSEL_enum"
 2341      584F 5343 
 2341      5345 4C5F 
 2341      656E 756D 
 2341      00
 2342               	.LASF63:
 2343 0372 4F53 435F 		.string	"OSC_XOSCSEL_XTAL_256CLK_gc"
 2343      584F 5343 
 2343      5345 4C5F 
 2343      5854 414C 
 2343      5F32 3536 
GAS LISTING /tmp/ccDrcwOJ.s 			page 46


 2344               	.LASF46:
 2345 038d 434C 4B5F 		.string	"CLK_struct"
 2345      7374 7275 
 2345      6374 00
 2346               	.LASF23:
 2347 0398 434C 4B5F 		.string	"CLK_PSADIV_1_gc"
 2347      5053 4144 
 2347      4956 5F31 
 2347      5F67 6300 
 2348               	.LASF1:
 2349 03a8 756E 7369 		.string	"unsigned char"
 2349      676E 6564 
 2349      2063 6861 
 2349      7200 
 2350               	.LASF89:
 2351 03b6 434C 4B53 		.string	"CLKSYS_PLL_Config"
 2351      5953 5F50 
 2351      4C4C 5F43 
 2351      6F6E 6669 
 2351      6700 
 2352               	.LASF9:
 2353 03c8 4354 524C 		.string	"CTRL"
 2353      00
 2354               	.LASF45:
 2355 03cd 434C 4B5F 		.string	"CLK_RTCSRC_t"
 2355      5254 4353 
 2355      5243 5F74 
 2355      00
 2356               	.LASF0:
 2357 03da 7369 676E 		.string	"signed char"
 2357      6564 2063 
 2357      6861 7200 
 2358               	.LASF80:
 2359 03e6 6164 6472 		.string	"address"
 2359      6573 7300 
 2360               	.LASF88:
 2361 03ee 434C 4B53 		.string	"CLKSYS_XOSC_Config"
 2361      5953 5F58 
 2361      4F53 435F 
 2361      436F 6E66 
 2361      6967 00
 2362               	.LASF41:
 2363 0401 434C 4B5F 		.string	"CLK_RTCSRC_ULP_gc"
 2363      5254 4353 
 2363      5243 5F55 
 2363      4C50 5F67 
 2363      6300 
 2364               	.LASF49:
 2365 0413 584F 5343 		.string	"XOSCCTRL"
 2365      4354 524C 
 2365      00
 2366               	.LASF84:
 2367 041c 6672 6571 		.string	"freqRange"
 2367      5261 6E67 
 2367      6500 
 2368               	.LASF69:
 2369 0426 4F53 435F 		.string	"OSC_PLLSRC_RC32M_gc"
GAS LISTING /tmp/ccDrcwOJ.s 			page 47


 2369      504C 4C53 
 2369      5243 5F52 
 2369      4333 324D 
 2369      5F67 6300 
 2370               	.LASF24:
 2371 043a 434C 4B5F 		.string	"CLK_PSADIV_2_gc"
 2371      5053 4144 
 2371      4956 5F32 
 2371      5F67 6300 
 2372               	.LASF66:
 2373 044a 4F53 435F 		.string	"OSC_XOSCSEL_t"
 2373      584F 5343 
 2373      5345 4C5F 
 2373      7400 
 2374               	.LASF97:
 2375 0458 5053 636F 		.string	"PSconfig"
 2375      6E66 6967 
 2375      00
 2376               	.LASF98:
 2377 0461 434C 4B53 		.string	"CLKSYS_Disable"
 2377      5953 5F44 
 2377      6973 6162 
 2377      6C65 00
 2378               	.LASF58:
 2379 0470 4F53 435F 		.string	"OSC_FRQRANGE_12TO16_gc"
 2379      4652 5152 
 2379      414E 4745 
 2379      5F31 3254 
 2379      4F31 365F 
 2380               	.LASF93:
 2381 0487 636C 6B45 		.string	"clkEnabled"
 2381      6E61 626C 
 2381      6564 00
 2382               	.LASF29:
 2383 0492 434C 4B5F 		.string	"CLK_PSADIV_64_gc"
 2383      5053 4144 
 2383      4956 5F36 
 2383      345F 6763 
 2383      00
 2384               	.LASF61:
 2385 04a3 4F53 435F 		.string	"OSC_XOSCSEL_EXTCLK_gc"
 2385      584F 5343 
 2385      5345 4C5F 
 2385      4558 5443 
 2385      4C4B 5F67 
 2386               	.LASF3:
 2387 04b9 6C6F 6E67 		.string	"long int"
 2387      2069 6E74 
 2387      00
 2388               	.LASF76:
 2389 04c2 434F 4D50 		.string	"COMP0"
 2389      3000 
 2390               	.LASF77:
 2391 04c8 434F 4D50 		.string	"COMP1"
 2391      3100 
 2392               	.LASF103:
 2393 04ce 636C 6B53 		.string	"clkSource"
GAS LISTING /tmp/ccDrcwOJ.s 			page 48


 2393      6F75 7263 
 2393      6500 
 2394               	.LASF65:
 2395 04d8 4F53 435F 		.string	"OSC_XOSCSEL_XTAL_16KCLK_gc"
 2395      584F 5343 
 2395      5345 4C5F 
 2395      5854 414C 
 2395      5F31 364B 
 2396               	.LASF87:
 2397 04f3 5F42 6F6F 		.string	"_Bool"
 2397      6C00 
 2398               	.LASF35:
 2399 04f9 434C 4B5F 		.string	"CLK_PSBCDIV_1_1_gc"
 2399      5053 4243 
 2399      4449 565F 
 2399      315F 315F 
 2399      6763 00
 2400               	.LASF10:
 2401 050c 5053 4354 		.string	"PSCTRL"
 2401      524C 00
 2402               	.LASF51:
 2403 0513 5243 3332 		.string	"RC32KCAL"
 2403      4B43 414C 
 2403      00
 2404               	.LASF4:
 2405 051c 6C6F 6E67 		.string	"long unsigned int"
 2405      2075 6E73 
 2405      6967 6E65 
 2405      6420 696E 
 2405      7400 
 2406               	.LASF12:
 2407 052e 5254 4343 		.string	"RTCCTRL"
 2407      5452 4C00 
 2408               	.LASF105:
 2409 0536 434C 4B53 		.string	"CLKSYS_XOSC_FailureDetection_Enable"
 2409      5953 5F58 
 2409      4F53 435F 
 2409      4661 696C 
 2409      7572 6544 
 2410               	.LASF30:
 2411 055a 434C 4B5F 		.string	"CLK_PSADIV_128_gc"
 2411      5053 4144 
 2411      4956 5F31 
 2411      3238 5F67 
 2411      6300 
 2412               	.LASF16:
 2413 056c 434C 4B5F 		.string	"CLK_SCLKSEL_RC32M_gc"
 2413      5343 4C4B 
 2413      5345 4C5F 
 2413      5243 3332 
 2413      4D5F 6763 
 2414               	.LASF47:
 2415 0581 4F53 435F 		.string	"OSC_struct"
 2415      7374 7275 
 2415      6374 00
 2416               	.LASF31:
 2417 058c 434C 4B5F 		.string	"CLK_PSADIV_256_gc"
GAS LISTING /tmp/ccDrcwOJ.s 			page 49


 2417      5053 4144 
 2417      4956 5F32 
 2417      3536 5F67 
 2417      6300 
 2418               	.LASF104:
 2419 059e 6578 7452 		.string	"extReference"
 2419      6566 6572 
 2419      656E 6365 
 2419      00
 2420               	.LASF22:
 2421 05ab 434C 4B5F 		.string	"CLK_PSADIV_enum"
 2421      5053 4144 
 2421      4956 5F65 
 2421      6E75 6D00 
 2422               	.LASF92:
 2423 05bb 6F73 6353 		.string	"oscSel"
 2423      656C 00
 2424               	.LASF55:
 2425 05c2 4F53 435F 		.string	"OSC_FRQRANGE_04TO2_gc"
 2425      4652 5152 
 2425      414E 4745 
 2425      5F30 3454 
 2425      4F32 5F67 
 2426               	.LASF90:
 2427 05d8 636C 6F63 		.string	"clockSource"
 2427      6B53 6F75 
 2427      7263 6500 
 2428               	.LASF15:
 2429 05e4 434C 4B5F 		.string	"CLK_SCLKSEL_RC2M_gc"
 2429      5343 4C4B 
 2429      5345 4C5F 
 2429      5243 324D 
 2429      5F67 6300 
 2430               	.LASF71:
 2431 05f8 4F53 435F 		.string	"OSC_PLLSRC_t"
 2431      504C 4C53 
 2431      5243 5F74 
 2431      00
 2432               	.LASF52:
 2433 0605 504C 4C43 		.string	"PLLCTRL"
 2433      5452 4C00 
 2434               	.LASF14:
 2435 060d 434C 4B5F 		.string	"CLK_SCLKSEL_enum"
 2435      5343 4C4B 
 2435      5345 4C5F 
 2435      656E 756D 
 2435      00
 2436               	.LASF83:
 2437 061e 746D 7041 		.string	"tmpAddr"
 2437      6464 7200 
 2438               	.LASF13:
 2439 0626 4343 505F 		.string	"CCP_enum"
 2439      656E 756D 
 2439      00
 2440               	.LASF43:
 2441 062f 434C 4B5F 		.string	"CLK_RTCSRC_RCOSC_gc"
 2441      5254 4353 
GAS LISTING /tmp/ccDrcwOJ.s 			page 50


 2441      5243 5F52 
 2441      434F 5343 
 2441      5F67 6300 
 2442               	.LASF2:
 2443 0643 756E 7369 		.string	"unsigned int"
 2443      676E 6564 
 2443      2069 6E74 
 2443      00
 2444               	.LASF56:
 2445 0650 4F53 435F 		.string	"OSC_FRQRANGE_2TO9_gc"
 2445      4652 5152 
 2445      414E 4745 
 2445      5F32 544F 
 2445      395F 6763 
 2446               	.LASF36:
 2447 0665 434C 4B5F 		.string	"CLK_PSBCDIV_1_2_gc"
 2447      5053 4243 
 2447      4449 565F 
 2447      315F 325F 
 2447      6763 00
 2448               	.LASF102:
 2449 0678 434C 4B53 		.string	"CLKSYS_AutoCalibration_Enable"
 2449      5953 5F41 
 2449      7574 6F43 
 2449      616C 6962 
 2449      7261 7469 
 2450               	.LASF85:
 2451 0696 6C6F 7750 		.string	"lowPower32kHz"
 2451      6F77 6572 
 2451      3332 6B48 
 2451      7A00 
 2452               	.LASF67:
 2453 06a4 4F53 435F 		.string	"OSC_PLLSRC_enum"
 2453      504C 4C53 
 2453      5243 5F65 
 2453      6E75 6D00 
 2454               	.LASF53:
 2455 06b4 4446 4C4C 		.string	"DFLLCTRL"
 2455      4354 524C 
 2455      00
GAS LISTING /tmp/ccDrcwOJ.s 			page 51


DEFINED SYMBOLS
                            *ABS*:00000000 clksys_driver.c
     /tmp/ccDrcwOJ.s:2      *ABS*:0000003f __SREG__
     /tmp/ccDrcwOJ.s:3      *ABS*:0000003e __SP_H__
     /tmp/ccDrcwOJ.s:4      *ABS*:0000003d __SP_L__
     /tmp/ccDrcwOJ.s:5      *ABS*:00000034 __CCP__
     /tmp/ccDrcwOJ.s:6      *ABS*:00000000 __tmp_reg__
     /tmp/ccDrcwOJ.s:7      *ABS*:00000001 __zero_reg__
     /tmp/ccDrcwOJ.s:18     .text:00000000 CCPWrite
     /tmp/ccDrcwOJ.s:66     .text:0000002a CLKSYS_XOSC_Config
     /tmp/ccDrcwOJ.s:100    .text:0000004a CLKSYS_PLL_Config
     /tmp/ccDrcwOJ.s:120    .text:00000056 CLKSYS_Disable
     /tmp/ccDrcwOJ.s:145    .text:0000006a CLKSYS_Prescalers_Config
     /tmp/ccDrcwOJ.s:201    .text:0000009a CLKSYS_Main_ClockSource_Select
     /tmp/ccDrcwOJ.s:262    .text:000000d4 CLKSYS_RTC_ClockSource_Enable
     /tmp/ccDrcwOJ.s:283    .text:000000e4 CLKSYS_AutoCalibration_Enable
     /tmp/ccDrcwOJ.s:335    .text:00000124 CLKSYS_XOSC_FailureDetection_Enable
     /tmp/ccDrcwOJ.s:388    .text:00000154 CLKSYS_Configuration_Lock

NO UNDEFINED SYMBOLS
