GAS LISTING /tmp/cc1O4Nc2.s 			page 1


   1               		.file	"main.c"
   2               	__SREG__ = 0x3f
   3               	__SP_H__ = 0x3e
   4               	__SP_L__ = 0x3d
   5               	__CCP__  = 0x34
   6               	__tmp_reg__ = 0
   7               	__zero_reg__ = 1
   8               		.section	.debug_abbrev,"",@progbits
   9               	.Ldebug_abbrev0:
  10               		.section	.debug_info,"",@progbits
  11               	.Ldebug_info0:
  12               		.section	.debug_line,"",@progbits
  13               	.Ldebug_line0:
  14               		.text
  15               	.Ltext0:
  16               	.global	__vector_110
  17               		.type	__vector_110, @function
  18               	__vector_110:
  19               	.LFB10:
  20               	.LM1:
  21 0000 1F92      		push __zero_reg__
  22 0002 0F92      		push r0
  23 0004 0FB6      		in r0,__SREG__
  24 0006 0F92      		push r0
  25 0008 0BB6      		in r0,59-0
  26 000a 0F92      		push r0
  27 000c 1124      		clr __zero_reg__
  28 000e 8F93      		push r24
  29 0010 EF93      		push r30
  30 0012 FF93      		push r31
  31               	/* prologue: Signal */
  32               	/* frame size = 0 */
  33               	.LM2:
  34 0014 80B1      		in r24,0-0
  35 0016 806C      		ori r24,lo8(-64)
  36 0018 E0E8      		ldi r30,lo8(1664)
  37 001a F6E0      		ldi r31,hi8(1664)
  38 001c 8683      		std Z+6,r24
  39               	.LM3:
  40 001e 83B1      		in r24,3-0
  41 0020 8F73      		andi r24,lo8(63)
  42 0022 8583      		std Z+5,r24
  43               	/* epilogue start */
  44               	.LM4:
  45 0024 FF91      		pop r31
  46 0026 EF91      		pop r30
  47 0028 8F91      		pop r24
  48 002a 0F90      		pop r0
  49 002c 0BBE      		out 59-0,r0
  50 002e 0F90      		pop r0
  51 0030 0FBE      		out __SREG__,r0
  52 0032 0F90      		pop r0
  53 0034 1F90      		pop __zero_reg__
  54 0036 1895      		reti
  55               	.LFE10:
  56               		.size	__vector_110, .-__vector_110
  57               	.global	__vector_111
GAS LISTING /tmp/cc1O4Nc2.s 			page 2


  58               		.type	__vector_111, @function
  59               	__vector_111:
  60               	.LFB11:
  61               	.LM5:
  62 0038 1F92      		push __zero_reg__
  63 003a 0F92      		push r0
  64 003c 0FB6      		in r0,__SREG__
  65 003e 0F92      		push r0
  66 0040 0BB6      		in r0,59-0
  67 0042 0F92      		push r0
  68 0044 1124      		clr __zero_reg__
  69 0046 8F93      		push r24
  70 0048 EF93      		push r30
  71 004a FF93      		push r31
  72               	/* prologue: Signal */
  73               	/* frame size = 0 */
  74               	.LM6:
  75 004c 80B1      		in r24,0-0
  76 004e 8F63      		ori r24,lo8(63)
  77 0050 E0E8      		ldi r30,lo8(1664)
  78 0052 F6E0      		ldi r31,hi8(1664)
  79 0054 8683      		std Z+6,r24
  80               	.LM7:
  81 0056 83B1      		in r24,3-0
  82 0058 807C      		andi r24,lo8(-64)
  83 005a 8583      		std Z+5,r24
  84               	.LM8:
  85 005c 81B1      		in r24,1-0
  86 005e 806F      		ori r24,lo8(-16)
  87 0060 E0EA      		ldi r30,lo8(1696)
  88 0062 F6E0      		ldi r31,hi8(1696)
  89 0064 8683      		std Z+6,r24
  90               	.LM9:
  91 0066 84B1      		in r24,4-0
  92 0068 8F70      		andi r24,lo8(15)
  93 006a 8583      		std Z+5,r24
  94               	/* epilogue start */
  95               	.LM10:
  96 006c FF91      		pop r31
  97 006e EF91      		pop r30
  98 0070 8F91      		pop r24
  99 0072 0F90      		pop r0
 100 0074 0BBE      		out 59-0,r0
 101 0076 0F90      		pop r0
 102 0078 0FBE      		out __SREG__,r0
 103 007a 0F90      		pop r0
 104 007c 1F90      		pop __zero_reg__
 105 007e 1895      		reti
 106               	.LFE11:
 107               		.size	__vector_111, .-__vector_111
 108               	.global	__vector_112
 109               		.type	__vector_112, @function
 110               	__vector_112:
 111               	.LFB12:
 112               	.LM11:
 113 0080 1F92      		push __zero_reg__
 114 0082 0F92      		push r0
GAS LISTING /tmp/cc1O4Nc2.s 			page 3


 115 0084 0FB6      		in r0,__SREG__
 116 0086 0F92      		push r0
 117 0088 0BB6      		in r0,59-0
 118 008a 0F92      		push r0
 119 008c 1124      		clr __zero_reg__
 120 008e 8F93      		push r24
 121 0090 EF93      		push r30
 122 0092 FF93      		push r31
 123               	/* prologue: Signal */
 124               	/* frame size = 0 */
 125               	.LM12:
 126 0094 81B1      		in r24,1-0
 127 0096 8F60      		ori r24,lo8(15)
 128 0098 E0EA      		ldi r30,lo8(1696)
 129 009a F6E0      		ldi r31,hi8(1696)
 130 009c 8683      		std Z+6,r24
 131               	.LM13:
 132 009e 84B1      		in r24,4-0
 133 00a0 807F      		andi r24,lo8(-16)
 134 00a2 8583      		std Z+5,r24
 135               	.LM14:
 136 00a4 82B1      		in r24,2-0
 137 00a6 8C6F      		ori r24,lo8(-4)
 138 00a8 E0E6      		ldi r30,lo8(1632)
 139 00aa F6E0      		ldi r31,hi8(1632)
 140 00ac 8683      		std Z+6,r24
 141               	.LM15:
 142 00ae 85B1      		in r24,5-0
 143 00b0 8370      		andi r24,lo8(3)
 144 00b2 8583      		std Z+5,r24
 145               	/* epilogue start */
 146               	.LM16:
 147 00b4 FF91      		pop r31
 148 00b6 EF91      		pop r30
 149 00b8 8F91      		pop r24
 150 00ba 0F90      		pop r0
 151 00bc 0BBE      		out 59-0,r0
 152 00be 0F90      		pop r0
 153 00c0 0FBE      		out __SREG__,r0
 154 00c2 0F90      		pop r0
 155 00c4 1F90      		pop __zero_reg__
 156 00c6 1895      		reti
 157               	.LFE12:
 158               		.size	__vector_112, .-__vector_112
 159               	.global	__vector_113
 160               		.type	__vector_113, @function
 161               	__vector_113:
 162               	.LFB13:
 163               	.LM17:
 164 00c8 1F92      		push __zero_reg__
 165 00ca 0F92      		push r0
 166 00cc 0FB6      		in r0,__SREG__
 167 00ce 0F92      		push r0
 168 00d0 0BB6      		in r0,59-0
 169 00d2 0F92      		push r0
 170 00d4 1124      		clr __zero_reg__
 171 00d6 8F93      		push r24
GAS LISTING /tmp/cc1O4Nc2.s 			page 4


 172 00d8 EF93      		push r30
 173 00da FF93      		push r31
 174               	/* prologue: Signal */
 175               	/* frame size = 0 */
 176               	.LM18:
 177 00dc 82B1      		in r24,2-0
 178 00de 8360      		ori r24,lo8(3)
 179 00e0 E0E6      		ldi r30,lo8(1632)
 180 00e2 F6E0      		ldi r31,hi8(1632)
 181 00e4 8683      		std Z+6,r24
 182               	.LM19:
 183 00e6 85B1      		in r24,5-0
 184 00e8 8C7F      		andi r24,lo8(-4)
 185 00ea 8583      		std Z+5,r24
 186               	/* epilogue start */
 187               	.LM20:
 188 00ec FF91      		pop r31
 189 00ee EF91      		pop r30
 190 00f0 8F91      		pop r24
 191 00f2 0F90      		pop r0
 192 00f4 0BBE      		out 59-0,r0
 193 00f6 0F90      		pop r0
 194 00f8 0FBE      		out __SREG__,r0
 195 00fa 0F90      		pop r0
 196 00fc 1F90      		pop __zero_reg__
 197 00fe 1895      		reti
 198               	.LFE13:
 199               		.size	__vector_113, .-__vector_113
 200               	.global	__vector_108
 201               		.type	__vector_108, @function
 202               	__vector_108:
 203               	.LFB14:
 204               	.LM21:
 205 0100 1F92      		push __zero_reg__
 206 0102 0F92      		push r0
 207 0104 0FB6      		in r0,__SREG__
 208 0106 0F92      		push r0
 209 0108 0BB6      		in r0,59-0
 210 010a 0F92      		push r0
 211 010c 1124      		clr __zero_reg__
 212 010e 8F93      		push r24
 213 0110 EF93      		push r30
 214 0112 FF93      		push r31
 215               	/* prologue: Signal */
 216               	/* frame size = 0 */
 217               	.LM22:
 218 0114 83B1      		in r24,3-0
 219 0116 E0E8      		ldi r30,lo8(1664)
 220 0118 F6E0      		ldi r31,hi8(1664)
 221 011a 8683      		std Z+6,r24
 222               	.LM23:
 223 011c 80B1      		in r24,0-0
 224 011e 8583      		std Z+5,r24
 225               	.LM24:
 226 0120 84B1      		in r24,4-0
 227 0122 E0EA      		ldi r30,lo8(1696)
 228 0124 F6E0      		ldi r31,hi8(1696)
GAS LISTING /tmp/cc1O4Nc2.s 			page 5


 229 0126 8683      		std Z+6,r24
 230               	.LM25:
 231 0128 81B1      		in r24,1-0
 232 012a 8583      		std Z+5,r24
 233               	.LM26:
 234 012c 85B1      		in r24,5-0
 235 012e E0E6      		ldi r30,lo8(1632)
 236 0130 F6E0      		ldi r31,hi8(1632)
 237 0132 8683      		std Z+6,r24
 238               	.LM27:
 239 0134 82B1      		in r24,2-0
 240 0136 8583      		std Z+5,r24
 241               	/* epilogue start */
 242               	.LM28:
 243 0138 FF91      		pop r31
 244 013a EF91      		pop r30
 245 013c 8F91      		pop r24
 246 013e 0F90      		pop r0
 247 0140 0BBE      		out 59-0,r0
 248 0142 0F90      		pop r0
 249 0144 0FBE      		out __SREG__,r0
 250 0146 0F90      		pop r0
 251 0148 1F90      		pop __zero_reg__
 252 014a 1895      		reti
 253               	.LFE14:
 254               		.size	__vector_108, .-__vector_108
 255               	.global	__vector_49
 256               		.type	__vector_49, @function
 257               	__vector_49:
 258               	.LFB16:
 259               	.LM29:
 260 014c 1F92      		push __zero_reg__
 261 014e 0F92      		push r0
 262 0150 0FB6      		in r0,__SREG__
 263 0152 0F92      		push r0
 264 0154 1124      		clr __zero_reg__
 265               	/* prologue: Signal */
 266               	/* frame size = 0 */
 267               	/* epilogue start */
 268               	.LM30:
 269 0156 0F90      		pop r0
 270 0158 0FBE      		out __SREG__,r0
 271 015a 0F90      		pop r0
 272 015c 1F90      		pop __zero_reg__
 273 015e 1895      		reti
 274               	.LFE16:
 275               		.size	__vector_49, .-__vector_49
 276               	.global	__vector_50
 277               		.type	__vector_50, @function
 278               	__vector_50:
 279               	.LFB17:
 280               	.LM31:
 281 0160 1F92      		push __zero_reg__
 282 0162 0F92      		push r0
 283 0164 0FB6      		in r0,__SREG__
 284 0166 0F92      		push r0
 285 0168 0BB6      		in r0,59-0
GAS LISTING /tmp/cc1O4Nc2.s 			page 6


 286 016a 0F92      		push r0
 287 016c 1124      		clr __zero_reg__
 288 016e 8F93      		push r24
 289 0170 EF93      		push r30
 290 0172 FF93      		push r31
 291               	/* prologue: Signal */
 292               	/* frame size = 0 */
 293               	.LM32:
 294 0174 86B1      		in r24,6-0
 295 0176 8823      		tst r24
 296 0178 01F0      		breq .L15
 297               	.LM33:
 298 017a E091 0000 		lds r30,motor2State
 299 017e F0E0      		ldi r31,lo8(0)
 300 0180 E050      		subi r30,lo8(-(motor2StateSenseIndex))
 301 0182 F040      		sbci r31,hi8(-(motor2StateSenseIndex))
 302 0184 8081      		ld r24,Z
 303 0186 880F      		lsl r24
 304 0188 880F      		lsl r24
 305 018a 880F      		lsl r24
 306 018c E8E2      		ldi r30,lo8(552)
 307 018e F2E0      		ldi r31,hi8(552)
 308 0190 8183      		std Z+1,r24
 309               	.LM34:
 310 0192 8091 2802 		lds r24,552
 311 0196 8068      		ori r24,lo8(-128)
 312 0198 8093 2802 		sts 552,r24
 313               	.L15:
 314               	/* epilogue start */
 315               	.LM35:
 316 019c FF91      		pop r31
 317 019e EF91      		pop r30
 318 01a0 8F91      		pop r24
 319 01a2 0F90      		pop r0
 320 01a4 0BBE      		out 59-0,r0
 321 01a6 0F90      		pop r0
 322 01a8 0FBE      		out __SREG__,r0
 323 01aa 0F90      		pop r0
 324 01ac 1F90      		pop __zero_reg__
 325 01ae 1895      		reti
 326               	.LFE17:
 327               		.size	__vector_50, .-__vector_50
 328               	.global	__vector_51
 329               		.type	__vector_51, @function
 330               	__vector_51:
 331               	.LFB18:
 332               	.LM36:
 333 01b0 1F92      		push __zero_reg__
 334 01b2 0F92      		push r0
 335 01b4 0FB6      		in r0,__SREG__
 336 01b6 0F92      		push r0
 337 01b8 1124      		clr __zero_reg__
 338               	/* prologue: Signal */
 339               	/* frame size = 0 */
 340               	/* epilogue start */
 341               	.LM37:
 342 01ba 0F90      		pop r0
GAS LISTING /tmp/cc1O4Nc2.s 			page 7


 343 01bc 0FBE      		out __SREG__,r0
 344 01be 0F90      		pop r0
 345 01c0 1F90      		pop __zero_reg__
 346 01c2 1895      		reti
 347               	.LFE18:
 348               		.size	__vector_51, .-__vector_51
 349               	.global	__vector_52
 350               		.type	__vector_52, @function
 351               	__vector_52:
 352               	.LFB19:
 353               	.LM38:
 354 01c4 1F92      		push __zero_reg__
 355 01c6 0F92      		push r0
 356 01c8 0FB6      		in r0,__SREG__
 357 01ca 0F92      		push r0
 358 01cc 1124      		clr __zero_reg__
 359               	/* prologue: Signal */
 360               	/* frame size = 0 */
 361               	/* epilogue start */
 362               	.LM39:
 363 01ce 0F90      		pop r0
 364 01d0 0FBE      		out __SREG__,r0
 365 01d2 0F90      		pop r0
 366 01d4 1F90      		pop __zero_reg__
 367 01d6 1895      		reti
 368               	.LFE19:
 369               		.size	__vector_52, .-__vector_52
 370               	.global	__vector_47
 371               		.type	__vector_47, @function
 372               	__vector_47:
 373               	.LFB20:
 374               	.LM40:
 375 01d8 1F92      		push __zero_reg__
 376 01da 0F92      		push r0
 377 01dc 0FB6      		in r0,__SREG__
 378 01de 0F92      		push r0
 379 01e0 1124      		clr __zero_reg__
 380               	/* prologue: Signal */
 381               	/* frame size = 0 */
 382               	/* epilogue start */
 383               	.LM41:
 384 01e2 0F90      		pop r0
 385 01e4 0FBE      		out __SREG__,r0
 386 01e6 0F90      		pop r0
 387 01e8 1F90      		pop __zero_reg__
 388 01ea 1895      		reti
 389               	.LFE20:
 390               		.size	__vector_47, .-__vector_47
 391               	.global	configMotTimer0
 392               		.type	configMotTimer0, @function
 393               	configMotTimer0:
 394               	.LFB21:
 395               	.LM42:
 396               	.LVL0:
 397               	/* prologue: function */
 398               	/* frame size = 0 */
 399               	/* epilogue start */
GAS LISTING /tmp/cc1O4Nc2.s 			page 8


 400               	.LM43:
 401 01ec 0895      		ret
 402               	.LFE21:
 403               		.size	configMotTimer0, .-configMotTimer0
 404               	.global	configMotTimer1
 405               		.type	configMotTimer1, @function
 406               	configMotTimer1:
 407               	.LFB22:
 408               	.LM44:
 409               	.LVL1:
 410               	/* prologue: function */
 411               	/* frame size = 0 */
 412               	/* epilogue start */
 413               	.LM45:
 414 01ee 0895      		ret
 415               	.LFE22:
 416               		.size	configMotTimer1, .-configMotTimer1
 417               	.global	__vector_22
 418               		.type	__vector_22, @function
 419               	__vector_22:
 420               	.LFB23:
 421               	.LM46:
 422 01f0 1F92      		push __zero_reg__
 423 01f2 0F92      		push r0
 424 01f4 0FB6      		in r0,__SREG__
 425 01f6 0F92      		push r0
 426 01f8 1124      		clr __zero_reg__
 427               	/* prologue: Signal */
 428               	/* frame size = 0 */
 429               	/* epilogue start */
 430               	.LM47:
 431 01fa 0F90      		pop r0
 432 01fc 0FBE      		out __SREG__,r0
 433 01fe 0F90      		pop r0
 434 0200 1F90      		pop __zero_reg__
 435 0202 1895      		reti
 436               	.LFE23:
 437               		.size	__vector_22, .-__vector_22
 438               	.global	__vector_55
 439               		.type	__vector_55, @function
 440               	__vector_55:
 441               	.LFB25:
 442               	.LM48:
 443 0204 1F92      		push __zero_reg__
 444 0206 0F92      		push r0
 445 0208 0FB6      		in r0,__SREG__
 446 020a 0F92      		push r0
 447 020c 1124      		clr __zero_reg__
 448               	/* prologue: Signal */
 449               	/* frame size = 0 */
 450               	/* epilogue start */
 451               	.LM49:
 452 020e 0F90      		pop r0
 453 0210 0FBE      		out __SREG__,r0
 454 0212 0F90      		pop r0
 455 0214 1F90      		pop __zero_reg__
 456 0216 1895      		reti
GAS LISTING /tmp/cc1O4Nc2.s 			page 9


 457               	.LFE25:
 458               		.size	__vector_55, .-__vector_55
 459               	.global	__vector_79
 460               		.type	__vector_79, @function
 461               	__vector_79:
 462               	.LFB26:
 463               	.LM50:
 464 0218 1F92      		push __zero_reg__
 465 021a 0F92      		push r0
 466 021c 0FB6      		in r0,__SREG__
 467 021e 0F92      		push r0
 468 0220 1124      		clr __zero_reg__
 469               	/* prologue: Signal */
 470               	/* frame size = 0 */
 471               	/* epilogue start */
 472               	.LM51:
 473 0222 0F90      		pop r0
 474 0224 0FBE      		out __SREG__,r0
 475 0226 0F90      		pop r0
 476 0228 1F90      		pop __zero_reg__
 477 022a 1895      		reti
 478               	.LFE26:
 479               		.size	__vector_79, .-__vector_79
 480               	.global	setMotor1State
 481               		.type	setMotor1State, @function
 482               	setMotor1State:
 483               	.LFB31:
 484               	.LM52:
 485               	.LVL2:
 486               	/* prologue: function */
 487               	/* frame size = 0 */
 488               	/* epilogue start */
 489               	.LM53:
 490 022c 0895      		ret
 491               	.LFE31:
 492               		.size	setMotor1State, .-setMotor1State
 493               	.global	setMotor2State
 494               		.type	setMotor2State, @function
 495               	setMotor2State:
 496               	.LFB32:
 497               	.LM54:
 498               	.LVL3:
 499               	/* prologue: function */
 500               	/* frame size = 0 */
 501               	.LM55:
 502 022e 8823      		tst r24
 503 0230 01F0      		breq .L43
 504               	.LM56:
 505 0232 8130      		cpi r24,lo8(1)
 506 0234 01F0      		breq .L44
 507               	.LM57:
 508 0236 8230      		cpi r24,lo8(2)
 509 0238 01F4      		brne .+2
 510 023a 00C0      		rjmp .L45
 511               	.LM58:
 512 023c 8330      		cpi r24,lo8(3)
 513 023e 01F4      		brne .+2
GAS LISTING /tmp/cc1O4Nc2.s 			page 10


 514 0240 00C0      		rjmp .L46
 515               	.LM59:
 516 0242 8430      		cpi r24,lo8(4)
 517 0244 01F0      		breq .L47
 518               	.LM60:
 519 0246 8530      		cpi r24,lo8(5)
 520 0248 01F4      		brne .+2
 521 024a 00C0      		rjmp .L48
 522 024c 0895      		ret
 523               	.L43:
 524               	.LM61:
 525 024e 0798      		cbi 0-0,7
 526 0250 069A      		sbi 0-0,6
 527 0252 1E98      		cbi 3-0,6
 528 0254 1F9A      		sbi 3-0,7
 529 0256 81B1      		in r24,1-0
 530               	.LVL4:
 531 0258 807F      		andi r24,lo8(-16)
 532 025a 81B9      		out 1-0,r24
 533 025c 84B1      		in r24,4-0
 534 025e 807F      		andi r24,lo8(-16)
 535 0260 84B9      		out 4-0,r24
 536 0262 E0EA      		ldi r30,lo8(1696)
 537 0264 F6E0      		ldi r31,hi8(1696)
 538 0266 8091 A406 		lds r24,1700
 539 026a 827F      		andi r24,lo8(-14)
 540 026c 8483      		std Z+4,r24
 541 026e 8091 A406 		lds r24,1700
 542 0272 8260      		ori r24,lo8(2)
 543 0274 8483      		std Z+4,r24
 544 0276 0895      		ret
 545               	.LVL5:
 546               	.L44:
 547               	.LM62:
 548 0278 0798      		cbi 0-0,7
 549 027a 069A      		sbi 0-0,6
 550 027c 1E98      		cbi 3-0,6
 551 027e 1F9A      		sbi 3-0,7
 552 0280 81B1      		in r24,1-0
 553               	.LVL6:
 554 0282 807F      		andi r24,lo8(-16)
 555 0284 81B9      		out 1-0,r24
 556 0286 84B1      		in r24,4-0
 557 0288 807F      		andi r24,lo8(-16)
 558 028a 84B9      		out 4-0,r24
 559 028c E0EA      		ldi r30,lo8(1696)
 560 028e F6E0      		ldi r31,hi8(1696)
 561 0290 8091 A406 		lds r24,1700
 562 0294 887F      		andi r24,lo8(-8)
 563 0296 8483      		std Z+4,r24
 564 0298 8091 A406 		lds r24,1700
 565 029c 8860      		ori r24,lo8(8)
 566 029e 8483      		std Z+4,r24
 567 02a0 0895      		ret
 568               	.LVL7:
 569               	.L47:
 570               	.LM63:
GAS LISTING /tmp/cc1O4Nc2.s 			page 11


 571 02a2 80B1      		in r24,0-0
 572               	.LVL8:
 573 02a4 8F73      		andi r24,lo8(63)
 574 02a6 80B9      		out 0-0,r24
 575 02a8 83B1      		in r24,3-0
 576 02aa 8F73      		andi r24,lo8(63)
 577 02ac 83B9      		out 3-0,r24
 578 02ae 81B1      		in r24,1-0
 579 02b0 847F      		andi r24,lo8(-12)
 580 02b2 81B9      		out 1-0,r24
 581 02b4 0A9A      		sbi 1-0,2
 582 02b6 84B1      		in r24,4-0
 583 02b8 887F      		andi r24,lo8(-8)
 584 02ba 84B9      		out 4-0,r24
 585 02bc 239A      		sbi 4-0,3
 586 02be E0E8      		ldi r30,lo8(1664)
 587 02c0 F6E0      		ldi r31,hi8(1664)
 588 02c2 8091 8406 		lds r24,1668
 589 02c6 8F7B      		andi r24,lo8(-65)
 590 02c8 8483      		std Z+4,r24
 591 02ca 8091 8406 		lds r24,1668
 592 02ce 8068      		ori r24,lo8(-128)
 593 02d0 8483      		std Z+4,r24
 594 02d2 8091 A406 		lds r24,1700
 595 02d6 8C7F      		andi r24,lo8(-4)
 596 02d8 E0EA      		ldi r30,lo8(1696)
 597 02da F6E0      		ldi r31,hi8(1696)
 598 02dc 8483      		std Z+4,r24
 599 02de 0895      		ret
 600               	.LVL9:
 601               	.L48:
 602               	.LM64:
 603 02e0 80B1      		in r24,0-0
 604               	.LVL10:
 605 02e2 8F73      		andi r24,lo8(63)
 606 02e4 80B9      		out 0-0,r24
 607 02e6 83B1      		in r24,3-0
 608 02e8 8F73      		andi r24,lo8(63)
 609 02ea 83B9      		out 3-0,r24
 610 02ec 81B1      		in r24,1-0
 611 02ee 847F      		andi r24,lo8(-12)
 612 02f0 81B9      		out 1-0,r24
 613 02f2 0A9A      		sbi 1-0,2
 614 02f4 84B1      		in r24,4-0
 615 02f6 887F      		andi r24,lo8(-8)
 616 02f8 84B9      		out 4-0,r24
 617 02fa 239A      		sbi 4-0,3
 618 02fc E0EA      		ldi r30,lo8(1696)
 619 02fe F6E0      		ldi r31,hi8(1696)
 620 0300 8091 A406 		lds r24,1700
 621 0304 8E7F      		andi r24,lo8(-2)
 622 0306 8483      		std Z+4,r24
 623 0308 8091 A406 		lds r24,1700
 624 030c 8260      		ori r24,lo8(2)
 625 030e 8483      		std Z+4,r24
 626 0310 8091 8406 		lds r24,1668
 627 0314 8F73      		andi r24,lo8(63)
GAS LISTING /tmp/cc1O4Nc2.s 			page 12


 628 0316 E0E8      		ldi r30,lo8(1664)
 629 0318 F6E0      		ldi r31,hi8(1664)
 630 031a 8483      		std Z+4,r24
 631 031c 0895      		ret
 632               	.LVL11:
 633               	.L45:
 634               	.LM65:
 635 031e 80B1      		in r24,0-0
 636               	.LVL12:
 637 0320 8F73      		andi r24,lo8(63)
 638 0322 80B9      		out 0-0,r24
 639 0324 83B1      		in r24,3-0
 640 0326 8F73      		andi r24,lo8(63)
 641 0328 83B9      		out 3-0,r24
 642 032a 81B1      		in r24,1-0
 643 032c 817F      		andi r24,lo8(-15)
 644 032e 81B9      		out 1-0,r24
 645 0330 089A      		sbi 1-0,0
 646 0332 84B1      		in r24,4-0
 647 0334 827F      		andi r24,lo8(-14)
 648 0336 84B9      		out 4-0,r24
 649 0338 219A      		sbi 4-0,1
 650 033a E0EA      		ldi r30,lo8(1696)
 651 033c F6E0      		ldi r31,hi8(1696)
 652 033e 8091 A406 		lds r24,1700
 653 0342 8B7F      		andi r24,lo8(-5)
 654 0344 8483      		std Z+4,r24
 655 0346 8091 A406 		lds r24,1700
 656 034a 8860      		ori r24,lo8(8)
 657 034c 8483      		std Z+4,r24
 658 034e 8091 8406 		lds r24,1668
 659 0352 8F73      		andi r24,lo8(63)
 660 0354 E0E8      		ldi r30,lo8(1664)
 661 0356 F6E0      		ldi r31,hi8(1664)
 662 0358 8483      		std Z+4,r24
 663 035a 0895      		ret
 664               	.LVL13:
 665               	.L46:
 666               	.LM66:
 667 035c 80B1      		in r24,0-0
 668               	.LVL14:
 669 035e 8F73      		andi r24,lo8(63)
 670 0360 80B9      		out 0-0,r24
 671 0362 83B1      		in r24,3-0
 672 0364 8F73      		andi r24,lo8(63)
 673 0366 83B9      		out 3-0,r24
 674 0368 81B1      		in r24,1-0
 675 036a 817F      		andi r24,lo8(-15)
 676 036c 81B9      		out 1-0,r24
 677 036e 089A      		sbi 1-0,0
 678 0370 84B1      		in r24,4-0
 679 0372 827F      		andi r24,lo8(-14)
 680 0374 84B9      		out 4-0,r24
 681 0376 219A      		sbi 4-0,1
 682 0378 E0E8      		ldi r30,lo8(1664)
 683 037a F6E0      		ldi r31,hi8(1664)
 684 037c 8091 8406 		lds r24,1668
GAS LISTING /tmp/cc1O4Nc2.s 			page 13


 685 0380 8F7B      		andi r24,lo8(-65)
 686 0382 8483      		std Z+4,r24
 687 0384 8091 8406 		lds r24,1668
 688 0388 8068      		ori r24,lo8(-128)
 689 038a 8483      		std Z+4,r24
 690 038c 8091 A406 		lds r24,1700
 691 0390 837F      		andi r24,lo8(-13)
 692 0392 E0EA      		ldi r30,lo8(1696)
 693 0394 F6E0      		ldi r31,hi8(1696)
 694 0396 8483      		std Z+4,r24
 695 0398 0895      		ret
 696               	.LFE32:
 697               		.size	setMotor2State, .-setMotor2State
 698               	.global	setMotor3State
 699               		.type	setMotor3State, @function
 700               	setMotor3State:
 701               	.LFB33:
 702               	.LM67:
 703               	.LVL15:
 704               	/* prologue: function */
 705               	/* frame size = 0 */
 706               	/* epilogue start */
 707               	.LM68:
 708 039a 0895      		ret
 709               	.LFE33:
 710               		.size	setMotor3State, .-setMotor3State
 711               	.global	setMotor4State
 712               		.type	setMotor4State, @function
 713               	setMotor4State:
 714               	.LFB34:
 715               	.LM69:
 716               	.LVL16:
 717               	/* prologue: function */
 718               	/* frame size = 0 */
 719               	/* epilogue start */
 720               	.LM70:
 721 039c 0895      		ret
 722               	.LFE34:
 723               		.size	setMotor4State, .-setMotor4State
 724               		.type	putcharDebug, @function
 725               	putcharDebug:
 726               	.LFB35:
 727               	.LM71:
 728               	.LVL17:
 729 039e 1F93      		push r17
 730               	/* prologue: function */
 731               	/* frame size = 0 */
 732 03a0 182F      		mov r17,r24
 733               	.LM72:
 734 03a2 8A30      		cpi r24,lo8(10)
 735 03a4 01F0      		breq .L58
 736               	.LVL18:
 737               	.L56:
 738               	.LM73:
 739 03a6 8091 B108 		lds r24,2225
 740 03aa 85FF      		sbrs r24,5
 741 03ac 00C0      		rjmp .L56
GAS LISTING /tmp/cc1O4Nc2.s 			page 14


 742               	.LM74:
 743 03ae 1093 B008 		sts 2224,r17
 744               	.LM75:
 745 03b2 80E0      		ldi r24,lo8(0)
 746 03b4 90E0      		ldi r25,hi8(0)
 747               	/* epilogue start */
 748 03b6 1F91      		pop r17
 749               	.LVL19:
 750 03b8 0895      		ret
 751               	.LVL20:
 752               	.L58:
 753               	.LM76:
 754 03ba 8DE0      		ldi r24,lo8(13)
 755               	.LVL21:
 756 03bc 0E94 0000 		call putcharDebug
 757               	.LVL22:
 758 03c0 00C0      		rjmp .L56
 759               	.LFE35:
 760               		.size	putcharDebug, .-putcharDebug
 761               	.global	__vector_24
 762               		.type	__vector_24, @function
 763               	__vector_24:
 764               	.LFB37:
 765               	.LM77:
 766 03c2 1F92      		push __zero_reg__
 767 03c4 0F92      		push r0
 768 03c6 0FB6      		in r0,__SREG__
 769 03c8 0F92      		push r0
 770 03ca 0BB6      		in r0,59-0
 771 03cc 0F92      		push r0
 772 03ce 1124      		clr __zero_reg__
 773 03d0 8F93      		push r24
 774 03d2 9F93      		push r25
 775 03d4 EF93      		push r30
 776 03d6 FF93      		push r31
 777               	/* prologue: Signal */
 778               	/* frame size = 0 */
 779               	.LM78:
 780 03d8 E091 0000 		lds r30,spiSlaveC
 781 03dc F091 0000 		lds r31,(spiSlaveC)+1
 782 03e0 9381      		ldd r25,Z+3
 783 03e2 8091 0000 		lds r24,spiRxBuffHead
 784 03e6 E0E0      		ldi r30,lo8(spiRxBuff)
 785 03e8 F0E0      		ldi r31,hi8(spiRxBuff)
 786 03ea E80F      		add r30,r24
 787 03ec F11D      		adc r31,__zero_reg__
 788 03ee 9083      		st Z,r25
 789               	/* epilogue start */
 790               	.LM79:
 791 03f0 FF91      		pop r31
 792 03f2 EF91      		pop r30
 793 03f4 9F91      		pop r25
 794 03f6 8F91      		pop r24
 795 03f8 0F90      		pop r0
 796 03fa 0BBE      		out 59-0,r0
 797 03fc 0F90      		pop r0
 798 03fe 0FBE      		out __SREG__,r0
GAS LISTING /tmp/cc1O4Nc2.s 			page 15


 799 0400 0F90      		pop r0
 800 0402 1F90      		pop __zero_reg__
 801 0404 1895      		reti
 802               	.LFE37:
 803               		.size	__vector_24, .-__vector_24
 804               	.global	processSpiRxBuff
 805               		.type	processSpiRxBuff, @function
 806               	processSpiRxBuff:
 807               	.LFB38:
 808               	.LM80:
 809 0406 1F93      		push r17
 810               	/* prologue: function */
 811               	/* frame size = 0 */
 812               	.LM81:
 813 0408 8091 0000 		lds r24,spiRxBuff+1
 814 040c 90E0      		ldi r25,lo8(0)
 815 040e 0097      		sbiw r24,0
 816 0410 01F0      		breq .L66
 817 0412 60E0      		ldi r22,lo8(0)
 818 0414 70E0      		ldi r23,hi8(0)
 819               	.LVL23:
 820               	.LM82:
 821 0416 A0E4      		ldi r26,lo8(1600)
 822 0418 B6E0      		ldi r27,hi8(1600)
 823 041a 11E0      		ldi r17,lo8(1)
 824               	.LBB60:
 825               	.LBB61:
 826               	.LBB62:
 827               	.LBB63:
 828               	.LM83:
 829 041c 40E2      		ldi r20,lo8(800)
 830 041e 53E0      		ldi r21,hi8(800)
 831               	.LVL24:
 832               	.L65:
 833               	.LBE63:
 834               	.LBE62:
 835               	.LBE61:
 836               	.LBE60:
 837               	.LM84:
 838 0420 1596      		adiw r26,5
 839 0422 1C93      		st X,r17
 840 0424 1597      		sbiw r26,5
 841 0426 20ED      		ldi r18,lo8(2000)
 842 0428 37E0      		ldi r19,hi8(2000)
 843               	.LVL25:
 844               	.L63:
 845               	.LBB67:
 846               	.LBB66:
 847               	.LBB65:
 848               	.LBB64:
 849               	.LM85:
 850 042a FA01      		movw r30,r20
 851               	.LVL26:
 852               	/* #APP */
 853               	 ;  105 "/usr/local/avr/lib/gcc/avr/4.3.4/../../../../avr/include/util/delay_basic.h" 1
 854 042c 3197      		1: sbiw r30,1
 855 042e 01F4      		brne 1b
GAS LISTING /tmp/cc1O4Nc2.s 			page 16


 856               	 ;  0 "" 2
 857               	/* #NOAPP */
 858               	.LBE64:
 859               	.LBE65:
 860               	.LM86:
 861 0430 2150      		subi r18,lo8(-(-1))
 862 0432 3040      		sbci r19,hi8(-(-1))
 863               	.LM87:
 864 0434 01F4      		brne .L63
 865               	.LBE66:
 866               	.LBE67:
 867               	.LM88:
 868 0436 1596      		adiw r26,5
 869 0438 1C92      		st X,__zero_reg__
 870 043a 1597      		sbiw r26,5
 871 043c 20EA      		ldi r18,lo8(4000)
 872 043e 3FE0      		ldi r19,hi8(4000)
 873               	.LVL27:
 874               	.L64:
 875               	.LBB68:
 876               	.LBB69:
 877               	.LBB70:
 878               	.LBB71:
 879               	.LM89:
 880 0440 FA01      		movw r30,r20
 881               	.LVL28:
 882               	/* #APP */
 883               	 ;  105 "/usr/local/avr/lib/gcc/avr/4.3.4/../../../../avr/include/util/delay_basic.h" 1
 884 0442 3197      		1: sbiw r30,1
 885 0444 01F4      		brne 1b
 886               	 ;  0 "" 2
 887               	/* #NOAPP */
 888               	.LBE71:
 889               	.LBE70:
 890               	.LM90:
 891 0446 2150      		subi r18,lo8(-(-1))
 892 0448 3040      		sbci r19,hi8(-(-1))
 893               	.LM91:
 894 044a 01F4      		brne .L64
 895               	.LBE69:
 896               	.LBE68:
 897               	.LM92:
 898 044c 6F5F      		subi r22,lo8(-(1))
 899 044e 7F4F      		sbci r23,hi8(-(1))
 900 0450 6817      		cp r22,r24
 901 0452 7907      		cpc r23,r25
 902 0454 04F0      		brlt .L65
 903               	.L66:
 904               	/* epilogue start */
 905               	.LM93:
 906 0456 1F91      		pop r17
 907 0458 0895      		ret
 908               	.LFE38:
 909               		.size	processSpiRxBuff, .-processSpiRxBuff
 910               	.global	startup
 911               		.type	startup, @function
 912               	startup:
GAS LISTING /tmp/cc1O4Nc2.s 			page 17


 913               	.LFB30:
 914               	.LM94:
 915               	/* prologue: function */
 916               	/* frame size = 0 */
 917               	.LM95:
 918 045a 80B1      		in r24,0-0
 919 045c 8F73      		andi r24,lo8(63)
 920 045e 80B9      		out 0-0,r24
 921 0460 83B1      		in r24,3-0
 922 0462 8F73      		andi r24,lo8(63)
 923 0464 83B9      		out 3-0,r24
 924 0466 81B1      		in r24,1-0
 925 0468 847F      		andi r24,lo8(-12)
 926 046a 81B9      		out 1-0,r24
 927 046c 0A9A      		sbi 1-0,2
 928 046e 84B1      		in r24,4-0
 929 0470 887F      		andi r24,lo8(-8)
 930 0472 84B9      		out 4-0,r24
 931 0474 239A      		sbi 4-0,3
 932 0476 E0EA      		ldi r30,lo8(1696)
 933 0478 F6E0      		ldi r31,hi8(1696)
 934 047a 8091 A406 		lds r24,1700
 935 047e 8E7F      		andi r24,lo8(-2)
 936 0480 8483      		std Z+4,r24
 937 0482 8091 A406 		lds r24,1700
 938 0486 8260      		ori r24,lo8(2)
 939 0488 8483      		std Z+4,r24
 940 048a 8091 8406 		lds r24,1668
 941 048e 8F73      		andi r24,lo8(63)
 942 0490 E0E8      		ldi r30,lo8(1664)
 943 0492 F6E0      		ldi r31,hi8(1664)
 944 0494 8483      		std Z+4,r24
 945               	.LM96:
 946 0496 E0E0      		ldi r30,lo8(2048)
 947 0498 F8E0      		ldi r31,hi8(2048)
 948 049a 10A2      		std Z+32,__zero_reg__
 949 049c 11A2      		std Z+33,__zero_reg__
 950               	.L71:
 951               	.LM97:
 952 049e 8091 2008 		lds r24,2080
 953 04a2 9091 2108 		lds r25,(2080)+1
 954 04a6 885E      		subi r24,lo8(-536)
 955 04a8 9D4F      		sbci r25,hi8(-536)
 956 04aa 00F0      		brlo .L71
 957               	.LM98:
 958 04ac 8091 0000 		lds r24,startupPwms
 959 04b0 9091 0000 		lds r25,(startupPwms)+1
 960 04b4 E0E0      		ldi r30,lo8(2816)
 961 04b6 FBE0      		ldi r31,hi8(2816)
 962 04b8 82AF      		std Z+58,r24
 963 04ba 93AF      		std Z+59,r25
 964               	.LM99:
 965 04bc 0798      		cbi 0-0,7
 966 04be 069A      		sbi 0-0,6
 967 04c0 1E98      		cbi 3-0,6
 968 04c2 1F9A      		sbi 3-0,7
 969 04c4 81B1      		in r24,1-0
GAS LISTING /tmp/cc1O4Nc2.s 			page 18


 970 04c6 807F      		andi r24,lo8(-16)
 971 04c8 81B9      		out 1-0,r24
 972 04ca 84B1      		in r24,4-0
 973 04cc 807F      		andi r24,lo8(-16)
 974 04ce 84B9      		out 4-0,r24
 975 04d0 E0EA      		ldi r30,lo8(1696)
 976 04d2 F6E0      		ldi r31,hi8(1696)
 977 04d4 8091 A406 		lds r24,1700
 978 04d8 827F      		andi r24,lo8(-14)
 979 04da 8483      		std Z+4,r24
 980 04dc 8091 A406 		lds r24,1700
 981 04e0 8260      		ori r24,lo8(2)
 982 04e2 8483      		std Z+4,r24
 983               	.LM100:
 984 04e4 E0E0      		ldi r30,lo8(2048)
 985 04e6 F8E0      		ldi r31,hi8(2048)
 986 04e8 10A2      		std Z+32,__zero_reg__
 987 04ea 11A2      		std Z+33,__zero_reg__
 988 04ec 8091 0000 		lds r24,startupDelays
 989 04f0 282F      		mov r18,r24
 990 04f2 30E0      		ldi r19,lo8(0)
 991               	.L72:
 992               	.LM101:
 993 04f4 8091 2008 		lds r24,2080
 994 04f8 9091 2108 		lds r25,(2080)+1
 995 04fc 8217      		cp r24,r18
 996 04fe 9307      		cpc r25,r19
 997 0500 00F0      		brlo .L72
 998               	.LM102:
 999 0502 8091 0000 		lds r24,startupPwms+2
 1000 0506 9091 0000 		lds r25,(startupPwms+2)+1
 1001 050a E0E0      		ldi r30,lo8(2816)
 1002 050c FBE0      		ldi r31,hi8(2816)
 1003 050e 82AF      		std Z+58,r24
 1004 0510 93AF      		std Z+59,r25
 1005               	.LM103:
 1006 0512 0798      		cbi 0-0,7
 1007 0514 069A      		sbi 0-0,6
 1008 0516 1E98      		cbi 3-0,6
 1009 0518 1F9A      		sbi 3-0,7
 1010 051a 81B1      		in r24,1-0
 1011 051c 807F      		andi r24,lo8(-16)
 1012 051e 81B9      		out 1-0,r24
 1013 0520 84B1      		in r24,4-0
 1014 0522 807F      		andi r24,lo8(-16)
 1015 0524 84B9      		out 4-0,r24
 1016 0526 E0EA      		ldi r30,lo8(1696)
 1017 0528 F6E0      		ldi r31,hi8(1696)
 1018 052a 8091 A406 		lds r24,1700
 1019 052e 887F      		andi r24,lo8(-8)
 1020 0530 8483      		std Z+4,r24
 1021 0532 8091 A406 		lds r24,1700
 1022 0536 8860      		ori r24,lo8(8)
 1023 0538 8483      		std Z+4,r24
 1024               	.LM104:
 1025 053a E0E0      		ldi r30,lo8(2048)
 1026 053c F8E0      		ldi r31,hi8(2048)
GAS LISTING /tmp/cc1O4Nc2.s 			page 19


 1027 053e 10A2      		std Z+32,__zero_reg__
 1028 0540 11A2      		std Z+33,__zero_reg__
 1029 0542 8091 0000 		lds r24,startupDelays+1
 1030 0546 282F      		mov r18,r24
 1031 0548 30E0      		ldi r19,lo8(0)
 1032               	.L73:
 1033               	.LM105:
 1034 054a 8091 2008 		lds r24,2080
 1035 054e 9091 2108 		lds r25,(2080)+1
 1036 0552 8217      		cp r24,r18
 1037 0554 9307      		cpc r25,r19
 1038 0556 00F0      		brlo .L73
 1039               	.LM106:
 1040 0558 8091 0000 		lds r24,startupPwms+4
 1041 055c 9091 0000 		lds r25,(startupPwms+4)+1
 1042 0560 E0E0      		ldi r30,lo8(2816)
 1043 0562 FBE0      		ldi r31,hi8(2816)
 1044 0564 82AF      		std Z+58,r24
 1045 0566 93AF      		std Z+59,r25
 1046               	.LM107:
 1047 0568 80B1      		in r24,0-0
 1048 056a 8F73      		andi r24,lo8(63)
 1049 056c 80B9      		out 0-0,r24
 1050 056e 83B1      		in r24,3-0
 1051 0570 8F73      		andi r24,lo8(63)
 1052 0572 83B9      		out 3-0,r24
 1053 0574 81B1      		in r24,1-0
 1054 0576 817F      		andi r24,lo8(-15)
 1055 0578 81B9      		out 1-0,r24
 1056 057a 089A      		sbi 1-0,0
 1057 057c 84B1      		in r24,4-0
 1058 057e 827F      		andi r24,lo8(-14)
 1059 0580 84B9      		out 4-0,r24
 1060 0582 219A      		sbi 4-0,1
 1061 0584 E0EA      		ldi r30,lo8(1696)
 1062 0586 F6E0      		ldi r31,hi8(1696)
 1063 0588 8091 A406 		lds r24,1700
 1064 058c 8B7F      		andi r24,lo8(-5)
 1065 058e 8483      		std Z+4,r24
 1066 0590 8091 A406 		lds r24,1700
 1067 0594 8860      		ori r24,lo8(8)
 1068 0596 8483      		std Z+4,r24
 1069 0598 8091 8406 		lds r24,1668
 1070 059c 8F73      		andi r24,lo8(63)
 1071 059e E0E8      		ldi r30,lo8(1664)
 1072 05a0 F6E0      		ldi r31,hi8(1664)
 1073 05a2 8483      		std Z+4,r24
 1074               	.LM108:
 1075 05a4 E0E0      		ldi r30,lo8(2048)
 1076 05a6 F8E0      		ldi r31,hi8(2048)
 1077 05a8 10A2      		std Z+32,__zero_reg__
 1078 05aa 11A2      		std Z+33,__zero_reg__
 1079 05ac 8091 0000 		lds r24,startupDelays+2
 1080 05b0 282F      		mov r18,r24
 1081 05b2 30E0      		ldi r19,lo8(0)
 1082               	.L74:
 1083               	.LM109:
GAS LISTING /tmp/cc1O4Nc2.s 			page 20


 1084 05b4 8091 2008 		lds r24,2080
 1085 05b8 9091 2108 		lds r25,(2080)+1
 1086 05bc 8217      		cp r24,r18
 1087 05be 9307      		cpc r25,r19
 1088 05c0 00F0      		brlo .L74
 1089               	.LM110:
 1090 05c2 8091 0000 		lds r24,startupPwms+6
 1091 05c6 9091 0000 		lds r25,(startupPwms+6)+1
 1092 05ca E0E0      		ldi r30,lo8(2816)
 1093 05cc FBE0      		ldi r31,hi8(2816)
 1094 05ce 82AF      		std Z+58,r24
 1095 05d0 93AF      		std Z+59,r25
 1096               	.LM111:
 1097 05d2 80B1      		in r24,0-0
 1098 05d4 8F73      		andi r24,lo8(63)
 1099 05d6 80B9      		out 0-0,r24
 1100 05d8 83B1      		in r24,3-0
 1101 05da 8F73      		andi r24,lo8(63)
 1102 05dc 83B9      		out 3-0,r24
 1103 05de 81B1      		in r24,1-0
 1104 05e0 817F      		andi r24,lo8(-15)
 1105 05e2 81B9      		out 1-0,r24
 1106 05e4 089A      		sbi 1-0,0
 1107 05e6 84B1      		in r24,4-0
 1108 05e8 827F      		andi r24,lo8(-14)
 1109 05ea 84B9      		out 4-0,r24
 1110 05ec 219A      		sbi 4-0,1
 1111 05ee E0E8      		ldi r30,lo8(1664)
 1112 05f0 F6E0      		ldi r31,hi8(1664)
 1113 05f2 8091 8406 		lds r24,1668
 1114 05f6 8F7B      		andi r24,lo8(-65)
 1115 05f8 8483      		std Z+4,r24
 1116 05fa 8091 8406 		lds r24,1668
 1117 05fe 8068      		ori r24,lo8(-128)
 1118 0600 8483      		std Z+4,r24
 1119 0602 8091 A406 		lds r24,1700
 1120 0606 837F      		andi r24,lo8(-13)
 1121 0608 E0EA      		ldi r30,lo8(1696)
 1122 060a F6E0      		ldi r31,hi8(1696)
 1123 060c 8483      		std Z+4,r24
 1124               	.LM112:
 1125 060e E0E0      		ldi r30,lo8(2048)
 1126 0610 F8E0      		ldi r31,hi8(2048)
 1127 0612 10A2      		std Z+32,__zero_reg__
 1128 0614 11A2      		std Z+33,__zero_reg__
 1129 0616 8091 0000 		lds r24,startupDelays+3
 1130 061a 282F      		mov r18,r24
 1131 061c 30E0      		ldi r19,lo8(0)
 1132               	.L75:
 1133               	.LM113:
 1134 061e 8091 2008 		lds r24,2080
 1135 0622 9091 2108 		lds r25,(2080)+1
 1136 0626 8217      		cp r24,r18
 1137 0628 9307      		cpc r25,r19
 1138 062a 00F0      		brlo .L75
 1139               	.LM114:
 1140 062c 8091 0000 		lds r24,startupPwms+8
GAS LISTING /tmp/cc1O4Nc2.s 			page 21


 1141 0630 9091 0000 		lds r25,(startupPwms+8)+1
 1142 0634 E0E0      		ldi r30,lo8(2816)
 1143 0636 FBE0      		ldi r31,hi8(2816)
 1144 0638 82AF      		std Z+58,r24
 1145 063a 93AF      		std Z+59,r25
 1146               	.LM115:
 1147 063c 80B1      		in r24,0-0
 1148 063e 8F73      		andi r24,lo8(63)
 1149 0640 80B9      		out 0-0,r24
 1150 0642 83B1      		in r24,3-0
 1151 0644 8F73      		andi r24,lo8(63)
 1152 0646 83B9      		out 3-0,r24
 1153 0648 81B1      		in r24,1-0
 1154 064a 847F      		andi r24,lo8(-12)
 1155 064c 81B9      		out 1-0,r24
 1156 064e 0A9A      		sbi 1-0,2
 1157 0650 84B1      		in r24,4-0
 1158 0652 887F      		andi r24,lo8(-8)
 1159 0654 84B9      		out 4-0,r24
 1160 0656 239A      		sbi 4-0,3
 1161 0658 E0E8      		ldi r30,lo8(1664)
 1162 065a F6E0      		ldi r31,hi8(1664)
 1163 065c 8091 8406 		lds r24,1668
 1164 0660 8F7B      		andi r24,lo8(-65)
 1165 0662 8483      		std Z+4,r24
 1166 0664 8091 8406 		lds r24,1668
 1167 0668 8068      		ori r24,lo8(-128)
 1168 066a 8483      		std Z+4,r24
 1169 066c 8091 A406 		lds r24,1700
 1170 0670 8C7F      		andi r24,lo8(-4)
 1171 0672 E0EA      		ldi r30,lo8(1696)
 1172 0674 F6E0      		ldi r31,hi8(1696)
 1173 0676 8483      		std Z+4,r24
 1174               	.LM116:
 1175 0678 E0E0      		ldi r30,lo8(2048)
 1176 067a F8E0      		ldi r31,hi8(2048)
 1177 067c 10A2      		std Z+32,__zero_reg__
 1178 067e 11A2      		std Z+33,__zero_reg__
 1179 0680 8091 0000 		lds r24,startupDelays+4
 1180 0684 282F      		mov r18,r24
 1181 0686 30E0      		ldi r19,lo8(0)
 1182               	.L76:
 1183               	.LM117:
 1184 0688 8091 2008 		lds r24,2080
 1185 068c 9091 2108 		lds r25,(2080)+1
 1186 0690 8217      		cp r24,r18
 1187 0692 9307      		cpc r25,r19
 1188 0694 00F0      		brlo .L76
 1189               	.LM118:
 1190 0696 8091 0000 		lds r24,startupPwms+10
 1191 069a 9091 0000 		lds r25,(startupPwms+10)+1
 1192 069e E0E0      		ldi r30,lo8(2816)
 1193 06a0 FBE0      		ldi r31,hi8(2816)
 1194 06a2 82AF      		std Z+58,r24
 1195 06a4 93AF      		std Z+59,r25
 1196               	.LM119:
 1197 06a6 9695      		lsr r25
GAS LISTING /tmp/cc1O4Nc2.s 			page 22


 1198 06a8 8795      		ror r24
 1199 06aa E0E0      		ldi r30,lo8(2560)
 1200 06ac FAE0      		ldi r31,hi8(2560)
 1201 06ae 82AF      		std Z+58,r24
 1202 06b0 93AF      		std Z+59,r25
 1203               	.LM120:
 1204 06b2 84E6      		ldi r24,lo8(6500)
 1205 06b4 99E1      		ldi r25,hi8(6500)
 1206 06b6 E0E4      		ldi r30,lo8(2368)
 1207 06b8 F9E0      		ldi r31,hi8(2368)
 1208 06ba 86A3      		std Z+38,r24
 1209 06bc 97A3      		std Z+39,r25
 1210               	.LM121:
 1211 06be 80E4      		ldi r24,lo8(2368)
 1212 06c0 99E0      		ldi r25,hi8(2368)
 1213 06c2 65E0      		ldi r22,lo8(5)
 1214 06c4 0E94 0000 		call TC1_ConfigClockSource
 1215               	.LM122:
 1216 06c8 80B1      		in r24,0-0
 1217 06ca 8F73      		andi r24,lo8(63)
 1218 06cc 80B9      		out 0-0,r24
 1219 06ce 83B1      		in r24,3-0
 1220 06d0 8F73      		andi r24,lo8(63)
 1221 06d2 83B9      		out 3-0,r24
 1222 06d4 81B1      		in r24,1-0
 1223 06d6 847F      		andi r24,lo8(-12)
 1224 06d8 81B9      		out 1-0,r24
 1225 06da 0A9A      		sbi 1-0,2
 1226 06dc 84B1      		in r24,4-0
 1227 06de 887F      		andi r24,lo8(-8)
 1228 06e0 84B9      		out 4-0,r24
 1229 06e2 239A      		sbi 4-0,3
 1230 06e4 E0EA      		ldi r30,lo8(1696)
 1231 06e6 F6E0      		ldi r31,hi8(1696)
 1232 06e8 8091 A406 		lds r24,1700
 1233 06ec 8E7F      		andi r24,lo8(-2)
 1234 06ee 8483      		std Z+4,r24
 1235 06f0 8091 A406 		lds r24,1700
 1236 06f4 8260      		ori r24,lo8(2)
 1237 06f6 8483      		std Z+4,r24
 1238 06f8 8091 8406 		lds r24,1668
 1239 06fc 8F73      		andi r24,lo8(63)
 1240 06fe E0E8      		ldi r30,lo8(1664)
 1241 0700 F6E0      		ldi r31,hi8(1664)
 1242 0702 8483      		std Z+4,r24
 1243               	.LM123:
 1244 0704 85E0      		ldi r24,lo8(5)
 1245 0706 8093 0000 		sts motor2State,r24
 1246               	.LM124:
 1247 070a E0E0      		ldi r30,lo8(2048)
 1248 070c F8E0      		ldi r31,hi8(2048)
 1249 070e 10A2      		std Z+32,__zero_reg__
 1250 0710 11A2      		std Z+33,__zero_reg__
 1251               	.LM125:
 1252 0712 81E0      		ldi r24,lo8(1)
 1253 0714 87B9      		out 7-0,r24
 1254               	.LM126:
GAS LISTING /tmp/cc1O4Nc2.s 			page 23


 1255 0716 86B9      		out 6-0,r24
 1256 0718 8091 0000 		lds r24,startupDelays+5
 1257 071c 282F      		mov r18,r24
 1258 071e 30E0      		ldi r19,lo8(0)
 1259               	.L77:
 1260               	.LM127:
 1261 0720 8091 2008 		lds r24,2080
 1262 0724 9091 2108 		lds r25,(2080)+1
 1263 0728 8217      		cp r24,r18
 1264 072a 9307      		cpc r25,r19
 1265 072c 00F0      		brlo .L77
 1266 072e 20E1      		ldi r18,lo8(10000)
 1267 0730 37E2      		ldi r19,hi8(10000)
 1268               	.LVL29:
 1269               	.LBB72:
 1270               	.LBB73:
 1271               	.LBB74:
 1272               	.LBB75:
 1273               	.LM128:
 1274 0732 40E2      		ldi r20,lo8(800)
 1275 0734 53E0      		ldi r21,hi8(800)
 1276               	.L78:
 1277 0736 CA01      		movw r24,r20
 1278               	.LVL30:
 1279               	/* #APP */
 1280               	 ;  105 "/usr/local/avr/lib/gcc/avr/4.3.4/../../../../avr/include/util/delay_basic.h" 1
 1281 0738 0197      		1: sbiw r24,1
 1282 073a 01F4      		brne 1b
 1283               	 ;  0 "" 2
 1284               	/* #NOAPP */
 1285               	.LBE75:
 1286               	.LBE74:
 1287               	.LM129:
 1288 073c 2150      		subi r18,lo8(-(-1))
 1289 073e 3040      		sbci r19,hi8(-(-1))
 1290               	.LM130:
 1291 0740 01F4      		brne .L78
 1292               	.LBE73:
 1293               	.LBE72:
 1294               	.LM131:
 1295 0742 8CED      		ldi r24,lo8(1500)
 1296 0744 95E0      		ldi r25,hi8(1500)
 1297               	.LVL31:
 1298 0746 E0E0      		ldi r30,lo8(2816)
 1299 0748 FBE0      		ldi r31,hi8(2816)
 1300 074a 82AF      		std Z+58,r24
 1301 074c 93AF      		std Z+59,r25
 1302 074e 20E1      		ldi r18,lo8(10000)
 1303 0750 37E2      		ldi r19,hi8(10000)
 1304               	.LVL32:
 1305               	.LBB76:
 1306               	.LBB77:
 1307               	.LBB78:
 1308               	.LBB79:
 1309               	.LM132:
 1310 0752 40E2      		ldi r20,lo8(800)
 1311 0754 53E0      		ldi r21,hi8(800)
GAS LISTING /tmp/cc1O4Nc2.s 			page 24


 1312               	.L79:
 1313 0756 CA01      		movw r24,r20
 1314               	.LVL33:
 1315               	/* #APP */
 1316               	 ;  105 "/usr/local/avr/lib/gcc/avr/4.3.4/../../../../avr/include/util/delay_basic.h" 1
 1317 0758 0197      		1: sbiw r24,1
 1318 075a 01F4      		brne 1b
 1319               	 ;  0 "" 2
 1320               	/* #NOAPP */
 1321               	.LBE79:
 1322               	.LBE78:
 1323               	.LM133:
 1324 075c 2150      		subi r18,lo8(-(-1))
 1325 075e 3040      		sbci r19,hi8(-(-1))
 1326               	.LM134:
 1327 0760 01F4      		brne .L79
 1328               	.LBE77:
 1329               	.LBE76:
 1330               	.LM135:
 1331 0762 80ED      		ldi r24,lo8(2000)
 1332 0764 97E0      		ldi r25,hi8(2000)
 1333               	.LVL34:
 1334 0766 E0E0      		ldi r30,lo8(2816)
 1335 0768 FBE0      		ldi r31,hi8(2816)
 1336 076a 82AF      		std Z+58,r24
 1337 076c 93AF      		std Z+59,r25
 1338 076e 20E1      		ldi r18,lo8(10000)
 1339 0770 37E2      		ldi r19,hi8(10000)
 1340               	.LVL35:
 1341               	.LBB80:
 1342               	.LBB81:
 1343               	.LBB82:
 1344               	.LBB83:
 1345               	.LM136:
 1346 0772 40E2      		ldi r20,lo8(800)
 1347 0774 53E0      		ldi r21,hi8(800)
 1348               	.L80:
 1349 0776 CA01      		movw r24,r20
 1350               	.LVL36:
 1351               	/* #APP */
 1352               	 ;  105 "/usr/local/avr/lib/gcc/avr/4.3.4/../../../../avr/include/util/delay_basic.h" 1
 1353 0778 0197      		1: sbiw r24,1
 1354 077a 01F4      		brne 1b
 1355               	 ;  0 "" 2
 1356               	/* #NOAPP */
 1357               	.LBE83:
 1358               	.LBE82:
 1359               	.LM137:
 1360 077c 2150      		subi r18,lo8(-(-1))
 1361 077e 3040      		sbci r19,hi8(-(-1))
 1362               	.LM138:
 1363 0780 01F4      		brne .L80
 1364               	.LBE81:
 1365               	.LBE80:
 1366               	.LM139:
 1367 0782 84EC      		ldi r24,lo8(2500)
 1368 0784 99E0      		ldi r25,hi8(2500)
GAS LISTING /tmp/cc1O4Nc2.s 			page 25


 1369               	.LVL37:
 1370 0786 E0E0      		ldi r30,lo8(2816)
 1371 0788 FBE0      		ldi r31,hi8(2816)
 1372 078a 82AF      		std Z+58,r24
 1373 078c 93AF      		std Z+59,r25
 1374 078e 20E1      		ldi r18,lo8(10000)
 1375 0790 37E2      		ldi r19,hi8(10000)
 1376               	.LVL38:
 1377               	.LBB84:
 1378               	.LBB85:
 1379               	.LBB86:
 1380               	.LBB87:
 1381               	.LM140:
 1382 0792 40E2      		ldi r20,lo8(800)
 1383 0794 53E0      		ldi r21,hi8(800)
 1384               	.L81:
 1385 0796 CA01      		movw r24,r20
 1386               	.LVL39:
 1387               	/* #APP */
 1388               	 ;  105 "/usr/local/avr/lib/gcc/avr/4.3.4/../../../../avr/include/util/delay_basic.h" 1
 1389 0798 0197      		1: sbiw r24,1
 1390 079a 01F4      		brne 1b
 1391               	 ;  0 "" 2
 1392               	/* #NOAPP */
 1393               	.LBE87:
 1394               	.LBE86:
 1395               	.LM141:
 1396 079c 2150      		subi r18,lo8(-(-1))
 1397 079e 3040      		sbci r19,hi8(-(-1))
 1398               	.LM142:
 1399 07a0 01F4      		brne .L81
 1400               	.LBE85:
 1401               	.LBE84:
 1402               	.LM143:
 1403 07a2 88EB      		ldi r24,lo8(3000)
 1404 07a4 9BE0      		ldi r25,hi8(3000)
 1405               	.LVL40:
 1406 07a6 E0E0      		ldi r30,lo8(2816)
 1407 07a8 FBE0      		ldi r31,hi8(2816)
 1408 07aa 82AF      		std Z+58,r24
 1409 07ac 93AF      		std Z+59,r25
 1410 07ae 20E1      		ldi r18,lo8(10000)
 1411 07b0 37E2      		ldi r19,hi8(10000)
 1412               	.LVL41:
 1413               	.LBB88:
 1414               	.LBB89:
 1415               	.LBB90:
 1416               	.LBB91:
 1417               	.LM144:
 1418 07b2 40E2      		ldi r20,lo8(800)
 1419 07b4 53E0      		ldi r21,hi8(800)
 1420               	.L82:
 1421 07b6 CA01      		movw r24,r20
 1422               	.LVL42:
 1423               	/* #APP */
 1424               	 ;  105 "/usr/local/avr/lib/gcc/avr/4.3.4/../../../../avr/include/util/delay_basic.h" 1
 1425 07b8 0197      		1: sbiw r24,1
GAS LISTING /tmp/cc1O4Nc2.s 			page 26


 1426 07ba 01F4      		brne 1b
 1427               	 ;  0 "" 2
 1428               	/* #NOAPP */
 1429               	.LBE91:
 1430               	.LBE90:
 1431               	.LM145:
 1432 07bc 2150      		subi r18,lo8(-(-1))
 1433 07be 3040      		sbci r19,hi8(-(-1))
 1434               	.LM146:
 1435 07c0 01F4      		brne .L82
 1436               	.LBE89:
 1437               	.LBE88:
 1438               	.LM147:
 1439 07c2 8CEA      		ldi r24,lo8(3500)
 1440 07c4 9DE0      		ldi r25,hi8(3500)
 1441               	.LVL43:
 1442 07c6 E0E0      		ldi r30,lo8(2816)
 1443 07c8 FBE0      		ldi r31,hi8(2816)
 1444 07ca 82AF      		std Z+58,r24
 1445 07cc 93AF      		std Z+59,r25
 1446 07ce 20E1      		ldi r18,lo8(10000)
 1447 07d0 37E2      		ldi r19,hi8(10000)
 1448               	.LVL44:
 1449               	.LBB92:
 1450               	.LBB93:
 1451               	.LBB94:
 1452               	.LBB95:
 1453               	.LM148:
 1454 07d2 40E2      		ldi r20,lo8(800)
 1455 07d4 53E0      		ldi r21,hi8(800)
 1456               	.L83:
 1457 07d6 CA01      		movw r24,r20
 1458               	.LVL45:
 1459               	/* #APP */
 1460               	 ;  105 "/usr/local/avr/lib/gcc/avr/4.3.4/../../../../avr/include/util/delay_basic.h" 1
 1461 07d8 0197      		1: sbiw r24,1
 1462 07da 01F4      		brne 1b
 1463               	 ;  0 "" 2
 1464               	/* #NOAPP */
 1465               	.LBE95:
 1466               	.LBE94:
 1467               	.LM149:
 1468 07dc 2150      		subi r18,lo8(-(-1))
 1469 07de 3040      		sbci r19,hi8(-(-1))
 1470               	.LM150:
 1471 07e0 01F4      		brne .L83
 1472               	.LBE93:
 1473               	.LBE92:
 1474               	.LM151:
 1475 07e2 80EA      		ldi r24,lo8(4000)
 1476 07e4 9FE0      		ldi r25,hi8(4000)
 1477               	.LVL46:
 1478 07e6 E0E0      		ldi r30,lo8(2816)
 1479 07e8 FBE0      		ldi r31,hi8(2816)
 1480 07ea 82AF      		std Z+58,r24
 1481 07ec 93AF      		std Z+59,r25
 1482 07ee 20E1      		ldi r18,lo8(10000)
GAS LISTING /tmp/cc1O4Nc2.s 			page 27


 1483 07f0 37E2      		ldi r19,hi8(10000)
 1484               	.LVL47:
 1485               	.LBB96:
 1486               	.LBB97:
 1487               	.LBB98:
 1488               	.LBB99:
 1489               	.LM152:
 1490 07f2 40E2      		ldi r20,lo8(800)
 1491 07f4 53E0      		ldi r21,hi8(800)
 1492               	.L84:
 1493 07f6 CA01      		movw r24,r20
 1494               	.LVL48:
 1495               	/* #APP */
 1496               	 ;  105 "/usr/local/avr/lib/gcc/avr/4.3.4/../../../../avr/include/util/delay_basic.h" 1
 1497 07f8 0197      		1: sbiw r24,1
 1498 07fa 01F4      		brne 1b
 1499               	 ;  0 "" 2
 1500               	/* #NOAPP */
 1501               	.LBE99:
 1502               	.LBE98:
 1503               	.LM153:
 1504 07fc 2150      		subi r18,lo8(-(-1))
 1505 07fe 3040      		sbci r19,hi8(-(-1))
 1506               	.LM154:
 1507 0800 01F4      		brne .L84
 1508               	.LBE97:
 1509               	.LBE96:
 1510               	.LM155:
 1511 0802 84E9      		ldi r24,lo8(4500)
 1512 0804 91E1      		ldi r25,hi8(4500)
 1513               	.LVL49:
 1514 0806 E0E0      		ldi r30,lo8(2816)
 1515 0808 FBE0      		ldi r31,hi8(2816)
 1516 080a 82AF      		std Z+58,r24
 1517 080c 93AF      		std Z+59,r25
 1518               	.L85:
 1519 080e 00C0      		rjmp .L85
 1520               	.LFE30:
 1521               		.size	startup, .-startup
 1522               	.global	configDelayTimer
 1523               		.type	configDelayTimer, @function
 1524               	configDelayTimer:
 1525               	.LFB29:
 1526               	.LM156:
 1527               	.LVL50:
 1528 0810 0F93      		push r16
 1529 0812 1F93      		push r17
 1530               	/* prologue: function */
 1531               	/* frame size = 0 */
 1532 0814 8C01      		movw r16,r24
 1533               	.LM157:
 1534 0816 8FEF      		ldi r24,lo8(-1)
 1535 0818 9FEF      		ldi r25,hi8(-1)
 1536               	.LVL51:
 1537 081a F801      		movw r30,r16
 1538 081c 86A3      		std Z+38,r24
 1539 081e 97A3      		std Z+39,r25
GAS LISTING /tmp/cc1O4Nc2.s 			page 28


 1540               	.LM158:
 1541 0820 C801      		movw r24,r16
 1542 0822 60E0      		ldi r22,lo8(0)
 1543 0824 0E94 0000 		call TC0_ConfigWGM
 1544               	.LM159:
 1545 0828 C801      		movw r24,r16
 1546 082a 67E0      		ldi r22,lo8(7)
 1547 082c 0E94 0000 		call TC0_ConfigClockSource
 1548               	/* epilogue start */
 1549               	.LM160:
 1550 0830 1F91      		pop r17
 1551 0832 0F91      		pop r16
 1552               	.LVL52:
 1553 0834 0895      		ret
 1554               	.LFE29:
 1555               		.size	configDelayTimer, .-configDelayTimer
 1556               	.global	__vector_72
 1557               		.type	__vector_72, @function
 1558               	__vector_72:
 1559               	.LFB28:
 1560               	.LM161:
 1561 0836 1F92      		push __zero_reg__
 1562 0838 0F92      		push r0
 1563 083a 0FB6      		in r0,__SREG__
 1564 083c 0F92      		push r0
 1565 083e 0BB6      		in r0,59-0
 1566 0840 0F92      		push r0
 1567 0842 1124      		clr __zero_reg__
 1568 0844 1F93      		push r17
 1569 0846 2F93      		push r18
 1570 0848 3F93      		push r19
 1571 084a 4F93      		push r20
 1572 084c 5F93      		push r21
 1573 084e 6F93      		push r22
 1574 0850 7F93      		push r23
 1575 0852 8F93      		push r24
 1576 0854 9F93      		push r25
 1577 0856 AF93      		push r26
 1578 0858 BF93      		push r27
 1579 085a EF93      		push r30
 1580 085c FF93      		push r31
 1581               	/* prologue: Signal */
 1582               	/* frame size = 0 */
 1583               	.LM162:
 1584 085e 11E0      		ldi r17,lo8(1)
 1585 0860 E0E0      		ldi r30,lo8(512)
 1586 0862 F2E0      		ldi r31,hi8(512)
 1587 0864 13A7      		std Z+43,r17
 1588               	.LM163:
 1589 0866 8091 2C02 		lds r24,556
 1590 086a 9091 2D02 		lds r25,(556)+1
 1591 086e 982F      		mov r25,r24
 1592               	.LVL53:
 1593               	.LM164:
 1594 0870 E091 0000 		lds r30,motor2State
 1595 0874 F0E0      		ldi r31,lo8(0)
 1596 0876 E050      		subi r30,lo8(-(stateSlope))
GAS LISTING /tmp/cc1O4Nc2.s 			page 29


 1597 0878 F040      		sbci r31,hi8(-(stateSlope))
 1598 087a 8081      		ld r24,Z
 1599 087c 8823      		tst r24
 1600 087e 01F0      		breq .L104
 1601               	.LM165:
 1602 0880 8091 0000 		lds r24,motor2Thresh
 1603 0884 8917      		cp r24,r25
 1604 0886 00F4      		brsh .L106
 1605 0888 9D3C      		cpi r25,lo8(-51)
 1606 088a 00F4      		brsh .L106
 1607               	.LM166:
 1608 088c 88B1      		in r24,8-0
 1609 088e 8823      		tst r24
 1610 0890 01F0      		breq .L110
 1611               	.L106:
 1612               	/* epilogue start */
 1613               	.LM167:
 1614 0892 FF91      		pop r31
 1615 0894 EF91      		pop r30
 1616 0896 BF91      		pop r27
 1617 0898 AF91      		pop r26
 1618 089a 9F91      		pop r25
 1619               	.LVL54:
 1620 089c 8F91      		pop r24
 1621 089e 7F91      		pop r23
 1622 08a0 6F91      		pop r22
 1623 08a2 5F91      		pop r21
 1624 08a4 4F91      		pop r20
 1625 08a6 3F91      		pop r19
 1626 08a8 2F91      		pop r18
 1627 08aa 1F91      		pop r17
 1628 08ac 0F90      		pop r0
 1629 08ae 0BBE      		out 59-0,r0
 1630 08b0 0F90      		pop r0
 1631 08b2 0FBE      		out __SREG__,r0
 1632 08b4 0F90      		pop r0
 1633 08b6 1F90      		pop __zero_reg__
 1634 08b8 1895      		reti
 1635               	.LVL55:
 1636               	.L104:
 1637               	.LM168:
 1638 08ba 8091 0000 		lds r24,motor2Thresh
 1639 08be 9817      		cp r25,r24
 1640 08c0 00F4      		brsh .L106
 1641 08c2 9333      		cpi r25,lo8(51)
 1642 08c4 00F0      		brlo .L106
 1643               	.LM169:
 1644 08c6 88B1      		in r24,8-0
 1645 08c8 8823      		tst r24
 1646 08ca 01F4      		brne .L106
 1647               	.L110:
 1648               	.LM170:
 1649 08cc 8091 6009 		lds r24,2400
 1650 08d0 9091 6109 		lds r25,(2400)+1
 1651 08d4 880F      		lsl r24
 1652 08d6 991F      		rol r25
 1653 08d8 E0E4      		ldi r30,lo8(2368)
GAS LISTING /tmp/cc1O4Nc2.s 			page 30


 1654 08da F9E0      		ldi r31,hi8(2368)
 1655 08dc 86A3      		std Z+38,r24
 1656 08de 97A3      		std Z+39,r25
 1657               	.LM171:
 1658 08e0 80E4      		ldi r24,lo8(2368)
 1659 08e2 99E0      		ldi r25,hi8(2368)
 1660 08e4 63E0      		ldi r22,lo8(3)
 1661 08e6 0E94 0000 		call TC1_SetOverflowIntLevel
 1662               	.LVL56:
 1663               	.LM172:
 1664 08ea 8091 A200 		lds r24,162
 1665 08ee 8460      		ori r24,lo8(4)
 1666 08f0 E0EA      		ldi r30,lo8(160)
 1667 08f2 F0E0      		ldi r31,hi8(160)
 1668 08f4 8283      		std Z+2,r24
 1669               	.LM173:
 1670 08f6 18B9      		out 8-0,r17
 1671 08f8 00C0      		rjmp .L106
 1672               	.LFE28:
 1673               		.size	__vector_72, .-__vector_72
 1674               	.global	__vector_83
 1675               		.type	__vector_83, @function
 1676               	__vector_83:
 1677               	.LFB24:
 1678               	.LM174:
 1679 08fa 1F92      		push __zero_reg__
 1680 08fc 0F92      		push r0
 1681 08fe 0FB6      		in r0,__SREG__
 1682 0900 0F92      		push r0
 1683 0902 0BB6      		in r0,59-0
 1684 0904 0F92      		push r0
 1685 0906 1124      		clr __zero_reg__
 1686 0908 2F93      		push r18
 1687 090a 3F93      		push r19
 1688 090c 4F93      		push r20
 1689 090e 5F93      		push r21
 1690 0910 6F93      		push r22
 1691 0912 7F93      		push r23
 1692 0914 8F93      		push r24
 1693 0916 9F93      		push r25
 1694 0918 AF93      		push r26
 1695 091a BF93      		push r27
 1696 091c EF93      		push r30
 1697 091e FF93      		push r31
 1698               	/* prologue: Signal */
 1699               	/* frame size = 0 */
 1700               	.LM175:
 1701 0920 88EE      		ldi r24,lo8(-536)
 1702 0922 9DEF      		ldi r25,hi8(-536)
 1703 0924 E0E4      		ldi r30,lo8(2368)
 1704 0926 F9E0      		ldi r31,hi8(2368)
 1705 0928 86A3      		std Z+38,r24
 1706 092a 97A3      		std Z+39,r25
 1707               	.LM176:
 1708 092c 8091 0000 		lds r24,motor2State
 1709 0930 8530      		cpi r24,lo8(5)
 1710 0932 00F0      		brlo .L115
GAS LISTING /tmp/cc1O4Nc2.s 			page 31


 1711               	.LM177:
 1712 0934 1092 0000 		sts motor2State,__zero_reg__
 1713               	.L113:
 1714               	.LM178:
 1715 0938 81E0      		ldi r24,lo8(1)
 1716 093a 87B9      		out 7-0,r24
 1717               	.LM179:
 1718 093c 18B8      		out 8-0,__zero_reg__
 1719               	.LM180:
 1720 093e 8091 0000 		lds r24,motor2State
 1721 0942 0E94 0000 		call setMotor2State
 1722               	.LM181:
 1723 0946 80E4      		ldi r24,lo8(2368)
 1724 0948 99E0      		ldi r25,hi8(2368)
 1725 094a 60E0      		ldi r22,lo8(0)
 1726 094c 0E94 0000 		call TC1_SetOverflowIntLevel
 1727               	/* epilogue start */
 1728               	.LM182:
 1729 0950 FF91      		pop r31
 1730 0952 EF91      		pop r30
 1731 0954 BF91      		pop r27
 1732 0956 AF91      		pop r26
 1733 0958 9F91      		pop r25
 1734 095a 8F91      		pop r24
 1735 095c 7F91      		pop r23
 1736 095e 6F91      		pop r22
 1737 0960 5F91      		pop r21
 1738 0962 4F91      		pop r20
 1739 0964 3F91      		pop r19
 1740 0966 2F91      		pop r18
 1741 0968 0F90      		pop r0
 1742 096a 0BBE      		out 59-0,r0
 1743 096c 0F90      		pop r0
 1744 096e 0FBE      		out __SREG__,r0
 1745 0970 0F90      		pop r0
 1746 0972 1F90      		pop __zero_reg__
 1747 0974 1895      		reti
 1748               	.L115:
 1749               	.LM183:
 1750 0976 8091 0000 		lds r24,motor2State
 1751 097a 8F5F      		subi r24,lo8(-(1))
 1752 097c 8093 0000 		sts motor2State,r24
 1753 0980 00C0      		rjmp .L113
 1754               	.LFE24:
 1755               		.size	__vector_83, .-__vector_83
 1756               	.global	initAdc
 1757               		.type	initAdc, @function
 1758               	initAdc:
 1759               	.LFB27:
 1760               	.LM184:
 1761               	.LVL57:
 1762 0982 0F93      		push r16
 1763 0984 1F93      		push r17
 1764               	/* prologue: function */
 1765               	/* frame size = 0 */
 1766 0986 8C01      		movw r16,r24
 1767               	.LM185:
GAS LISTING /tmp/cc1O4Nc2.s 			page 32


 1768 0988 0E94 0000 		call ADC_CalibrationValues_Load
 1769               	.LVL58:
 1770               	.LM186:
 1771 098c F801      		movw r30,r16
 1772 098e 8181      		ldd r24,Z+1
 1773 0990 897E      		andi r24,lo8(-23)
 1774 0992 8460      		ori r24,lo8(4)
 1775 0994 8183      		std Z+1,r24
 1776               	.LM187:
 1777 0996 8481      		ldd r24,Z+4
 1778 0998 887F      		andi r24,lo8(-8)
 1779 099a 8360      		ori r24,lo8(3)
 1780 099c 8483      		std Z+4,r24
 1781               	.LM188:
 1782 099e 8281      		ldd r24,Z+2
 1783 09a0 8F7C      		andi r24,lo8(-49)
 1784 09a2 8283      		std Z+2,r24
 1785               	.LM189:
 1786 09a4 80A1      		ldd r24,Z+32
 1787 09a6 807E      		andi r24,lo8(-32)
 1788 09a8 8160      		ori r24,lo8(1)
 1789 09aa 80A3      		std Z+32,r24
 1790               	.LM190:
 1791 09ac 80A5      		ldd r24,Z+40
 1792 09ae 807E      		andi r24,lo8(-32)
 1793 09b0 8160      		ori r24,lo8(1)
 1794 09b2 80A7      		std Z+40,r24
 1795               	.LM191:
 1796 09b4 80A9      		ldd r24,Z+48
 1797 09b6 807E      		andi r24,lo8(-32)
 1798 09b8 8160      		ori r24,lo8(1)
 1799 09ba 80AB      		std Z+48,r24
 1800               	.LM192:
 1801 09bc 80AD      		ldd r24,Z+56
 1802 09be 807E      		andi r24,lo8(-32)
 1803 09c0 8160      		ori r24,lo8(1)
 1804 09c2 80AF      		std Z+56,r24
 1805               	.LM193:
 1806 09c4 82A1      		ldd r24,Z+34
 1807 09c6 807F      		andi r24,lo8(-16)
 1808 09c8 8360      		ori r24,lo8(3)
 1809 09ca 82A3      		std Z+34,r24
 1810               	.LM194:
 1811 09cc 82A5      		ldd r24,Z+42
 1812 09ce 807F      		andi r24,lo8(-16)
 1813 09d0 8360      		ori r24,lo8(3)
 1814 09d2 82A7      		std Z+42,r24
 1815               	.LM195:
 1816 09d4 82A9      		ldd r24,Z+50
 1817 09d6 807F      		andi r24,lo8(-16)
 1818 09d8 8360      		ori r24,lo8(3)
 1819 09da 82AB      		std Z+50,r24
 1820               	.LM196:
 1821 09dc 82AD      		ldd r24,Z+58
 1822 09de 807F      		andi r24,lo8(-16)
 1823 09e0 8360      		ori r24,lo8(3)
 1824 09e2 82AF      		std Z+58,r24
GAS LISTING /tmp/cc1O4Nc2.s 			page 33


 1825               	.LM197:
 1826 09e4 E0EA      		ldi r30,lo8(160)
 1827 09e6 F0E0      		ldi r31,hi8(160)
 1828 09e8 8281      		ldd r24,Z+2
 1829 09ea 8460      		ori r24,lo8(4)
 1830 09ec 8283      		std Z+2,r24
 1831               	.LM198:
 1832 09ee F801      		movw r30,r16
 1833 09f0 8081      		ld r24,Z
 1834 09f2 8160      		ori r24,lo8(1)
 1835 09f4 8083      		st Z,r24
 1836               	.LM199:
 1837 09f6 C801      		movw r24,r16
 1838 09f8 0E94 0000 		call ADC_Wait_32MHz
 1839               	/* epilogue start */
 1840               	.LM200:
 1841 09fc 1F91      		pop r17
 1842 09fe 0F91      		pop r16
 1843               	.LVL59:
 1844 0a00 0895      		ret
 1845               	.LFE27:
 1846               		.size	initAdc, .-initAdc
 1847               	.global	configHalfPWMTimer
 1848               		.type	configHalfPWMTimer, @function
 1849               	configHalfPWMTimer:
 1850               	.LFB15:
 1851               	.LM201:
 1852               	.LVL60:
 1853 0a02 EF92      		push r14
 1854 0a04 FF92      		push r15
 1855 0a06 0F93      		push r16
 1856 0a08 1F93      		push r17
 1857               	/* prologue: function */
 1858               	/* frame size = 0 */
 1859 0a0a 8C01      		movw r16,r24
 1860 0a0c 7B01      		movw r14,r22
 1861               	.LM202:
 1862 0a0e FC01      		movw r30,r24
 1863 0a10 46A3      		std Z+38,r20
 1864 0a12 57A3      		std Z+39,r21
 1865               	.LM203:
 1866 0a14 60E0      		ldi r22,lo8(0)
 1867               	.LVL61:
 1868 0a16 0E94 0000 		call TC0_ConfigWGM
 1869               	.LVL62:
 1870               	.LM204:
 1871 0a1a C801      		movw r24,r16
 1872 0a1c 60E1      		ldi r22,lo8(16)
 1873 0a1e 0E94 0000 		call TC0_EnableCCChannels
 1874               	.LM205:
 1875 0a22 C801      		movw r24,r16
 1876 0a24 60E2      		ldi r22,lo8(32)
 1877 0a26 0E94 0000 		call TC0_EnableCCChannels
 1878               	.LM206:
 1879 0a2a C801      		movw r24,r16
 1880 0a2c 60E4      		ldi r22,lo8(64)
 1881 0a2e 0E94 0000 		call TC0_EnableCCChannels
GAS LISTING /tmp/cc1O4Nc2.s 			page 34


 1882               	.LM207:
 1883 0a32 C801      		movw r24,r16
 1884 0a34 60E8      		ldi r22,lo8(-128)
 1885 0a36 0E94 0000 		call TC0_EnableCCChannels
 1886               	.LM208:
 1887 0a3a C801      		movw r24,r16
 1888 0a3c 6CE0      		ldi r22,lo8(12)
 1889 0a3e 0E94 0000 		call TC0_SetCCBIntLevel
 1890               	.LM209:
 1891 0a42 C801      		movw r24,r16
 1892 0a44 63E0      		ldi r22,lo8(3)
 1893 0a46 0E94 0000 		call TC0_SetOverflowIntLevel
 1894               	.LM210:
 1895 0a4a E0EA      		ldi r30,lo8(160)
 1896 0a4c F0E0      		ldi r31,hi8(160)
 1897 0a4e 8281      		ldd r24,Z+2
 1898 0a50 8460      		ori r24,lo8(4)
 1899 0a52 8283      		std Z+2,r24
 1900               	.LM211:
 1901 0a54 C801      		movw r24,r16
 1902 0a56 61E0      		ldi r22,lo8(1)
 1903 0a58 0E94 0000 		call TC0_ConfigClockSource
 1904               	.LM212:
 1905 0a5c C701      		movw r24,r14
 1906 0a5e 61E0      		ldi r22,lo8(1)
 1907 0a60 0E94 0000 		call HIRES_Enable
 1908               	/* epilogue start */
 1909               	.LM213:
 1910 0a64 1F91      		pop r17
 1911 0a66 0F91      		pop r16
 1912               	.LVL63:
 1913 0a68 FF90      		pop r15
 1914 0a6a EF90      		pop r14
 1915               	.LVL64:
 1916 0a6c 0895      		ret
 1917               	.LFE15:
 1918               		.size	configHalfPWMTimer, .-configHalfPWMTimer
 1919               	.global	configPWM
 1920               		.type	configPWM, @function
 1921               	configPWM:
 1922               	.LFB9:
 1923               	.LM214:
 1924               	.LVL65:
 1925 0a6e EF92      		push r14
 1926 0a70 FF92      		push r15
 1927 0a72 0F93      		push r16
 1928 0a74 1F93      		push r17
 1929               	/* prologue: function */
 1930               	/* frame size = 0 */
 1931 0a76 8C01      		movw r16,r24
 1932 0a78 7B01      		movw r14,r22
 1933               	.LM215:
 1934 0a7a FC01      		movw r30,r24
 1935 0a7c 46A3      		std Z+38,r20
 1936 0a7e 57A3      		std Z+39,r21
 1937               	.LM216:
 1938 0a80 60E0      		ldi r22,lo8(0)
GAS LISTING /tmp/cc1O4Nc2.s 			page 35


 1939               	.LVL66:
 1940 0a82 0E94 0000 		call TC0_ConfigWGM
 1941               	.LVL67:
 1942               	.LM217:
 1943 0a86 C801      		movw r24,r16
 1944 0a88 60E1      		ldi r22,lo8(16)
 1945 0a8a 0E94 0000 		call TC0_EnableCCChannels
 1946               	.LM218:
 1947 0a8e C801      		movw r24,r16
 1948 0a90 60E2      		ldi r22,lo8(32)
 1949 0a92 0E94 0000 		call TC0_EnableCCChannels
 1950               	.LM219:
 1951 0a96 C801      		movw r24,r16
 1952 0a98 60E4      		ldi r22,lo8(64)
 1953 0a9a 0E94 0000 		call TC0_EnableCCChannels
 1954               	.LM220:
 1955 0a9e C801      		movw r24,r16
 1956 0aa0 60E8      		ldi r22,lo8(-128)
 1957 0aa2 0E94 0000 		call TC0_EnableCCChannels
 1958               	.LM221:
 1959 0aa6 C801      		movw r24,r16
 1960 0aa8 6CE0      		ldi r22,lo8(12)
 1961 0aaa 0E94 0000 		call TC0_SetCCBIntLevel
 1962               	.LM222:
 1963 0aae C801      		movw r24,r16
 1964 0ab0 63E0      		ldi r22,lo8(3)
 1965 0ab2 0E94 0000 		call TC0_SetOverflowIntLevel
 1966               	.LM223:
 1967 0ab6 E0EA      		ldi r30,lo8(160)
 1968 0ab8 F0E0      		ldi r31,hi8(160)
 1969 0aba 8281      		ldd r24,Z+2
 1970 0abc 8460      		ori r24,lo8(4)
 1971 0abe 8283      		std Z+2,r24
 1972               	.LM224:
 1973 0ac0 C801      		movw r24,r16
 1974 0ac2 61E0      		ldi r22,lo8(1)
 1975 0ac4 0E94 0000 		call TC0_ConfigClockSource
 1976               	.LM225:
 1977 0ac8 C701      		movw r24,r14
 1978 0aca 61E0      		ldi r22,lo8(1)
 1979 0acc 0E94 0000 		call HIRES_Enable
 1980               	/* epilogue start */
 1981               	.LM226:
 1982 0ad0 1F91      		pop r17
 1983 0ad2 0F91      		pop r16
 1984               	.LVL68:
 1985 0ad4 FF90      		pop r15
 1986 0ad6 EF90      		pop r14
 1987               	.LVL69:
 1988 0ad8 0895      		ret
 1989               	.LFE9:
 1990               		.size	configPWM, .-configPWM
 1991               	.global	configClock
 1992               		.type	configClock, @function
 1993               	configClock:
 1994               	.LFB8:
 1995               	.LM227:
GAS LISTING /tmp/cc1O4Nc2.s 			page 36


 1996               	/* prologue: function */
 1997               	/* frame size = 0 */
 1998               	.LM228:
 1999 0ada 8091 5000 		lds r24,80
 2000 0ade 8260      		ori r24,lo8(2)
 2001 0ae0 8093 5000 		sts 80,r24
 2002               	.L123:
 2003               	.LM229:
 2004 0ae4 8091 5100 		lds r24,81
 2005 0ae8 81FF      		sbrs r24,1
 2006 0aea 00C0      		rjmp .L123
 2007               	.LM230:
 2008 0aec 80E8      		ldi r24,lo8(-128)
 2009 0aee 60E1      		ldi r22,lo8(16)
 2010 0af0 0E94 0000 		call CLKSYS_PLL_Config
 2011               	.LM231:
 2012 0af4 8091 5000 		lds r24,80
 2013 0af8 8061      		ori r24,lo8(16)
 2014 0afa 8093 5000 		sts 80,r24
 2015               	.L124:
 2016               	.LM232:
 2017 0afe 8091 5100 		lds r24,81
 2018 0b02 84FF      		sbrs r24,4
 2019 0b04 00C0      		rjmp .L124
 2020               	.LM233:
 2021 0b06 88ED      		ldi r24,lo8(-40)
 2022 0b08 84BF      		out 52-0,r24
 2023               	.LM234:
 2024 0b0a 83E0      		ldi r24,lo8(3)
 2025 0b0c E0E4      		ldi r30,lo8(64)
 2026 0b0e F0E0      		ldi r31,hi8(64)
 2027 0b10 8183      		std Z+1,r24
 2028               	.LM235:
 2029 0b12 84E0      		ldi r24,lo8(4)
 2030 0b14 0E94 0000 		call CLKSYS_Main_ClockSource_Select
 2031               	/* epilogue start */
 2032               	.LM236:
 2033 0b18 0895      		ret
 2034               	.LFE8:
 2035               		.size	configClock, .-configClock
 2036               	.global	main
 2037               		.type	main, @function
 2038               	main:
 2039               	.LFB7:
 2040               	.LM237:
 2041 0b1a EF92      		push r14
 2042 0b1c FF92      		push r15
 2043 0b1e 0F93      		push r16
 2044 0b20 1F93      		push r17
 2045               	/* prologue: function */
 2046               	/* frame size = 0 */
 2047               	.LM238:
 2048 0b22 18B8      		out 8-0,__zero_reg__
 2049               	.LM239:
 2050 0b24 0E94 0000 		call configClock
 2051               	.LM240:
 2052 0b28 81E0      		ldi r24,lo8(1)
GAS LISTING /tmp/cc1O4Nc2.s 			page 37


 2053 0b2a 8093 4006 		sts 1600,r24
 2054               	.LM241:
 2055 0b2e 80E0      		ldi r24,lo8(debug)
 2056 0b30 90E0      		ldi r25,hi8(debug)
 2057 0b32 8093 0000 		sts __iob+2,r24
 2058 0b36 9093 0000 		sts (__iob+2)+1,r25
 2059               	.LM242:
 2060 0b3a 80E0      		ldi r24,lo8(spiSlaveC)
 2061 0b3c 90E0      		ldi r25,hi8(spiSlaveC)
 2062 0b3e 60EC      		ldi r22,lo8(2240)
 2063 0b40 78E0      		ldi r23,hi8(2240)
 2064 0b42 40E4      		ldi r20,lo8(1600)
 2065 0b44 56E0      		ldi r21,hi8(1600)
 2066 0b46 20E0      		ldi r18,lo8(0)
 2067 0b48 00E0      		ldi r16,lo8(0)
 2068 0b4a E3E0      		ldi r30,lo8(3)
 2069 0b4c EE2E      		mov r14,r30
 2070 0b4e 0E94 0000 		call SPI_SlaveInit
 2071               	.LM243:
 2072 0b52 8091 A200 		lds r24,162
 2073 0b56 8460      		ori r24,lo8(4)
 2074 0b58 E0EA      		ldi r30,lo8(160)
 2075 0b5a F0E0      		ldi r31,hi8(160)
 2076 0b5c 8283      		std Z+2,r24
 2077               	.LM244:
 2078 0b5e E12C      		mov r14,__zero_reg__
 2079 0b60 4BE0      		ldi r20,hi8(2816)
 2080 0b62 F42E      		mov r15,r20
 2081 0b64 84EF      		ldi r24,lo8(500)
 2082 0b66 91E0      		ldi r25,hi8(500)
 2083 0b68 F701      		movw r30,r14
 2084 0b6a 80AF      		std Z+56,r24
 2085 0b6c 91AF      		std Z+57,r25
 2086               	.LM245:
 2087 0b6e 82AF      		std Z+58,r24
 2088 0b70 93AF      		std Z+59,r25
 2089               	.LM246:
 2090 0b72 84AF      		std Z+60,r24
 2091 0b74 95AF      		std Z+61,r25
 2092               	.LM247:
 2093 0b76 8093 3E0B 		sts 2878,r24
 2094 0b7a 9093 3F0B 		sts (2878)+1,r25
 2095               	.LM248:
 2096 0b7e 00E0      		ldi r16,lo8(2560)
 2097 0b80 1AE0      		ldi r17,hi8(2560)
 2098 0b82 8AEF      		ldi r24,lo8(250)
 2099 0b84 90E0      		ldi r25,hi8(250)
 2100 0b86 F801      		movw r30,r16
 2101 0b88 80AF      		std Z+56,r24
 2102 0b8a 91AF      		std Z+57,r25
 2103               	.LM249:
 2104 0b8c 82AF      		std Z+58,r24
 2105 0b8e 93AF      		std Z+59,r25
 2106               	.LM250:
 2107 0b90 84AF      		std Z+60,r24
 2108 0b92 95AF      		std Z+61,r25
 2109               	.LM251:
GAS LISTING /tmp/cc1O4Nc2.s 			page 38


 2110 0b94 8093 3E0A 		sts 2622,r24
 2111 0b98 9093 3F0A 		sts (2622)+1,r25
 2112               	.LM252:
 2113 0b9c 80E0      		ldi r24,lo8(2816)
 2114 0b9e 9BE0      		ldi r25,hi8(2816)
 2115 0ba0 60E9      		ldi r22,lo8(2960)
 2116 0ba2 7BE0      		ldi r23,hi8(2960)
 2117 0ba4 48E8      		ldi r20,lo8(5000)
 2118 0ba6 53E1      		ldi r21,hi8(5000)
 2119 0ba8 0E94 0000 		call configPWM
 2120               	.LM253:
 2121 0bac 80E0      		ldi r24,lo8(2560)
 2122 0bae 9AE0      		ldi r25,hi8(2560)
 2123 0bb0 60E9      		ldi r22,lo8(2704)
 2124 0bb2 7AE0      		ldi r23,hi8(2704)
 2125 0bb4 48E8      		ldi r20,lo8(5000)
 2126 0bb6 53E1      		ldi r21,hi8(5000)
 2127 0bb8 0E94 0000 		call configHalfPWMTimer
 2128               	.LM254:
 2129 0bbc F701      		movw r30,r14
 2130 0bbe 10A2      		std Z+32,__zero_reg__
 2131 0bc0 11A2      		std Z+33,__zero_reg__
 2132               	.LM255:
 2133 0bc2 F801      		movw r30,r16
 2134 0bc4 10A2      		std Z+32,__zero_reg__
 2135 0bc6 11A2      		std Z+33,__zero_reg__
 2136               	.LM256:
 2137 0bc8 80E0      		ldi r24,lo8(2048)
 2138 0bca 98E0      		ldi r25,hi8(2048)
 2139 0bcc 0E94 0000 		call configDelayTimer
 2140               	.LM257:
 2141 0bd0 80E0      		ldi r24,lo8(512)
 2142 0bd2 92E0      		ldi r25,hi8(512)
 2143 0bd4 0E94 0000 		call initAdc
 2144               	.LM258:
 2145 0bd8 80E4      		ldi r24,lo8(576)
 2146 0bda 92E0      		ldi r25,hi8(576)
 2147 0bdc 0E94 0000 		call initAdc
 2148               	.LM259:
 2149 0be0 E091 0000 		lds r30,spiSlaveC
 2150 0be4 F091 0000 		lds r31,(spiSlaveC)+1
 2151 0be8 81E0      		ldi r24,lo8(1)
 2152               	.L129:
 2153 0bea 8383      		std Z+3,r24
 2154 0bec 8383      		std Z+3,r24
 2155 0bee 00C0      		rjmp .L129
 2156               	.LFE7:
 2157               		.size	main, .-main
 2158               	.global	motor1State
 2159               	.global	motor1State
 2160               		.section .bss
 2161               		.type	motor1State, @object
 2162               		.size	motor1State, 1
 2163               	motor1State:
 2164 0000 00        		.skip 1,0
 2165               	.global	motor2State
 2166               	.global	motor2State
GAS LISTING /tmp/cc1O4Nc2.s 			page 39


 2167               		.type	motor2State, @object
 2168               		.size	motor2State, 1
 2169               	motor2State:
 2170 0001 00        		.skip 1,0
 2171               	.global	motor3State
 2172               	.global	motor3State
 2173               		.type	motor3State, @object
 2174               		.size	motor3State, 1
 2175               	motor3State:
 2176 0002 00        		.skip 1,0
 2177               	.global	motor4State
 2178               	.global	motor4State
 2179               		.type	motor4State, @object
 2180               		.size	motor4State, 1
 2181               	motor4State:
 2182 0003 00        		.skip 1,0
 2183               	.global	stateSlope
 2184               		.data
 2185               		.type	stateSlope, @object
 2186               		.size	stateSlope, 6
 2187               	stateSlope:
 2188 0000 00        		.byte	0
 2189 0001 01        		.byte	1
 2190 0002 00        		.byte	0
 2191 0003 01        		.byte	1
 2192 0004 00        		.byte	0
 2193 0005 01        		.byte	1
 2194               	.global	motor2StateSenseIndex
 2195               		.type	motor2StateSenseIndex, @object
 2196               		.size	motor2StateSenseIndex, 6
 2197               	motor2StateSenseIndex:
 2198 0006 05        		.byte	5
 2199 0007 04        		.byte	4
 2200 0008 03        		.byte	3
 2201 0009 05        		.byte	5
 2202 000a 04        		.byte	4
 2203 000b 03        		.byte	3
 2204               	.global	motor1Thresh
 2205               	.global	motor1Thresh
 2206               		.section .bss
 2207               		.type	motor1Thresh, @object
 2208               		.size	motor1Thresh, 1
 2209               	motor1Thresh:
 2210 0004 00        		.skip 1,0
 2211               	.global	motor2Thresh
 2212               		.data
 2213               		.type	motor2Thresh, @object
 2214               		.size	motor2Thresh, 1
 2215               	motor2Thresh:
 2216 000c 58        		.byte	88
 2217               	.global	motor3Thresh
 2218               	.global	motor3Thresh
 2219               		.section .bss
 2220               		.type	motor3Thresh, @object
 2221               		.size	motor3Thresh, 1
 2222               	motor3Thresh:
 2223 0005 00        		.skip 1,0
GAS LISTING /tmp/cc1O4Nc2.s 			page 40


 2224               	.global	motor4Thresh
 2225               	.global	motor4Thresh
 2226               		.type	motor4Thresh, @object
 2227               		.size	motor4Thresh, 1
 2228               	motor4Thresh:
 2229 0006 00        		.skip 1,0
 2230               	.global	autoCommutationFlag
 2231               	.global	autoCommutationFlag
 2232               		.type	autoCommutationFlag, @object
 2233               		.size	autoCommutationFlag, 1
 2234               	autoCommutationFlag:
 2235 0007 00        		.skip 1,0
 2236               	.global	spiSlaveC
 2237               	.global	spiSlaveC
 2238               		.type	spiSlaveC, @object
 2239               		.size	spiSlaveC, 4
 2240               	spiSlaveC:
 2241 0008 0000 0000 		.skip 4,0
 2242               	.global	spiRxBuffHead
 2243               	.global	spiRxBuffHead
 2244               		.type	spiRxBuffHead, @object
 2245               		.size	spiRxBuffHead, 1
 2246               	spiRxBuffHead:
 2247 000c 00        		.skip 1,0
 2248               	.global	startupPwms
 2249               		.data
 2250               		.type	startupPwms, @object
 2251               		.size	startupPwms, 12
 2252               	startupPwms:
 2253 000d 2003      		.word	800
 2254 000f 2003      		.word	800
 2255 0011 8403      		.word	900
 2256 0013 8403      		.word	900
 2257 0015 B004      		.word	1200
 2258 0017 B004      		.word	1200
 2259               	.global	startupDelays
 2260               		.type	startupDelays, @object
 2261               		.size	startupDelays, 6
 2262               	startupDelays:
 2263 0019 FA        		.byte	-6
 2264 001a 96        		.byte	-106
 2265 001b 69        		.byte	105
 2266 001c 50        		.byte	80
 2267 001d 4B        		.byte	75
 2268 001e 41        		.byte	65
 2269               		.type	debug, @object
 2270               		.size	debug, 14
 2271               	debug:
 2272 001f 0000 00   		.skip 3,0
 2273 0022 02        		.byte	2
 2274 0023 0000 0000 		.skip 4,0
 2275 0027 0000      		.word	gs(putcharDebug)
 2276 0029 0000      		.word	0
 2277 002b 0000      		.word	0
 2278               		.comm spiRxBuff,20,1
 2279               		.section	.debug_frame,"",@progbits
 2280               	.Lframe0:
GAS LISTING /tmp/cc1O4Nc2.s 			page 41


 2281 0000 0C00 0000 		.long	.LECIE0-.LSCIE0
 2282               	.LSCIE0:
 2283 0004 FFFF FFFF 		.long	0xffffffff
 2284 0008 01        		.byte	0x1
 2285 0009 00        		.string	""
 2286 000a 01        		.uleb128 0x1
 2287 000b 7F        		.sleb128 -1
 2288 000c 24        		.byte	0x24
 2289 000d 0C        		.byte	0xc
 2290 000e 20        		.uleb128 0x20
 2291 000f 00        		.uleb128 0x0
 2292               		.p2align	2
 2293               	.LECIE0:
 2294               	.LSFDE0:
 2295 0010 0C00 0000 		.long	.LEFDE0-.LASFDE0
 2296               	.LASFDE0:
 2297 0014 0000 0000 		.long	.Lframe0
 2298 0018 0000 0000 		.long	.LFB10
 2299 001c 3800 0000 		.long	.LFE10-.LFB10
 2300               		.p2align	2
 2301               	.LEFDE0:
 2302               	.LSFDE2:
 2303 0020 0C00 0000 		.long	.LEFDE2-.LASFDE2
 2304               	.LASFDE2:
 2305 0024 0000 0000 		.long	.Lframe0
 2306 0028 0000 0000 		.long	.LFB11
 2307 002c 4800 0000 		.long	.LFE11-.LFB11
 2308               		.p2align	2
 2309               	.LEFDE2:
 2310               	.LSFDE4:
 2311 0030 0C00 0000 		.long	.LEFDE4-.LASFDE4
 2312               	.LASFDE4:
 2313 0034 0000 0000 		.long	.Lframe0
 2314 0038 0000 0000 		.long	.LFB12
 2315 003c 4800 0000 		.long	.LFE12-.LFB12
 2316               		.p2align	2
 2317               	.LEFDE4:
 2318               	.LSFDE6:
 2319 0040 0C00 0000 		.long	.LEFDE6-.LASFDE6
 2320               	.LASFDE6:
 2321 0044 0000 0000 		.long	.Lframe0
 2322 0048 0000 0000 		.long	.LFB13
 2323 004c 3800 0000 		.long	.LFE13-.LFB13
 2324               		.p2align	2
 2325               	.LEFDE6:
 2326               	.LSFDE8:
 2327 0050 0C00 0000 		.long	.LEFDE8-.LASFDE8
 2328               	.LASFDE8:
 2329 0054 0000 0000 		.long	.Lframe0
 2330 0058 0000 0000 		.long	.LFB14
 2331 005c 4C00 0000 		.long	.LFE14-.LFB14
 2332               		.p2align	2
 2333               	.LEFDE8:
 2334               	.LSFDE10:
 2335 0060 0C00 0000 		.long	.LEFDE10-.LASFDE10
 2336               	.LASFDE10:
 2337 0064 0000 0000 		.long	.Lframe0
GAS LISTING /tmp/cc1O4Nc2.s 			page 42


 2338 0068 0000 0000 		.long	.LFB16
 2339 006c 1400 0000 		.long	.LFE16-.LFB16
 2340               		.p2align	2
 2341               	.LEFDE10:
 2342               	.LSFDE12:
 2343 0070 0C00 0000 		.long	.LEFDE12-.LASFDE12
 2344               	.LASFDE12:
 2345 0074 0000 0000 		.long	.Lframe0
 2346 0078 0000 0000 		.long	.LFB17
 2347 007c 5000 0000 		.long	.LFE17-.LFB17
 2348               		.p2align	2
 2349               	.LEFDE12:
 2350               	.LSFDE14:
 2351 0080 0C00 0000 		.long	.LEFDE14-.LASFDE14
 2352               	.LASFDE14:
 2353 0084 0000 0000 		.long	.Lframe0
 2354 0088 0000 0000 		.long	.LFB18
 2355 008c 1400 0000 		.long	.LFE18-.LFB18
 2356               		.p2align	2
 2357               	.LEFDE14:
 2358               	.LSFDE16:
 2359 0090 0C00 0000 		.long	.LEFDE16-.LASFDE16
 2360               	.LASFDE16:
 2361 0094 0000 0000 		.long	.Lframe0
 2362 0098 0000 0000 		.long	.LFB19
 2363 009c 1400 0000 		.long	.LFE19-.LFB19
 2364               		.p2align	2
 2365               	.LEFDE16:
 2366               	.LSFDE18:
 2367 00a0 0C00 0000 		.long	.LEFDE18-.LASFDE18
 2368               	.LASFDE18:
 2369 00a4 0000 0000 		.long	.Lframe0
 2370 00a8 0000 0000 		.long	.LFB20
 2371 00ac 1400 0000 		.long	.LFE20-.LFB20
 2372               		.p2align	2
 2373               	.LEFDE18:
 2374               	.LSFDE20:
 2375 00b0 0C00 0000 		.long	.LEFDE20-.LASFDE20
 2376               	.LASFDE20:
 2377 00b4 0000 0000 		.long	.Lframe0
 2378 00b8 0000 0000 		.long	.LFB21
 2379 00bc 0200 0000 		.long	.LFE21-.LFB21
 2380               		.p2align	2
 2381               	.LEFDE20:
 2382               	.LSFDE22:
 2383 00c0 0C00 0000 		.long	.LEFDE22-.LASFDE22
 2384               	.LASFDE22:
 2385 00c4 0000 0000 		.long	.Lframe0
 2386 00c8 0000 0000 		.long	.LFB22
 2387 00cc 0200 0000 		.long	.LFE22-.LFB22
 2388               		.p2align	2
 2389               	.LEFDE22:
 2390               	.LSFDE24:
 2391 00d0 0C00 0000 		.long	.LEFDE24-.LASFDE24
 2392               	.LASFDE24:
 2393 00d4 0000 0000 		.long	.Lframe0
 2394 00d8 0000 0000 		.long	.LFB23
GAS LISTING /tmp/cc1O4Nc2.s 			page 43


 2395 00dc 1400 0000 		.long	.LFE23-.LFB23
 2396               		.p2align	2
 2397               	.LEFDE24:
 2398               	.LSFDE26:
 2399 00e0 0C00 0000 		.long	.LEFDE26-.LASFDE26
 2400               	.LASFDE26:
 2401 00e4 0000 0000 		.long	.Lframe0
 2402 00e8 0000 0000 		.long	.LFB25
 2403 00ec 1400 0000 		.long	.LFE25-.LFB25
 2404               		.p2align	2
 2405               	.LEFDE26:
 2406               	.LSFDE28:
 2407 00f0 0C00 0000 		.long	.LEFDE28-.LASFDE28
 2408               	.LASFDE28:
 2409 00f4 0000 0000 		.long	.Lframe0
 2410 00f8 0000 0000 		.long	.LFB26
 2411 00fc 1400 0000 		.long	.LFE26-.LFB26
 2412               		.p2align	2
 2413               	.LEFDE28:
 2414               	.LSFDE30:
 2415 0100 0C00 0000 		.long	.LEFDE30-.LASFDE30
 2416               	.LASFDE30:
 2417 0104 0000 0000 		.long	.Lframe0
 2418 0108 0000 0000 		.long	.LFB31
 2419 010c 0200 0000 		.long	.LFE31-.LFB31
 2420               		.p2align	2
 2421               	.LEFDE30:
 2422               	.LSFDE32:
 2423 0110 0C00 0000 		.long	.LEFDE32-.LASFDE32
 2424               	.LASFDE32:
 2425 0114 0000 0000 		.long	.Lframe0
 2426 0118 0000 0000 		.long	.LFB32
 2427 011c 6C01 0000 		.long	.LFE32-.LFB32
 2428               		.p2align	2
 2429               	.LEFDE32:
 2430               	.LSFDE34:
 2431 0120 0C00 0000 		.long	.LEFDE34-.LASFDE34
 2432               	.LASFDE34:
 2433 0124 0000 0000 		.long	.Lframe0
 2434 0128 0000 0000 		.long	.LFB33
 2435 012c 0200 0000 		.long	.LFE33-.LFB33
 2436               		.p2align	2
 2437               	.LEFDE34:
 2438               	.LSFDE36:
 2439 0130 0C00 0000 		.long	.LEFDE36-.LASFDE36
 2440               	.LASFDE36:
 2441 0134 0000 0000 		.long	.Lframe0
 2442 0138 0000 0000 		.long	.LFB34
 2443 013c 0200 0000 		.long	.LFE34-.LFB34
 2444               		.p2align	2
 2445               	.LEFDE36:
 2446               	.LSFDE38:
 2447 0140 0C00 0000 		.long	.LEFDE38-.LASFDE38
 2448               	.LASFDE38:
 2449 0144 0000 0000 		.long	.Lframe0
 2450 0148 0000 0000 		.long	.LFB35
 2451 014c 2400 0000 		.long	.LFE35-.LFB35
GAS LISTING /tmp/cc1O4Nc2.s 			page 44


 2452               		.p2align	2
 2453               	.LEFDE38:
 2454               	.LSFDE40:
 2455 0150 0C00 0000 		.long	.LEFDE40-.LASFDE40
 2456               	.LASFDE40:
 2457 0154 0000 0000 		.long	.Lframe0
 2458 0158 0000 0000 		.long	.LFB37
 2459 015c 4400 0000 		.long	.LFE37-.LFB37
 2460               		.p2align	2
 2461               	.LEFDE40:
 2462               	.LSFDE42:
 2463 0160 0C00 0000 		.long	.LEFDE42-.LASFDE42
 2464               	.LASFDE42:
 2465 0164 0000 0000 		.long	.Lframe0
 2466 0168 0000 0000 		.long	.LFB38
 2467 016c 5400 0000 		.long	.LFE38-.LFB38
 2468               		.p2align	2
 2469               	.LEFDE42:
 2470               	.LSFDE44:
 2471 0170 0C00 0000 		.long	.LEFDE44-.LASFDE44
 2472               	.LASFDE44:
 2473 0174 0000 0000 		.long	.Lframe0
 2474 0178 0000 0000 		.long	.LFB30
 2475 017c B603 0000 		.long	.LFE30-.LFB30
 2476               		.p2align	2
 2477               	.LEFDE44:
 2478               	.LSFDE46:
 2479 0180 0C00 0000 		.long	.LEFDE46-.LASFDE46
 2480               	.LASFDE46:
 2481 0184 0000 0000 		.long	.Lframe0
 2482 0188 0000 0000 		.long	.LFB29
 2483 018c 2600 0000 		.long	.LFE29-.LFB29
 2484               		.p2align	2
 2485               	.LEFDE46:
 2486               	.LSFDE48:
 2487 0190 0C00 0000 		.long	.LEFDE48-.LASFDE48
 2488               	.LASFDE48:
 2489 0194 0000 0000 		.long	.Lframe0
 2490 0198 0000 0000 		.long	.LFB28
 2491 019c C400 0000 		.long	.LFE28-.LFB28
 2492               		.p2align	2
 2493               	.LEFDE48:
 2494               	.LSFDE50:
 2495 01a0 0C00 0000 		.long	.LEFDE50-.LASFDE50
 2496               	.LASFDE50:
 2497 01a4 0000 0000 		.long	.Lframe0
 2498 01a8 0000 0000 		.long	.LFB24
 2499 01ac 8800 0000 		.long	.LFE24-.LFB24
 2500               		.p2align	2
 2501               	.LEFDE50:
 2502               	.LSFDE52:
 2503 01b0 0C00 0000 		.long	.LEFDE52-.LASFDE52
 2504               	.LASFDE52:
 2505 01b4 0000 0000 		.long	.Lframe0
 2506 01b8 0000 0000 		.long	.LFB27
 2507 01bc 8000 0000 		.long	.LFE27-.LFB27
 2508               		.p2align	2
GAS LISTING /tmp/cc1O4Nc2.s 			page 45


 2509               	.LEFDE52:
 2510               	.LSFDE54:
 2511 01c0 0C00 0000 		.long	.LEFDE54-.LASFDE54
 2512               	.LASFDE54:
 2513 01c4 0000 0000 		.long	.Lframe0
 2514 01c8 0000 0000 		.long	.LFB15
 2515 01cc 6C00 0000 		.long	.LFE15-.LFB15
 2516               		.p2align	2
 2517               	.LEFDE54:
 2518               	.LSFDE56:
 2519 01d0 0C00 0000 		.long	.LEFDE56-.LASFDE56
 2520               	.LASFDE56:
 2521 01d4 0000 0000 		.long	.Lframe0
 2522 01d8 0000 0000 		.long	.LFB9
 2523 01dc 6C00 0000 		.long	.LFE9-.LFB9
 2524               		.p2align	2
 2525               	.LEFDE56:
 2526               	.LSFDE58:
 2527 01e0 0C00 0000 		.long	.LEFDE58-.LASFDE58
 2528               	.LASFDE58:
 2529 01e4 0000 0000 		.long	.Lframe0
 2530 01e8 0000 0000 		.long	.LFB8
 2531 01ec 4000 0000 		.long	.LFE8-.LFB8
 2532               		.p2align	2
 2533               	.LEFDE58:
 2534               	.LSFDE60:
 2535 01f0 0C00 0000 		.long	.LEFDE60-.LASFDE60
 2536               	.LASFDE60:
 2537 01f4 0000 0000 		.long	.Lframe0
 2538 01f8 0000 0000 		.long	.LFB7
 2539 01fc D600 0000 		.long	.LFE7-.LFB7
 2540               		.p2align	2
 2541               	.LEFDE60:
 2542               		.text
 2543               	.Letext0:
 2544               		.section	.debug_loc,"",@progbits
 2545               	.Ldebug_loc0:
 2546               	.LLST17:
 2547 0000 2E02 0000 		.long	.LVL3-.Ltext0
 2548 0004 5802 0000 		.long	.LVL4-.Ltext0
 2549 0008 0100      		.word	0x1
 2550 000a 68        		.byte	0x68
 2551 000b 7802 0000 		.long	.LVL5-.Ltext0
 2552 000f 8202 0000 		.long	.LVL6-.Ltext0
 2553 0013 0100      		.word	0x1
 2554 0015 68        		.byte	0x68
 2555 0016 A202 0000 		.long	.LVL7-.Ltext0
 2556 001a A402 0000 		.long	.LVL8-.Ltext0
 2557 001e 0100      		.word	0x1
 2558 0020 68        		.byte	0x68
 2559 0021 E002 0000 		.long	.LVL9-.Ltext0
 2560 0025 E202 0000 		.long	.LVL10-.Ltext0
 2561 0029 0100      		.word	0x1
 2562 002b 68        		.byte	0x68
 2563 002c 1E03 0000 		.long	.LVL11-.Ltext0
 2564 0030 2003 0000 		.long	.LVL12-.Ltext0
 2565 0034 0100      		.word	0x1
GAS LISTING /tmp/cc1O4Nc2.s 			page 46


 2566 0036 68        		.byte	0x68
 2567 0037 5C03 0000 		.long	.LVL13-.Ltext0
 2568 003b 5E03 0000 		.long	.LVL14-.Ltext0
 2569 003f 0100      		.word	0x1
 2570 0041 68        		.byte	0x68
 2571 0042 0000 0000 		.long	0x0
 2572 0046 0000 0000 		.long	0x0
 2573               	.LLST21:
 2574 004a 9E03 0000 		.long	.LVL17-.Ltext0
 2575 004e A603 0000 		.long	.LVL18-.Ltext0
 2576 0052 0100      		.word	0x1
 2577 0054 68        		.byte	0x68
 2578 0055 A603 0000 		.long	.LVL18-.Ltext0
 2579 0059 B803 0000 		.long	.LVL19-.Ltext0
 2580 005d 0100      		.word	0x1
 2581 005f 61        		.byte	0x61
 2582 0060 BA03 0000 		.long	.LVL20-.Ltext0
 2583 0064 BC03 0000 		.long	.LVL21-.Ltext0
 2584 0068 0100      		.word	0x1
 2585 006a 68        		.byte	0x68
 2586 006b BC03 0000 		.long	.LVL21-.Ltext0
 2587 006f C203 0000 		.long	.LFE35-.Ltext0
 2588 0073 0100      		.word	0x1
 2589 0075 61        		.byte	0x61
 2590 0076 0000 0000 		.long	0x0
 2591 007a 0000 0000 		.long	0x0
 2592               	.LLST22:
 2593 007e 9E03 0000 		.long	.LVL17-.Ltext0
 2594 0082 C003 0000 		.long	.LVL22-.Ltext0
 2595 0086 0600      		.word	0x6
 2596 0088 66        		.byte	0x66
 2597 0089 93        		.byte	0x93
 2598 008a 01        		.uleb128 0x1
 2599 008b 67        		.byte	0x67
 2600 008c 93        		.byte	0x93
 2601 008d 01        		.uleb128 0x1
 2602 008e 0000 0000 		.long	0x0
 2603 0092 0000 0000 		.long	0x0
 2604               	.LLST25:
 2605 0096 2A04 0000 		.long	.LVL25-.Ltext0
 2606 009a 4004 0000 		.long	.LVL27-.Ltext0
 2607 009e 0600      		.word	0x6
 2608 00a0 62        		.byte	0x62
 2609 00a1 93        		.byte	0x93
 2610 00a2 01        		.uleb128 0x1
 2611 00a3 63        		.byte	0x63
 2612 00a4 93        		.byte	0x93
 2613 00a5 01        		.uleb128 0x1
 2614 00a6 0000 0000 		.long	0x0
 2615 00aa 0000 0000 		.long	0x0
 2616               	.LLST26:
 2617 00ae 2A04 0000 		.long	.LVL25-.Ltext0
 2618 00b2 4204 0000 		.long	.LVL28-.Ltext0
 2619 00b6 0600      		.word	0x6
 2620 00b8 6E        		.byte	0x6e
 2621 00b9 93        		.byte	0x93
 2622 00ba 01        		.uleb128 0x1
GAS LISTING /tmp/cc1O4Nc2.s 			page 47


 2623 00bb 6F        		.byte	0x6f
 2624 00bc 93        		.byte	0x93
 2625 00bd 01        		.uleb128 0x1
 2626 00be 0000 0000 		.long	0x0
 2627 00c2 0000 0000 		.long	0x0
 2628               	.LLST27:
 2629 00c6 2004 0000 		.long	.LVL24-.Ltext0
 2630 00ca 2A04 0000 		.long	.LVL25-.Ltext0
 2631 00ce 0600      		.word	0x6
 2632 00d0 62        		.byte	0x62
 2633 00d1 93        		.byte	0x93
 2634 00d2 01        		.uleb128 0x1
 2635 00d3 63        		.byte	0x63
 2636 00d4 93        		.byte	0x93
 2637 00d5 01        		.uleb128 0x1
 2638 00d6 4004 0000 		.long	.LVL27-.Ltext0
 2639 00da 5A04 0000 		.long	.LFE38-.Ltext0
 2640 00de 0600      		.word	0x6
 2641 00e0 62        		.byte	0x62
 2642 00e1 93        		.byte	0x93
 2643 00e2 01        		.uleb128 0x1
 2644 00e3 63        		.byte	0x63
 2645 00e4 93        		.byte	0x93
 2646 00e5 01        		.uleb128 0x1
 2647 00e6 0000 0000 		.long	0x0
 2648 00ea 0000 0000 		.long	0x0
 2649               	.LLST28:
 2650 00ee 2004 0000 		.long	.LVL24-.Ltext0
 2651 00f2 2C04 0000 		.long	.LVL26-.Ltext0
 2652 00f6 0600      		.word	0x6
 2653 00f8 6E        		.byte	0x6e
 2654 00f9 93        		.byte	0x93
 2655 00fa 01        		.uleb128 0x1
 2656 00fb 6F        		.byte	0x6f
 2657 00fc 93        		.byte	0x93
 2658 00fd 01        		.uleb128 0x1
 2659 00fe 4204 0000 		.long	.LVL28-.Ltext0
 2660 0102 5A04 0000 		.long	.LFE38-.Ltext0
 2661 0106 0600      		.word	0x6
 2662 0108 6E        		.byte	0x6e
 2663 0109 93        		.byte	0x93
 2664 010a 01        		.uleb128 0x1
 2665 010b 6F        		.byte	0x6f
 2666 010c 93        		.byte	0x93
 2667 010d 01        		.uleb128 0x1
 2668 010e 0000 0000 		.long	0x0
 2669 0112 0000 0000 		.long	0x0
 2670               	.LLST30:
 2671 0116 3207 0000 		.long	.LVL29-.Ltext0
 2672 011a 5207 0000 		.long	.LVL32-.Ltext0
 2673 011e 0600      		.word	0x6
 2674 0120 62        		.byte	0x62
 2675 0121 93        		.byte	0x93
 2676 0122 01        		.uleb128 0x1
 2677 0123 63        		.byte	0x63
 2678 0124 93        		.byte	0x93
 2679 0125 01        		.uleb128 0x1
GAS LISTING /tmp/cc1O4Nc2.s 			page 48


 2680 0126 0000 0000 		.long	0x0
 2681 012a 0000 0000 		.long	0x0
 2682               	.LLST31:
 2683 012e 3807 0000 		.long	.LVL30-.Ltext0
 2684 0132 4607 0000 		.long	.LVL31-.Ltext0
 2685 0136 0600      		.word	0x6
 2686 0138 68        		.byte	0x68
 2687 0139 93        		.byte	0x93
 2688 013a 01        		.uleb128 0x1
 2689 013b 69        		.byte	0x69
 2690 013c 93        		.byte	0x93
 2691 013d 01        		.uleb128 0x1
 2692 013e 0000 0000 		.long	0x0
 2693 0142 0000 0000 		.long	0x0
 2694               	.LLST32:
 2695 0146 5207 0000 		.long	.LVL32-.Ltext0
 2696 014a 7207 0000 		.long	.LVL35-.Ltext0
 2697 014e 0600      		.word	0x6
 2698 0150 62        		.byte	0x62
 2699 0151 93        		.byte	0x93
 2700 0152 01        		.uleb128 0x1
 2701 0153 63        		.byte	0x63
 2702 0154 93        		.byte	0x93
 2703 0155 01        		.uleb128 0x1
 2704 0156 0000 0000 		.long	0x0
 2705 015a 0000 0000 		.long	0x0
 2706               	.LLST33:
 2707 015e 5807 0000 		.long	.LVL33-.Ltext0
 2708 0162 6607 0000 		.long	.LVL34-.Ltext0
 2709 0166 0600      		.word	0x6
 2710 0168 68        		.byte	0x68
 2711 0169 93        		.byte	0x93
 2712 016a 01        		.uleb128 0x1
 2713 016b 69        		.byte	0x69
 2714 016c 93        		.byte	0x93
 2715 016d 01        		.uleb128 0x1
 2716 016e 0000 0000 		.long	0x0
 2717 0172 0000 0000 		.long	0x0
 2718               	.LLST34:
 2719 0176 7207 0000 		.long	.LVL35-.Ltext0
 2720 017a 9207 0000 		.long	.LVL38-.Ltext0
 2721 017e 0600      		.word	0x6
 2722 0180 62        		.byte	0x62
 2723 0181 93        		.byte	0x93
 2724 0182 01        		.uleb128 0x1
 2725 0183 63        		.byte	0x63
 2726 0184 93        		.byte	0x93
 2727 0185 01        		.uleb128 0x1
 2728 0186 0000 0000 		.long	0x0
 2729 018a 0000 0000 		.long	0x0
 2730               	.LLST35:
 2731 018e 7807 0000 		.long	.LVL36-.Ltext0
 2732 0192 8607 0000 		.long	.LVL37-.Ltext0
 2733 0196 0600      		.word	0x6
 2734 0198 68        		.byte	0x68
 2735 0199 93        		.byte	0x93
 2736 019a 01        		.uleb128 0x1
GAS LISTING /tmp/cc1O4Nc2.s 			page 49


 2737 019b 69        		.byte	0x69
 2738 019c 93        		.byte	0x93
 2739 019d 01        		.uleb128 0x1
 2740 019e 0000 0000 		.long	0x0
 2741 01a2 0000 0000 		.long	0x0
 2742               	.LLST36:
 2743 01a6 9207 0000 		.long	.LVL38-.Ltext0
 2744 01aa B207 0000 		.long	.LVL41-.Ltext0
 2745 01ae 0600      		.word	0x6
 2746 01b0 62        		.byte	0x62
 2747 01b1 93        		.byte	0x93
 2748 01b2 01        		.uleb128 0x1
 2749 01b3 63        		.byte	0x63
 2750 01b4 93        		.byte	0x93
 2751 01b5 01        		.uleb128 0x1
 2752 01b6 0000 0000 		.long	0x0
 2753 01ba 0000 0000 		.long	0x0
 2754               	.LLST37:
 2755 01be 9807 0000 		.long	.LVL39-.Ltext0
 2756 01c2 A607 0000 		.long	.LVL40-.Ltext0
 2757 01c6 0600      		.word	0x6
 2758 01c8 68        		.byte	0x68
 2759 01c9 93        		.byte	0x93
 2760 01ca 01        		.uleb128 0x1
 2761 01cb 69        		.byte	0x69
 2762 01cc 93        		.byte	0x93
 2763 01cd 01        		.uleb128 0x1
 2764 01ce 0000 0000 		.long	0x0
 2765 01d2 0000 0000 		.long	0x0
 2766               	.LLST38:
 2767 01d6 B207 0000 		.long	.LVL41-.Ltext0
 2768 01da D207 0000 		.long	.LVL44-.Ltext0
 2769 01de 0600      		.word	0x6
 2770 01e0 62        		.byte	0x62
 2771 01e1 93        		.byte	0x93
 2772 01e2 01        		.uleb128 0x1
 2773 01e3 63        		.byte	0x63
 2774 01e4 93        		.byte	0x93
 2775 01e5 01        		.uleb128 0x1
 2776 01e6 0000 0000 		.long	0x0
 2777 01ea 0000 0000 		.long	0x0
 2778               	.LLST39:
 2779 01ee B807 0000 		.long	.LVL42-.Ltext0
 2780 01f2 C607 0000 		.long	.LVL43-.Ltext0
 2781 01f6 0600      		.word	0x6
 2782 01f8 68        		.byte	0x68
 2783 01f9 93        		.byte	0x93
 2784 01fa 01        		.uleb128 0x1
 2785 01fb 69        		.byte	0x69
 2786 01fc 93        		.byte	0x93
 2787 01fd 01        		.uleb128 0x1
 2788 01fe 0000 0000 		.long	0x0
 2789 0202 0000 0000 		.long	0x0
 2790               	.LLST40:
 2791 0206 D207 0000 		.long	.LVL44-.Ltext0
 2792 020a F207 0000 		.long	.LVL47-.Ltext0
 2793 020e 0600      		.word	0x6
GAS LISTING /tmp/cc1O4Nc2.s 			page 50


 2794 0210 62        		.byte	0x62
 2795 0211 93        		.byte	0x93
 2796 0212 01        		.uleb128 0x1
 2797 0213 63        		.byte	0x63
 2798 0214 93        		.byte	0x93
 2799 0215 01        		.uleb128 0x1
 2800 0216 0000 0000 		.long	0x0
 2801 021a 0000 0000 		.long	0x0
 2802               	.LLST41:
 2803 021e D807 0000 		.long	.LVL45-.Ltext0
 2804 0222 E607 0000 		.long	.LVL46-.Ltext0
 2805 0226 0600      		.word	0x6
 2806 0228 68        		.byte	0x68
 2807 0229 93        		.byte	0x93
 2808 022a 01        		.uleb128 0x1
 2809 022b 69        		.byte	0x69
 2810 022c 93        		.byte	0x93
 2811 022d 01        		.uleb128 0x1
 2812 022e 0000 0000 		.long	0x0
 2813 0232 0000 0000 		.long	0x0
 2814               	.LLST42:
 2815 0236 F807 0000 		.long	.LVL48-.Ltext0
 2816 023a 0608 0000 		.long	.LVL49-.Ltext0
 2817 023e 0600      		.word	0x6
 2818 0240 68        		.byte	0x68
 2819 0241 93        		.byte	0x93
 2820 0242 01        		.uleb128 0x1
 2821 0243 69        		.byte	0x69
 2822 0244 93        		.byte	0x93
 2823 0245 01        		.uleb128 0x1
 2824 0246 0000 0000 		.long	0x0
 2825 024a 0000 0000 		.long	0x0
 2826               	.LLST44:
 2827 024e 1008 0000 		.long	.LVL50-.Ltext0
 2828 0252 1A08 0000 		.long	.LVL51-.Ltext0
 2829 0256 0600      		.word	0x6
 2830 0258 68        		.byte	0x68
 2831 0259 93        		.byte	0x93
 2832 025a 01        		.uleb128 0x1
 2833 025b 69        		.byte	0x69
 2834 025c 93        		.byte	0x93
 2835 025d 01        		.uleb128 0x1
 2836 025e 1A08 0000 		.long	.LVL51-.Ltext0
 2837 0262 3408 0000 		.long	.LVL52-.Ltext0
 2838 0266 0600      		.word	0x6
 2839 0268 60        		.byte	0x60
 2840 0269 93        		.byte	0x93
 2841 026a 01        		.uleb128 0x1
 2842 026b 61        		.byte	0x61
 2843 026c 93        		.byte	0x93
 2844 026d 01        		.uleb128 0x1
 2845 026e 0000 0000 		.long	0x0
 2846 0272 0000 0000 		.long	0x0
 2847               	.LLST46:
 2848 0276 7008 0000 		.long	.LVL53-.Ltext0
 2849 027a 9C08 0000 		.long	.LVL54-.Ltext0
 2850 027e 0100      		.word	0x1
GAS LISTING /tmp/cc1O4Nc2.s 			page 51


 2851 0280 69        		.byte	0x69
 2852 0281 BA08 0000 		.long	.LVL55-.Ltext0
 2853 0285 EA08 0000 		.long	.LVL56-.Ltext0
 2854 0289 0100      		.word	0x1
 2855 028b 69        		.byte	0x69
 2856 028c 0000 0000 		.long	0x0
 2857 0290 0000 0000 		.long	0x0
 2858               	.LLST49:
 2859 0294 8209 0000 		.long	.LVL57-.Ltext0
 2860 0298 8C09 0000 		.long	.LVL58-.Ltext0
 2861 029c 0600      		.word	0x6
 2862 029e 68        		.byte	0x68
 2863 029f 93        		.byte	0x93
 2864 02a0 01        		.uleb128 0x1
 2865 02a1 69        		.byte	0x69
 2866 02a2 93        		.byte	0x93
 2867 02a3 01        		.uleb128 0x1
 2868 02a4 8C09 0000 		.long	.LVL58-.Ltext0
 2869 02a8 000A 0000 		.long	.LVL59-.Ltext0
 2870 02ac 0600      		.word	0x6
 2871 02ae 60        		.byte	0x60
 2872 02af 93        		.byte	0x93
 2873 02b0 01        		.uleb128 0x1
 2874 02b1 61        		.byte	0x61
 2875 02b2 93        		.byte	0x93
 2876 02b3 01        		.uleb128 0x1
 2877 02b4 0000 0000 		.long	0x0
 2878 02b8 0000 0000 		.long	0x0
 2879               	.LLST51:
 2880 02bc 020A 0000 		.long	.LVL60-.Ltext0
 2881 02c0 1A0A 0000 		.long	.LVL62-.Ltext0
 2882 02c4 0600      		.word	0x6
 2883 02c6 68        		.byte	0x68
 2884 02c7 93        		.byte	0x93
 2885 02c8 01        		.uleb128 0x1
 2886 02c9 69        		.byte	0x69
 2887 02ca 93        		.byte	0x93
 2888 02cb 01        		.uleb128 0x1
 2889 02cc 1A0A 0000 		.long	.LVL62-.Ltext0
 2890 02d0 680A 0000 		.long	.LVL63-.Ltext0
 2891 02d4 0600      		.word	0x6
 2892 02d6 60        		.byte	0x60
 2893 02d7 93        		.byte	0x93
 2894 02d8 01        		.uleb128 0x1
 2895 02d9 61        		.byte	0x61
 2896 02da 93        		.byte	0x93
 2897 02db 01        		.uleb128 0x1
 2898 02dc 0000 0000 		.long	0x0
 2899 02e0 0000 0000 		.long	0x0
 2900               	.LLST52:
 2901 02e4 020A 0000 		.long	.LVL60-.Ltext0
 2902 02e8 160A 0000 		.long	.LVL61-.Ltext0
 2903 02ec 0600      		.word	0x6
 2904 02ee 66        		.byte	0x66
 2905 02ef 93        		.byte	0x93
 2906 02f0 01        		.uleb128 0x1
 2907 02f1 67        		.byte	0x67
GAS LISTING /tmp/cc1O4Nc2.s 			page 52


 2908 02f2 93        		.byte	0x93
 2909 02f3 01        		.uleb128 0x1
 2910 02f4 160A 0000 		.long	.LVL61-.Ltext0
 2911 02f8 6C0A 0000 		.long	.LVL64-.Ltext0
 2912 02fc 0600      		.word	0x6
 2913 02fe 5E        		.byte	0x5e
 2914 02ff 93        		.byte	0x93
 2915 0300 01        		.uleb128 0x1
 2916 0301 5F        		.byte	0x5f
 2917 0302 93        		.byte	0x93
 2918 0303 01        		.uleb128 0x1
 2919 0304 0000 0000 		.long	0x0
 2920 0308 0000 0000 		.long	0x0
 2921               	.LLST53:
 2922 030c 020A 0000 		.long	.LVL60-.Ltext0
 2923 0310 1A0A 0000 		.long	.LVL62-.Ltext0
 2924 0314 0600      		.word	0x6
 2925 0316 64        		.byte	0x64
 2926 0317 93        		.byte	0x93
 2927 0318 01        		.uleb128 0x1
 2928 0319 65        		.byte	0x65
 2929 031a 93        		.byte	0x93
 2930 031b 01        		.uleb128 0x1
 2931 031c 0000 0000 		.long	0x0
 2932 0320 0000 0000 		.long	0x0
 2933               	.LLST55:
 2934 0324 6E0A 0000 		.long	.LVL65-.Ltext0
 2935 0328 860A 0000 		.long	.LVL67-.Ltext0
 2936 032c 0600      		.word	0x6
 2937 032e 68        		.byte	0x68
 2938 032f 93        		.byte	0x93
 2939 0330 01        		.uleb128 0x1
 2940 0331 69        		.byte	0x69
 2941 0332 93        		.byte	0x93
 2942 0333 01        		.uleb128 0x1
 2943 0334 860A 0000 		.long	.LVL67-.Ltext0
 2944 0338 D40A 0000 		.long	.LVL68-.Ltext0
 2945 033c 0600      		.word	0x6
 2946 033e 60        		.byte	0x60
 2947 033f 93        		.byte	0x93
 2948 0340 01        		.uleb128 0x1
 2949 0341 61        		.byte	0x61
 2950 0342 93        		.byte	0x93
 2951 0343 01        		.uleb128 0x1
 2952 0344 0000 0000 		.long	0x0
 2953 0348 0000 0000 		.long	0x0
 2954               	.LLST56:
 2955 034c 6E0A 0000 		.long	.LVL65-.Ltext0
 2956 0350 820A 0000 		.long	.LVL66-.Ltext0
 2957 0354 0600      		.word	0x6
 2958 0356 66        		.byte	0x66
 2959 0357 93        		.byte	0x93
 2960 0358 01        		.uleb128 0x1
 2961 0359 67        		.byte	0x67
 2962 035a 93        		.byte	0x93
 2963 035b 01        		.uleb128 0x1
 2964 035c 820A 0000 		.long	.LVL66-.Ltext0
GAS LISTING /tmp/cc1O4Nc2.s 			page 53


 2965 0360 D80A 0000 		.long	.LVL69-.Ltext0
 2966 0364 0600      		.word	0x6
 2967 0366 5E        		.byte	0x5e
 2968 0367 93        		.byte	0x93
 2969 0368 01        		.uleb128 0x1
 2970 0369 5F        		.byte	0x5f
 2971 036a 93        		.byte	0x93
 2972 036b 01        		.uleb128 0x1
 2973 036c 0000 0000 		.long	0x0
 2974 0370 0000 0000 		.long	0x0
 2975               	.LLST57:
 2976 0374 6E0A 0000 		.long	.LVL65-.Ltext0
 2977 0378 860A 0000 		.long	.LVL67-.Ltext0
 2978 037c 0600      		.word	0x6
 2979 037e 64        		.byte	0x64
 2980 037f 93        		.byte	0x93
 2981 0380 01        		.uleb128 0x1
 2982 0381 65        		.byte	0x65
 2983 0382 93        		.byte	0x93
 2984 0383 01        		.uleb128 0x1
 2985 0384 0000 0000 		.long	0x0
 2986 0388 0000 0000 		.long	0x0
 2987               		.section	.debug_info
 2988 0000 431F 0000 		.long	0x1f43
 2989 0004 0200      		.word	0x2
 2990 0006 0000 0000 		.long	.Ldebug_abbrev0
 2991 000a 04        		.byte	0x4
 2992 000b 01        		.uleb128 0x1
 2993 000c 0000 0000 		.long	.LASF340
 2994 0010 01        		.byte	0x1
 2995 0011 0000 0000 		.long	.LASF341
 2996 0015 0000 0000 		.long	.LASF342
 2997 0019 0000 0000 		.long	.Ltext0
 2998 001d 0000 0000 		.long	.Letext0
 2999 0021 0000 0000 		.long	.Ldebug_line0
 3000 0025 02        		.uleb128 0x2
 3001 0026 02        		.byte	0x2
 3002 0027 07        		.byte	0x7
 3003 0028 0000 0000 		.long	.LASF0
 3004 002c 03        		.uleb128 0x3
 3005 002d 02        		.byte	0x2
 3006 002e 05        		.byte	0x5
 3007 002f 696E 7400 		.string	"int"
 3008 0033 02        		.uleb128 0x2
 3009 0034 04        		.byte	0x4
 3010 0035 05        		.byte	0x5
 3011 0036 0000 0000 		.long	.LASF1
 3012 003a 02        		.uleb128 0x2
 3013 003b 01        		.byte	0x1
 3014 003c 06        		.byte	0x6
 3015 003d 0000 0000 		.long	.LASF2
 3016 0041 04        		.uleb128 0x4
 3017 0042 0000 0000 		.long	.LASF4
 3018 0046 04        		.byte	0x4
 3019 0047 7A        		.byte	0x7a
 3020 0048 4C00 0000 		.long	0x4c
 3021 004c 02        		.uleb128 0x2
GAS LISTING /tmp/cc1O4Nc2.s 			page 54


 3022 004d 01        		.byte	0x1
 3023 004e 08        		.byte	0x8
 3024 004f 0000 0000 		.long	.LASF3
 3025 0053 04        		.uleb128 0x4
 3026 0054 0000 0000 		.long	.LASF5
 3027 0058 04        		.byte	0x4
 3028 0059 7C        		.byte	0x7c
 3029 005a 2500 0000 		.long	0x25
 3030 005e 02        		.uleb128 0x2
 3031 005f 04        		.byte	0x4
 3032 0060 07        		.byte	0x7
 3033 0061 0000 0000 		.long	.LASF6
 3034 0065 02        		.uleb128 0x2
 3035 0066 08        		.byte	0x8
 3036 0067 05        		.byte	0x5
 3037 0068 0000 0000 		.long	.LASF7
 3038 006c 02        		.uleb128 0x2
 3039 006d 08        		.byte	0x8
 3040 006e 07        		.byte	0x7
 3041 006f 0000 0000 		.long	.LASF8
 3042 0073 05        		.uleb128 0x5
 3043 0074 0000 0000 		.long	.LASF16
 3044 0078 0E        		.byte	0xe
 3045 0079 05        		.byte	0x5
 3046 007a F2        		.byte	0xf2
 3047 007b F500 0000 		.long	0xf5
 3048 007f 06        		.uleb128 0x6
 3049 0080 6275 6600 		.string	"buf"
 3050 0084 05        		.byte	0x5
 3051 0085 F3        		.byte	0xf3
 3052 0086 F500 0000 		.long	0xf5
 3053 008a 02        		.byte	0x2
 3054 008b 23        		.byte	0x23
 3055 008c 00        		.uleb128 0x0
 3056 008d 07        		.uleb128 0x7
 3057 008e 0000 0000 		.long	.LASF9
 3058 0092 05        		.byte	0x5
 3059 0093 F4        		.byte	0xf4
 3060 0094 4C00 0000 		.long	0x4c
 3061 0098 02        		.byte	0x2
 3062 0099 23        		.byte	0x23
 3063 009a 02        		.uleb128 0x2
 3064 009b 07        		.uleb128 0x7
 3065 009c 0000 0000 		.long	.LASF10
 3066 00a0 05        		.byte	0x5
 3067 00a1 F5        		.byte	0xf5
 3068 00a2 4100 0000 		.long	0x41
 3069 00a6 02        		.byte	0x2
 3070 00a7 23        		.byte	0x23
 3071 00a8 03        		.uleb128 0x3
 3072 00a9 08        		.uleb128 0x8
 3073 00aa 0000 0000 		.long	.LASF11
 3074 00ae 05        		.byte	0x5
 3075 00af 0501      		.word	0x105
 3076 00b1 2C00 0000 		.long	0x2c
 3077 00b5 02        		.byte	0x2
 3078 00b6 23        		.byte	0x23
GAS LISTING /tmp/cc1O4Nc2.s 			page 55


 3079 00b7 04        		.uleb128 0x4
 3080 00b8 09        		.uleb128 0x9
 3081 00b9 6C65 6E00 		.string	"len"
 3082 00bd 05        		.byte	0x5
 3083 00be 0601      		.word	0x106
 3084 00c0 2C00 0000 		.long	0x2c
 3085 00c4 02        		.byte	0x2
 3086 00c5 23        		.byte	0x23
 3087 00c6 06        		.uleb128 0x6
 3088 00c7 09        		.uleb128 0x9
 3089 00c8 7075 7400 		.string	"put"
 3090 00cc 05        		.byte	0x5
 3091 00cd 0701      		.word	0x107
 3092 00cf 1D01 0000 		.long	0x11d
 3093 00d3 02        		.byte	0x2
 3094 00d4 23        		.byte	0x23
 3095 00d5 08        		.uleb128 0x8
 3096 00d6 09        		.uleb128 0x9
 3097 00d7 6765 7400 		.string	"get"
 3098 00db 05        		.byte	0x5
 3099 00dc 0801      		.word	0x108
 3100 00de 3301 0000 		.long	0x133
 3101 00e2 02        		.byte	0x2
 3102 00e3 23        		.byte	0x23
 3103 00e4 0A        		.uleb128 0xa
 3104 00e5 08        		.uleb128 0x8
 3105 00e6 0000 0000 		.long	.LASF12
 3106 00ea 05        		.byte	0x5
 3107 00eb 0901      		.word	0x109
 3108 00ed 3901 0000 		.long	0x139
 3109 00f1 02        		.byte	0x2
 3110 00f2 23        		.byte	0x23
 3111 00f3 0C        		.uleb128 0xc
 3112 00f4 00        		.byte	0x0
 3113 00f5 0A        		.uleb128 0xa
 3114 00f6 02        		.byte	0x2
 3115 00f7 FB00 0000 		.long	0xfb
 3116 00fb 02        		.uleb128 0x2
 3117 00fc 01        		.byte	0x1
 3118 00fd 08        		.byte	0x8
 3119 00fe 0000 0000 		.long	.LASF13
 3120 0102 0B        		.uleb128 0xb
 3121 0103 01        		.byte	0x1
 3122 0104 2C00 0000 		.long	0x2c
 3123 0108 1701 0000 		.long	0x117
 3124 010c 0C        		.uleb128 0xc
 3125 010d FB00 0000 		.long	0xfb
 3126 0111 0C        		.uleb128 0xc
 3127 0112 1701 0000 		.long	0x117
 3128 0116 00        		.byte	0x0
 3129 0117 0A        		.uleb128 0xa
 3130 0118 02        		.byte	0x2
 3131 0119 7300 0000 		.long	0x73
 3132 011d 0A        		.uleb128 0xa
 3133 011e 02        		.byte	0x2
 3134 011f 0201 0000 		.long	0x102
 3135 0123 0B        		.uleb128 0xb
GAS LISTING /tmp/cc1O4Nc2.s 			page 56


 3136 0124 01        		.byte	0x1
 3137 0125 2C00 0000 		.long	0x2c
 3138 0129 3301 0000 		.long	0x133
 3139 012d 0C        		.uleb128 0xc
 3140 012e 1701 0000 		.long	0x117
 3141 0132 00        		.byte	0x0
 3142 0133 0A        		.uleb128 0xa
 3143 0134 02        		.byte	0x2
 3144 0135 2301 0000 		.long	0x123
 3145 0139 0D        		.uleb128 0xd
 3146 013a 02        		.byte	0x2
 3147 013b 0E        		.uleb128 0xe
 3148 013c 4100 0000 		.long	0x41
 3149 0140 0E        		.uleb128 0xe
 3150 0141 4C00 0000 		.long	0x4c
 3151 0145 0F        		.uleb128 0xf
 3152 0146 0000 0000 		.long	.LASF22
 3153 014a 01        		.byte	0x1
 3154 014b 06        		.byte	0x6
 3155 014c 91        		.byte	0x91
 3156 014d 6001 0000 		.long	0x160
 3157 0151 10        		.uleb128 0x10
 3158 0152 0000 0000 		.long	.LASF14
 3159 0156 9D01      		.sleb128 157
 3160 0158 10        		.uleb128 0x10
 3161 0159 0000 0000 		.long	.LASF15
 3162 015d D801      		.sleb128 216
 3163 015f 00        		.byte	0x0
 3164 0160 05        		.uleb128 0x5
 3165 0161 0000 0000 		.long	.LASF17
 3166 0165 04        		.byte	0x4
 3167 0166 06        		.byte	0x6
 3168 0167 9F        		.byte	0x9f
 3169 0168 A501 0000 		.long	0x1a5
 3170 016c 07        		.uleb128 0x7
 3171 016d 0000 0000 		.long	.LASF18
 3172 0171 06        		.byte	0x6
 3173 0172 A0        		.byte	0xa0
 3174 0173 4001 0000 		.long	0x140
 3175 0177 02        		.byte	0x2
 3176 0178 23        		.byte	0x23
 3177 0179 00        		.uleb128 0x0
 3178 017a 07        		.uleb128 0x7
 3179 017b 0000 0000 		.long	.LASF19
 3180 017f 06        		.byte	0x6
 3181 0180 A1        		.byte	0xa1
 3182 0181 4001 0000 		.long	0x140
 3183 0185 02        		.byte	0x2
 3184 0186 23        		.byte	0x23
 3185 0187 01        		.uleb128 0x1
 3186 0188 07        		.uleb128 0x7
 3187 0189 0000 0000 		.long	.LASF20
 3188 018d 06        		.byte	0x6
 3189 018e A2        		.byte	0xa2
 3190 018f 4001 0000 		.long	0x140
 3191 0193 02        		.byte	0x2
 3192 0194 23        		.byte	0x23
GAS LISTING /tmp/cc1O4Nc2.s 			page 57


 3193 0195 02        		.uleb128 0x2
 3194 0196 07        		.uleb128 0x7
 3195 0197 0000 0000 		.long	.LASF21
 3196 019b 06        		.byte	0x6
 3197 019c A3        		.byte	0xa3
 3198 019d 4001 0000 		.long	0x140
 3199 01a1 02        		.byte	0x2
 3200 01a2 23        		.byte	0x23
 3201 01a3 03        		.uleb128 0x3
 3202 01a4 00        		.byte	0x0
 3203 01a5 0F        		.uleb128 0xf
 3204 01a6 0000 0000 		.long	.LASF23
 3205 01aa 01        		.byte	0x1
 3206 01ab 06        		.byte	0x6
 3207 01ac BA        		.byte	0xba
 3208 01ad D001 0000 		.long	0x1d0
 3209 01b1 10        		.uleb128 0x10
 3210 01b2 0000 0000 		.long	.LASF24
 3211 01b6 00        		.sleb128 0
 3212 01b7 10        		.uleb128 0x10
 3213 01b8 0000 0000 		.long	.LASF25
 3214 01bc 01        		.sleb128 1
 3215 01bd 10        		.uleb128 0x10
 3216 01be 0000 0000 		.long	.LASF26
 3217 01c2 02        		.sleb128 2
 3218 01c3 10        		.uleb128 0x10
 3219 01c4 0000 0000 		.long	.LASF27
 3220 01c8 03        		.sleb128 3
 3221 01c9 10        		.uleb128 0x10
 3222 01ca 0000 0000 		.long	.LASF28
 3223 01ce 04        		.sleb128 4
 3224 01cf 00        		.byte	0x0
 3225 01d0 0F        		.uleb128 0xf
 3226 01d1 0000 0000 		.long	.LASF29
 3227 01d5 01        		.byte	0x1
 3228 01d6 06        		.byte	0x6
 3229 01d7 D3        		.byte	0xd3
 3230 01d8 F501 0000 		.long	0x1f5
 3231 01dc 10        		.uleb128 0x10
 3232 01dd 0000 0000 		.long	.LASF30
 3233 01e1 00        		.sleb128 0
 3234 01e2 10        		.uleb128 0x10
 3235 01e3 0000 0000 		.long	.LASF31
 3236 01e7 01        		.sleb128 1
 3237 01e8 10        		.uleb128 0x10
 3238 01e9 0000 0000 		.long	.LASF32
 3239 01ed 02        		.sleb128 2
 3240 01ee 10        		.uleb128 0x10
 3241 01ef 0000 0000 		.long	.LASF33
 3242 01f3 03        		.sleb128 3
 3243 01f4 00        		.byte	0x0
 3244 01f5 11        		.uleb128 0x11
 3245 01f6 0000 0000 		.long	.LASF34
 3246 01fa 07        		.byte	0x7
 3247 01fb 06        		.byte	0x6
 3248 01fc 0301      		.word	0x103
 3249 01fe 6C02 0000 		.long	0x26c
GAS LISTING /tmp/cc1O4Nc2.s 			page 58


 3250 0202 08        		.uleb128 0x8
 3251 0203 0000 0000 		.long	.LASF18
 3252 0207 06        		.byte	0x6
 3253 0208 0401      		.word	0x104
 3254 020a 4001 0000 		.long	0x140
 3255 020e 02        		.byte	0x2
 3256 020f 23        		.byte	0x23
 3257 0210 00        		.uleb128 0x0
 3258 0211 08        		.uleb128 0x8
 3259 0212 0000 0000 		.long	.LASF35
 3260 0216 06        		.byte	0x6
 3261 0217 0501      		.word	0x105
 3262 0219 4001 0000 		.long	0x140
 3263 021d 02        		.byte	0x2
 3264 021e 23        		.byte	0x23
 3265 021f 01        		.uleb128 0x1
 3266 0220 08        		.uleb128 0x8
 3267 0221 0000 0000 		.long	.LASF36
 3268 0225 06        		.byte	0x6
 3269 0226 0601      		.word	0x106
 3270 0228 4001 0000 		.long	0x140
 3271 022c 02        		.byte	0x2
 3272 022d 23        		.byte	0x23
 3273 022e 02        		.uleb128 0x2
 3274 022f 08        		.uleb128 0x8
 3275 0230 0000 0000 		.long	.LASF37
 3276 0234 06        		.byte	0x6
 3277 0235 0701      		.word	0x107
 3278 0237 4001 0000 		.long	0x140
 3279 023b 02        		.byte	0x2
 3280 023c 23        		.byte	0x23
 3281 023d 03        		.uleb128 0x3
 3282 023e 08        		.uleb128 0x8
 3283 023f 0000 0000 		.long	.LASF38
 3284 0243 06        		.byte	0x6
 3285 0244 0801      		.word	0x108
 3286 0246 4001 0000 		.long	0x140
 3287 024a 02        		.byte	0x2
 3288 024b 23        		.byte	0x23
 3289 024c 04        		.uleb128 0x4
 3290 024d 08        		.uleb128 0x8
 3291 024e 0000 0000 		.long	.LASF39
 3292 0252 06        		.byte	0x6
 3293 0253 0901      		.word	0x109
 3294 0255 4001 0000 		.long	0x140
 3295 0259 02        		.byte	0x2
 3296 025a 23        		.byte	0x23
 3297 025b 05        		.uleb128 0x5
 3298 025c 08        		.uleb128 0x8
 3299 025d 0000 0000 		.long	.LASF40
 3300 0261 06        		.byte	0x6
 3301 0262 0A01      		.word	0x10a
 3302 0264 4001 0000 		.long	0x140
 3303 0268 02        		.byte	0x2
 3304 0269 23        		.byte	0x23
 3305 026a 06        		.uleb128 0x6
 3306 026b 00        		.byte	0x0
GAS LISTING /tmp/cc1O4Nc2.s 			page 59


 3307 026c 12        		.uleb128 0x12
 3308 026d 0000 0000 		.long	.LASF41
 3309 0271 01        		.byte	0x1
 3310 0272 06        		.byte	0x6
 3311 0273 2201      		.word	0x122
 3312 0275 8E02 0000 		.long	0x28e
 3313 0279 10        		.uleb128 0x10
 3314 027a 0000 0000 		.long	.LASF42
 3315 027e 00        		.sleb128 0
 3316 027f 10        		.uleb128 0x10
 3317 0280 0000 0000 		.long	.LASF43
 3318 0284 8001      		.sleb128 128
 3319 0286 10        		.uleb128 0x10
 3320 0287 0000 0000 		.long	.LASF44
 3321 028b C001      		.sleb128 192
 3322 028d 00        		.byte	0x0
 3323 028e 11        		.uleb128 0x11
 3324 028f 0000 0000 		.long	.LASF45
 3325 0293 03        		.byte	0x3
 3326 0294 06        		.byte	0x6
 3327 0295 9A01      		.word	0x19a
 3328 0297 C902 0000 		.long	0x2c9
 3329 029b 08        		.uleb128 0x8
 3330 029c 0000 0000 		.long	.LASF35
 3331 02a0 06        		.byte	0x6
 3332 02a1 9B01      		.word	0x19b
 3333 02a3 4001 0000 		.long	0x140
 3334 02a7 02        		.byte	0x2
 3335 02a8 23        		.byte	0x23
 3336 02a9 00        		.uleb128 0x0
 3337 02aa 08        		.uleb128 0x8
 3338 02ab 0000 0000 		.long	.LASF46
 3339 02af 06        		.byte	0x6
 3340 02b0 9C01      		.word	0x19c
 3341 02b2 4001 0000 		.long	0x140
 3342 02b6 02        		.byte	0x2
 3343 02b7 23        		.byte	0x23
 3344 02b8 01        		.uleb128 0x1
 3345 02b9 08        		.uleb128 0x8
 3346 02ba 0000 0000 		.long	.LASF18
 3347 02be 06        		.byte	0x6
 3348 02bf 9D01      		.word	0x19d
 3349 02c1 4001 0000 		.long	0x140
 3350 02c5 02        		.byte	0x2
 3351 02c6 23        		.byte	0x23
 3352 02c7 02        		.uleb128 0x2
 3353 02c8 00        		.byte	0x0
 3354 02c9 0E        		.uleb128 0xe
 3355 02ca 2500 0000 		.long	0x25
 3356 02ce 13        		.uleb128 0x13
 3357 02cf 02        		.byte	0x2
 3358 02d0 06        		.byte	0x6
 3359 02d1 A704      		.word	0x4a7
 3360 02d3 F602 0000 		.long	0x2f6
 3361 02d7 08        		.uleb128 0x8
 3362 02d8 0000 0000 		.long	.LASF47
 3363 02dc 06        		.byte	0x6
GAS LISTING /tmp/cc1O4Nc2.s 			page 60


 3364 02dd A704      		.word	0x4a7
 3365 02df 4001 0000 		.long	0x140
 3366 02e3 02        		.byte	0x2
 3367 02e4 23        		.byte	0x23
 3368 02e5 00        		.uleb128 0x0
 3369 02e6 08        		.uleb128 0x8
 3370 02e7 0000 0000 		.long	.LASF48
 3371 02eb 06        		.byte	0x6
 3372 02ec A704      		.word	0x4a7
 3373 02ee 4001 0000 		.long	0x140
 3374 02f2 02        		.byte	0x2
 3375 02f3 23        		.byte	0x23
 3376 02f4 01        		.uleb128 0x1
 3377 02f5 00        		.byte	0x0
 3378 02f6 14        		.uleb128 0x14
 3379 02f7 02        		.byte	0x2
 3380 02f8 06        		.byte	0x6
 3381 02f9 A704      		.word	0x4a7
 3382 02fb 1103 0000 		.long	0x311
 3383 02ff 15        		.uleb128 0x15
 3384 0300 5245 5300 		.string	"RES"
 3385 0304 06        		.byte	0x6
 3386 0305 A704      		.word	0x4a7
 3387 0307 C902 0000 		.long	0x2c9
 3388 030b 16        		.uleb128 0x16
 3389 030c CE02 0000 		.long	0x2ce
 3390 0310 00        		.byte	0x0
 3391 0311 11        		.uleb128 0x11
 3392 0312 0000 0000 		.long	.LASF49
 3393 0316 08        		.byte	0x8
 3394 0317 06        		.byte	0x6
 3395 0318 A204      		.word	0x4a2
 3396 031a 8103 0000 		.long	0x381
 3397 031e 08        		.uleb128 0x8
 3398 031f 0000 0000 		.long	.LASF18
 3399 0323 06        		.byte	0x6
 3400 0324 A304      		.word	0x4a3
 3401 0326 4001 0000 		.long	0x140
 3402 032a 02        		.byte	0x2
 3403 032b 23        		.byte	0x23
 3404 032c 00        		.uleb128 0x0
 3405 032d 08        		.uleb128 0x8
 3406 032e 0000 0000 		.long	.LASF50
 3407 0332 06        		.byte	0x6
 3408 0333 A404      		.word	0x4a4
 3409 0335 4001 0000 		.long	0x140
 3410 0339 02        		.byte	0x2
 3411 033a 23        		.byte	0x23
 3412 033b 01        		.uleb128 0x1
 3413 033c 08        		.uleb128 0x8
 3414 033d 0000 0000 		.long	.LASF51
 3415 0341 06        		.byte	0x6
 3416 0342 A504      		.word	0x4a5
 3417 0344 4001 0000 		.long	0x140
 3418 0348 02        		.byte	0x2
 3419 0349 23        		.byte	0x23
 3420 034a 02        		.uleb128 0x2
GAS LISTING /tmp/cc1O4Nc2.s 			page 61


 3421 034b 08        		.uleb128 0x8
 3422 034c 0000 0000 		.long	.LASF52
 3423 0350 06        		.byte	0x6
 3424 0351 A604      		.word	0x4a6
 3425 0353 4001 0000 		.long	0x140
 3426 0357 02        		.byte	0x2
 3427 0358 23        		.byte	0x23
 3428 0359 03        		.uleb128 0x3
 3429 035a 17        		.uleb128 0x17
 3430 035b F602 0000 		.long	0x2f6
 3431 035f 02        		.byte	0x2
 3432 0360 23        		.byte	0x23
 3433 0361 04        		.uleb128 0x4
 3434 0362 08        		.uleb128 0x8
 3435 0363 0000 0000 		.long	.LASF53
 3436 0367 06        		.byte	0x6
 3437 0368 A804      		.word	0x4a8
 3438 036a 4001 0000 		.long	0x140
 3439 036e 02        		.byte	0x2
 3440 036f 23        		.byte	0x23
 3441 0370 06        		.uleb128 0x6
 3442 0371 08        		.uleb128 0x8
 3443 0372 0000 0000 		.long	.LASF54
 3444 0376 06        		.byte	0x6
 3445 0377 A904      		.word	0x4a9
 3446 0379 4001 0000 		.long	0x140
 3447 037d 02        		.byte	0x2
 3448 037e 23        		.byte	0x23
 3449 037f 07        		.uleb128 0x7
 3450 0380 00        		.byte	0x0
 3451 0381 18        		.uleb128 0x18
 3452 0382 0000 0000 		.long	.LASF55
 3453 0386 06        		.byte	0x6
 3454 0387 AA04      		.word	0x4aa
 3455 0389 1103 0000 		.long	0x311
 3456 038d 13        		.uleb128 0x13
 3457 038e 02        		.byte	0x2
 3458 038f 06        		.byte	0x6
 3459 0390 C104      		.word	0x4c1
 3460 0392 B503 0000 		.long	0x3b5
 3461 0396 08        		.uleb128 0x8
 3462 0397 0000 0000 		.long	.LASF56
 3463 039b 06        		.byte	0x6
 3464 039c C104      		.word	0x4c1
 3465 039e 4001 0000 		.long	0x140
 3466 03a2 02        		.byte	0x2
 3467 03a3 23        		.byte	0x23
 3468 03a4 00        		.uleb128 0x0
 3469 03a5 08        		.uleb128 0x8
 3470 03a6 0000 0000 		.long	.LASF57
 3471 03aa 06        		.byte	0x6
 3472 03ab C104      		.word	0x4c1
 3473 03ad 4001 0000 		.long	0x140
 3474 03b1 02        		.byte	0x2
 3475 03b2 23        		.byte	0x23
 3476 03b3 01        		.uleb128 0x1
 3477 03b4 00        		.byte	0x0
GAS LISTING /tmp/cc1O4Nc2.s 			page 62


 3478 03b5 14        		.uleb128 0x14
 3479 03b6 02        		.byte	0x2
 3480 03b7 06        		.byte	0x6
 3481 03b8 C104      		.word	0x4c1
 3482 03ba D003 0000 		.long	0x3d0
 3483 03be 15        		.uleb128 0x15
 3484 03bf 4341 4C00 		.string	"CAL"
 3485 03c3 06        		.byte	0x6
 3486 03c4 C104      		.word	0x4c1
 3487 03c6 C902 0000 		.long	0x2c9
 3488 03ca 16        		.uleb128 0x16
 3489 03cb 8D03 0000 		.long	0x38d
 3490 03cf 00        		.byte	0x0
 3491 03d0 13        		.uleb128 0x13
 3492 03d1 02        		.byte	0x2
 3493 03d2 06        		.byte	0x6
 3494 03d3 C404      		.word	0x4c4
 3495 03d5 F803 0000 		.long	0x3f8
 3496 03d9 08        		.uleb128 0x8
 3497 03da 0000 0000 		.long	.LASF58
 3498 03de 06        		.byte	0x6
 3499 03df C404      		.word	0x4c4
 3500 03e1 4001 0000 		.long	0x140
 3501 03e5 02        		.byte	0x2
 3502 03e6 23        		.byte	0x23
 3503 03e7 00        		.uleb128 0x0
 3504 03e8 08        		.uleb128 0x8
 3505 03e9 0000 0000 		.long	.LASF59
 3506 03ed 06        		.byte	0x6
 3507 03ee C404      		.word	0x4c4
 3508 03f0 4001 0000 		.long	0x140
 3509 03f4 02        		.byte	0x2
 3510 03f5 23        		.byte	0x23
 3511 03f6 01        		.uleb128 0x1
 3512 03f7 00        		.byte	0x0
 3513 03f8 14        		.uleb128 0x14
 3514 03f9 02        		.byte	0x2
 3515 03fa 06        		.byte	0x6
 3516 03fb C404      		.word	0x4c4
 3517 03fd 1304 0000 		.long	0x413
 3518 0401 19        		.uleb128 0x19
 3519 0402 0000 0000 		.long	.LASF60
 3520 0406 06        		.byte	0x6
 3521 0407 C404      		.word	0x4c4
 3522 0409 C902 0000 		.long	0x2c9
 3523 040d 16        		.uleb128 0x16
 3524 040e D003 0000 		.long	0x3d0
 3525 0412 00        		.byte	0x0
 3526 0413 13        		.uleb128 0x13
 3527 0414 02        		.byte	0x2
 3528 0415 06        		.byte	0x6
 3529 0416 C504      		.word	0x4c5
 3530 0418 3B04 0000 		.long	0x43b
 3531 041c 08        		.uleb128 0x8
 3532 041d 0000 0000 		.long	.LASF61
 3533 0421 06        		.byte	0x6
 3534 0422 C504      		.word	0x4c5
GAS LISTING /tmp/cc1O4Nc2.s 			page 63


 3535 0424 4001 0000 		.long	0x140
 3536 0428 02        		.byte	0x2
 3537 0429 23        		.byte	0x23
 3538 042a 00        		.uleb128 0x0
 3539 042b 08        		.uleb128 0x8
 3540 042c 0000 0000 		.long	.LASF62
 3541 0430 06        		.byte	0x6
 3542 0431 C504      		.word	0x4c5
 3543 0433 4001 0000 		.long	0x140
 3544 0437 02        		.byte	0x2
 3545 0438 23        		.byte	0x23
 3546 0439 01        		.uleb128 0x1
 3547 043a 00        		.byte	0x0
 3548 043b 14        		.uleb128 0x14
 3549 043c 02        		.byte	0x2
 3550 043d 06        		.byte	0x6
 3551 043e C504      		.word	0x4c5
 3552 0440 5604 0000 		.long	0x456
 3553 0444 19        		.uleb128 0x19
 3554 0445 0000 0000 		.long	.LASF63
 3555 0449 06        		.byte	0x6
 3556 044a C504      		.word	0x4c5
 3557 044c C902 0000 		.long	0x2c9
 3558 0450 16        		.uleb128 0x16
 3559 0451 1304 0000 		.long	0x413
 3560 0455 00        		.byte	0x0
 3561 0456 13        		.uleb128 0x13
 3562 0457 02        		.byte	0x2
 3563 0458 06        		.byte	0x6
 3564 0459 C604      		.word	0x4c6
 3565 045b 7E04 0000 		.long	0x47e
 3566 045f 08        		.uleb128 0x8
 3567 0460 0000 0000 		.long	.LASF64
 3568 0464 06        		.byte	0x6
 3569 0465 C604      		.word	0x4c6
 3570 0467 4001 0000 		.long	0x140
 3571 046b 02        		.byte	0x2
 3572 046c 23        		.byte	0x23
 3573 046d 00        		.uleb128 0x0
 3574 046e 08        		.uleb128 0x8
 3575 046f 0000 0000 		.long	.LASF65
 3576 0473 06        		.byte	0x6
 3577 0474 C604      		.word	0x4c6
 3578 0476 4001 0000 		.long	0x140
 3579 047a 02        		.byte	0x2
 3580 047b 23        		.byte	0x23
 3581 047c 01        		.uleb128 0x1
 3582 047d 00        		.byte	0x0
 3583 047e 14        		.uleb128 0x14
 3584 047f 02        		.byte	0x2
 3585 0480 06        		.byte	0x6
 3586 0481 C604      		.word	0x4c6
 3587 0483 9904 0000 		.long	0x499
 3588 0487 19        		.uleb128 0x19
 3589 0488 0000 0000 		.long	.LASF66
 3590 048c 06        		.byte	0x6
 3591 048d C604      		.word	0x4c6
GAS LISTING /tmp/cc1O4Nc2.s 			page 64


 3592 048f C902 0000 		.long	0x2c9
 3593 0493 16        		.uleb128 0x16
 3594 0494 5604 0000 		.long	0x456
 3595 0498 00        		.byte	0x0
 3596 0499 13        		.uleb128 0x13
 3597 049a 02        		.byte	0x2
 3598 049b 06        		.byte	0x6
 3599 049c C704      		.word	0x4c7
 3600 049e C104 0000 		.long	0x4c1
 3601 04a2 08        		.uleb128 0x8
 3602 04a3 0000 0000 		.long	.LASF67
 3603 04a7 06        		.byte	0x6
 3604 04a8 C704      		.word	0x4c7
 3605 04aa 4001 0000 		.long	0x140
 3606 04ae 02        		.byte	0x2
 3607 04af 23        		.byte	0x23
 3608 04b0 00        		.uleb128 0x0
 3609 04b1 08        		.uleb128 0x8
 3610 04b2 0000 0000 		.long	.LASF68
 3611 04b6 06        		.byte	0x6
 3612 04b7 C704      		.word	0x4c7
 3613 04b9 4001 0000 		.long	0x140
 3614 04bd 02        		.byte	0x2
 3615 04be 23        		.byte	0x23
 3616 04bf 01        		.uleb128 0x1
 3617 04c0 00        		.byte	0x0
 3618 04c1 14        		.uleb128 0x14
 3619 04c2 02        		.byte	0x2
 3620 04c3 06        		.byte	0x6
 3621 04c4 C704      		.word	0x4c7
 3622 04c6 DC04 0000 		.long	0x4dc
 3623 04ca 19        		.uleb128 0x19
 3624 04cb 0000 0000 		.long	.LASF69
 3625 04cf 06        		.byte	0x6
 3626 04d0 C704      		.word	0x4c7
 3627 04d2 C902 0000 		.long	0x2c9
 3628 04d6 16        		.uleb128 0x16
 3629 04d7 9904 0000 		.long	0x499
 3630 04db 00        		.byte	0x0
 3631 04dc 13        		.uleb128 0x13
 3632 04dd 02        		.byte	0x2
 3633 04de 06        		.byte	0x6
 3634 04df C804      		.word	0x4c8
 3635 04e1 0405 0000 		.long	0x504
 3636 04e5 08        		.uleb128 0x8
 3637 04e6 0000 0000 		.long	.LASF70
 3638 04ea 06        		.byte	0x6
 3639 04eb C804      		.word	0x4c8
 3640 04ed 4001 0000 		.long	0x140
 3641 04f1 02        		.byte	0x2
 3642 04f2 23        		.byte	0x23
 3643 04f3 00        		.uleb128 0x0
 3644 04f4 08        		.uleb128 0x8
 3645 04f5 0000 0000 		.long	.LASF71
 3646 04f9 06        		.byte	0x6
 3647 04fa C804      		.word	0x4c8
 3648 04fc 4001 0000 		.long	0x140
GAS LISTING /tmp/cc1O4Nc2.s 			page 65


 3649 0500 02        		.byte	0x2
 3650 0501 23        		.byte	0x23
 3651 0502 01        		.uleb128 0x1
 3652 0503 00        		.byte	0x0
 3653 0504 14        		.uleb128 0x14
 3654 0505 02        		.byte	0x2
 3655 0506 06        		.byte	0x6
 3656 0507 C804      		.word	0x4c8
 3657 0509 1F05 0000 		.long	0x51f
 3658 050d 15        		.uleb128 0x15
 3659 050e 434D 5000 		.string	"CMP"
 3660 0512 06        		.byte	0x6
 3661 0513 C804      		.word	0x4c8
 3662 0515 C902 0000 		.long	0x2c9
 3663 0519 16        		.uleb128 0x16
 3664 051a DC04 0000 		.long	0x4dc
 3665 051e 00        		.byte	0x0
 3666 051f 11        		.uleb128 0x11
 3667 0520 0000 0000 		.long	.LASF72
 3668 0524 40        		.byte	0x40
 3669 0525 06        		.byte	0x6
 3670 0526 B404      		.word	0x4b4
 3671 0528 C506 0000 		.long	0x6c5
 3672 052c 08        		.uleb128 0x8
 3673 052d 0000 0000 		.long	.LASF73
 3674 0531 06        		.byte	0x6
 3675 0532 B504      		.word	0x4b5
 3676 0534 4001 0000 		.long	0x140
 3677 0538 02        		.byte	0x2
 3678 0539 23        		.byte	0x23
 3679 053a 00        		.uleb128 0x0
 3680 053b 08        		.uleb128 0x8
 3681 053c 0000 0000 		.long	.LASF74
 3682 0540 06        		.byte	0x6
 3683 0541 B604      		.word	0x4b6
 3684 0543 4001 0000 		.long	0x140
 3685 0547 02        		.byte	0x2
 3686 0548 23        		.byte	0x23
 3687 0549 01        		.uleb128 0x1
 3688 054a 08        		.uleb128 0x8
 3689 054b 0000 0000 		.long	.LASF75
 3690 054f 06        		.byte	0x6
 3691 0550 B704      		.word	0x4b7
 3692 0552 4001 0000 		.long	0x140
 3693 0556 02        		.byte	0x2
 3694 0557 23        		.byte	0x23
 3695 0558 02        		.uleb128 0x2
 3696 0559 08        		.uleb128 0x8
 3697 055a 0000 0000 		.long	.LASF76
 3698 055e 06        		.byte	0x6
 3699 055f B804      		.word	0x4b8
 3700 0561 4001 0000 		.long	0x140
 3701 0565 02        		.byte	0x2
 3702 0566 23        		.byte	0x23
 3703 0567 03        		.uleb128 0x3
 3704 0568 08        		.uleb128 0x8
 3705 0569 0000 0000 		.long	.LASF77
GAS LISTING /tmp/cc1O4Nc2.s 			page 66


 3706 056d 06        		.byte	0x6
 3707 056e B904      		.word	0x4b9
 3708 0570 4001 0000 		.long	0x140
 3709 0574 02        		.byte	0x2
 3710 0575 23        		.byte	0x23
 3711 0576 04        		.uleb128 0x4
 3712 0577 08        		.uleb128 0x8
 3713 0578 0000 0000 		.long	.LASF78
 3714 057c 06        		.byte	0x6
 3715 057d BA04      		.word	0x4ba
 3716 057f 4001 0000 		.long	0x140
 3717 0583 02        		.byte	0x2
 3718 0584 23        		.byte	0x23
 3719 0585 05        		.uleb128 0x5
 3720 0586 08        		.uleb128 0x8
 3721 0587 0000 0000 		.long	.LASF52
 3722 058b 06        		.byte	0x6
 3723 058c BB04      		.word	0x4bb
 3724 058e 4001 0000 		.long	0x140
 3725 0592 02        		.byte	0x2
 3726 0593 23        		.byte	0x23
 3727 0594 06        		.uleb128 0x6
 3728 0595 08        		.uleb128 0x8
 3729 0596 0000 0000 		.long	.LASF79
 3730 059a 06        		.byte	0x6
 3731 059b BC04      		.word	0x4bc
 3732 059d 4001 0000 		.long	0x140
 3733 05a1 02        		.byte	0x2
 3734 05a2 23        		.byte	0x23
 3735 05a3 07        		.uleb128 0x7
 3736 05a4 08        		.uleb128 0x8
 3737 05a5 0000 0000 		.long	.LASF80
 3738 05a9 06        		.byte	0x6
 3739 05aa BD04      		.word	0x4bd
 3740 05ac 4001 0000 		.long	0x140
 3741 05b0 02        		.byte	0x2
 3742 05b1 23        		.byte	0x23
 3743 05b2 08        		.uleb128 0x8
 3744 05b3 08        		.uleb128 0x8
 3745 05b4 0000 0000 		.long	.LASF81
 3746 05b8 06        		.byte	0x6
 3747 05b9 BE04      		.word	0x4be
 3748 05bb 4001 0000 		.long	0x140
 3749 05bf 02        		.byte	0x2
 3750 05c0 23        		.byte	0x23
 3751 05c1 09        		.uleb128 0x9
 3752 05c2 08        		.uleb128 0x8
 3753 05c3 0000 0000 		.long	.LASF82
 3754 05c7 06        		.byte	0x6
 3755 05c8 BF04      		.word	0x4bf
 3756 05ca 4001 0000 		.long	0x140
 3757 05ce 02        		.byte	0x2
 3758 05cf 23        		.byte	0x23
 3759 05d0 0A        		.uleb128 0xa
 3760 05d1 08        		.uleb128 0x8
 3761 05d2 0000 0000 		.long	.LASF83
 3762 05d6 06        		.byte	0x6
GAS LISTING /tmp/cc1O4Nc2.s 			page 67


 3763 05d7 C004      		.word	0x4c0
 3764 05d9 4001 0000 		.long	0x140
 3765 05dd 02        		.byte	0x2
 3766 05de 23        		.byte	0x23
 3767 05df 0B        		.uleb128 0xb
 3768 05e0 17        		.uleb128 0x17
 3769 05e1 B503 0000 		.long	0x3b5
 3770 05e5 02        		.byte	0x2
 3771 05e6 23        		.byte	0x23
 3772 05e7 0C        		.uleb128 0xc
 3773 05e8 08        		.uleb128 0x8
 3774 05e9 0000 0000 		.long	.LASF84
 3775 05ed 06        		.byte	0x6
 3776 05ee C204      		.word	0x4c2
 3777 05f0 4001 0000 		.long	0x140
 3778 05f4 02        		.byte	0x2
 3779 05f5 23        		.byte	0x23
 3780 05f6 0E        		.uleb128 0xe
 3781 05f7 08        		.uleb128 0x8
 3782 05f8 0000 0000 		.long	.LASF85
 3783 05fc 06        		.byte	0x6
 3784 05fd C304      		.word	0x4c3
 3785 05ff 4001 0000 		.long	0x140
 3786 0603 02        		.byte	0x2
 3787 0604 23        		.byte	0x23
 3788 0605 0F        		.uleb128 0xf
 3789 0606 17        		.uleb128 0x17
 3790 0607 F803 0000 		.long	0x3f8
 3791 060b 02        		.byte	0x2
 3792 060c 23        		.byte	0x23
 3793 060d 10        		.uleb128 0x10
 3794 060e 17        		.uleb128 0x17
 3795 060f 3B04 0000 		.long	0x43b
 3796 0613 02        		.byte	0x2
 3797 0614 23        		.byte	0x23
 3798 0615 12        		.uleb128 0x12
 3799 0616 17        		.uleb128 0x17
 3800 0617 7E04 0000 		.long	0x47e
 3801 061b 02        		.byte	0x2
 3802 061c 23        		.byte	0x23
 3803 061d 14        		.uleb128 0x14
 3804 061e 17        		.uleb128 0x17
 3805 061f C104 0000 		.long	0x4c1
 3806 0623 02        		.byte	0x2
 3807 0624 23        		.byte	0x23
 3808 0625 16        		.uleb128 0x16
 3809 0626 17        		.uleb128 0x17
 3810 0627 0405 0000 		.long	0x504
 3811 062b 02        		.byte	0x2
 3812 062c 23        		.byte	0x23
 3813 062d 18        		.uleb128 0x18
 3814 062e 08        		.uleb128 0x8
 3815 062f 0000 0000 		.long	.LASF86
 3816 0633 06        		.byte	0x6
 3817 0634 C904      		.word	0x4c9
 3818 0636 4001 0000 		.long	0x140
 3819 063a 02        		.byte	0x2
GAS LISTING /tmp/cc1O4Nc2.s 			page 68


 3820 063b 23        		.byte	0x23
 3821 063c 1A        		.uleb128 0x1a
 3822 063d 08        		.uleb128 0x8
 3823 063e 0000 0000 		.long	.LASF87
 3824 0642 06        		.byte	0x6
 3825 0643 CA04      		.word	0x4ca
 3826 0645 4001 0000 		.long	0x140
 3827 0649 02        		.byte	0x2
 3828 064a 23        		.byte	0x23
 3829 064b 1B        		.uleb128 0x1b
 3830 064c 08        		.uleb128 0x8
 3831 064d 0000 0000 		.long	.LASF88
 3832 0651 06        		.byte	0x6
 3833 0652 CB04      		.word	0x4cb
 3834 0654 4001 0000 		.long	0x140
 3835 0658 02        		.byte	0x2
 3836 0659 23        		.byte	0x23
 3837 065a 1C        		.uleb128 0x1c
 3838 065b 08        		.uleb128 0x8
 3839 065c 0000 0000 		.long	.LASF89
 3840 0660 06        		.byte	0x6
 3841 0661 CC04      		.word	0x4cc
 3842 0663 4001 0000 		.long	0x140
 3843 0667 02        		.byte	0x2
 3844 0668 23        		.byte	0x23
 3845 0669 1D        		.uleb128 0x1d
 3846 066a 08        		.uleb128 0x8
 3847 066b 0000 0000 		.long	.LASF90
 3848 066f 06        		.byte	0x6
 3849 0670 CD04      		.word	0x4cd
 3850 0672 4001 0000 		.long	0x140
 3851 0676 02        		.byte	0x2
 3852 0677 23        		.byte	0x23
 3853 0678 1E        		.uleb128 0x1e
 3854 0679 08        		.uleb128 0x8
 3855 067a 0000 0000 		.long	.LASF91
 3856 067e 06        		.byte	0x6
 3857 067f CE04      		.word	0x4ce
 3858 0681 4001 0000 		.long	0x140
 3859 0685 02        		.byte	0x2
 3860 0686 23        		.byte	0x23
 3861 0687 1F        		.uleb128 0x1f
 3862 0688 09        		.uleb128 0x9
 3863 0689 4348 3000 		.string	"CH0"
 3864 068d 06        		.byte	0x6
 3865 068e CF04      		.word	0x4cf
 3866 0690 8103 0000 		.long	0x381
 3867 0694 02        		.byte	0x2
 3868 0695 23        		.byte	0x23
 3869 0696 20        		.uleb128 0x20
 3870 0697 09        		.uleb128 0x9
 3871 0698 4348 3100 		.string	"CH1"
 3872 069c 06        		.byte	0x6
 3873 069d D004      		.word	0x4d0
 3874 069f 8103 0000 		.long	0x381
 3875 06a3 02        		.byte	0x2
 3876 06a4 23        		.byte	0x23
GAS LISTING /tmp/cc1O4Nc2.s 			page 69


 3877 06a5 28        		.uleb128 0x28
 3878 06a6 09        		.uleb128 0x9
 3879 06a7 4348 3200 		.string	"CH2"
 3880 06ab 06        		.byte	0x6
 3881 06ac D104      		.word	0x4d1
 3882 06ae 8103 0000 		.long	0x381
 3883 06b2 02        		.byte	0x2
 3884 06b3 23        		.byte	0x23
 3885 06b4 30        		.uleb128 0x30
 3886 06b5 09        		.uleb128 0x9
 3887 06b6 4348 3300 		.string	"CH3"
 3888 06ba 06        		.byte	0x6
 3889 06bb D204      		.word	0x4d2
 3890 06bd 8103 0000 		.long	0x381
 3891 06c1 02        		.byte	0x2
 3892 06c2 23        		.byte	0x23
 3893 06c3 38        		.uleb128 0x38
 3894 06c4 00        		.byte	0x0
 3895 06c5 18        		.uleb128 0x18
 3896 06c6 0000 0000 		.long	.LASF92
 3897 06ca 06        		.byte	0x6
 3898 06cb D304      		.word	0x4d3
 3899 06cd 1F05 0000 		.long	0x51f
 3900 06d1 12        		.uleb128 0x12
 3901 06d2 0000 0000 		.long	.LASF93
 3902 06d6 01        		.byte	0x1
 3903 06d7 06        		.byte	0x6
 3904 06d8 FA04      		.word	0x4fa
 3905 06da F706 0000 		.long	0x6f7
 3906 06de 10        		.uleb128 0x10
 3907 06df 0000 0000 		.long	.LASF94
 3908 06e3 00        		.sleb128 0
 3909 06e4 10        		.uleb128 0x10
 3910 06e5 0000 0000 		.long	.LASF95
 3911 06e9 01        		.sleb128 1
 3912 06ea 10        		.uleb128 0x10
 3913 06eb 0000 0000 		.long	.LASF96
 3914 06ef 02        		.sleb128 2
 3915 06f0 10        		.uleb128 0x10
 3916 06f1 0000 0000 		.long	.LASF97
 3917 06f5 03        		.sleb128 3
 3918 06f6 00        		.byte	0x0
 3919 06f7 12        		.uleb128 0x12
 3920 06f8 0000 0000 		.long	.LASF98
 3921 06fc 01        		.byte	0x1
 3922 06fd 06        		.byte	0x6
 3923 06fe 0305      		.word	0x503
 3924 0700 2F07 0000 		.long	0x72f
 3925 0704 10        		.uleb128 0x10
 3926 0705 0000 0000 		.long	.LASF99
 3927 0709 00        		.sleb128 0
 3928 070a 10        		.uleb128 0x10
 3929 070b 0000 0000 		.long	.LASF100
 3930 070f 04        		.sleb128 4
 3931 0710 10        		.uleb128 0x10
 3932 0711 0000 0000 		.long	.LASF101
 3933 0715 08        		.sleb128 8
GAS LISTING /tmp/cc1O4Nc2.s 			page 70


 3934 0716 10        		.uleb128 0x10
 3935 0717 0000 0000 		.long	.LASF102
 3936 071b 0C        		.sleb128 12
 3937 071c 10        		.uleb128 0x10
 3938 071d 0000 0000 		.long	.LASF103
 3939 0721 10        		.sleb128 16
 3940 0722 10        		.uleb128 0x10
 3941 0723 0000 0000 		.long	.LASF104
 3942 0727 14        		.sleb128 20
 3943 0728 10        		.uleb128 0x10
 3944 0729 0000 0000 		.long	.LASF105
 3945 072d 18        		.sleb128 24
 3946 072e 00        		.byte	0x0
 3947 072f 12        		.uleb128 0x12
 3948 0730 0000 0000 		.long	.LASF106
 3949 0734 01        		.byte	0x1
 3950 0735 06        		.byte	0x6
 3951 0736 0F05      		.word	0x50f
 3952 0738 4F07 0000 		.long	0x74f
 3953 073c 10        		.uleb128 0x10
 3954 073d 0000 0000 		.long	.LASF107
 3955 0741 00        		.sleb128 0
 3956 0742 10        		.uleb128 0x10
 3957 0743 0000 0000 		.long	.LASF108
 3958 0747 04        		.sleb128 4
 3959 0748 10        		.uleb128 0x10
 3960 0749 0000 0000 		.long	.LASF109
 3961 074d 06        		.sleb128 6
 3962 074e 00        		.byte	0x0
 3963 074f 12        		.uleb128 0x12
 3964 0750 0000 0000 		.long	.LASF110
 3965 0754 01        		.byte	0x1
 3966 0755 06        		.byte	0x6
 3967 0756 1705      		.word	0x517
 3968 0758 7507 0000 		.long	0x775
 3969 075c 10        		.uleb128 0x10
 3970 075d 0000 0000 		.long	.LASF111
 3971 0761 00        		.sleb128 0
 3972 0762 10        		.uleb128 0x10
 3973 0763 0000 0000 		.long	.LASF112
 3974 0767 10        		.sleb128 16
 3975 0768 10        		.uleb128 0x10
 3976 0769 0000 0000 		.long	.LASF113
 3977 076d 20        		.sleb128 32
 3978 076e 10        		.uleb128 0x10
 3979 076f 0000 0000 		.long	.LASF114
 3980 0773 30        		.sleb128 48
 3981 0774 00        		.byte	0x0
 3982 0775 12        		.uleb128 0x12
 3983 0776 0000 0000 		.long	.LASF115
 3984 077a 01        		.byte	0x1
 3985 077b 06        		.byte	0x6
 3986 077c 4205      		.word	0x542
 3987 077e 9507 0000 		.long	0x795
 3988 0782 10        		.uleb128 0x10
 3989 0783 0000 0000 		.long	.LASF116
 3990 0787 00        		.sleb128 0
GAS LISTING /tmp/cc1O4Nc2.s 			page 71


 3991 0788 10        		.uleb128 0x10
 3992 0789 0000 0000 		.long	.LASF117
 3993 078d 04        		.sleb128 4
 3994 078e 10        		.uleb128 0x10
 3995 078f 0000 0000 		.long	.LASF118
 3996 0793 0C        		.sleb128 12
 3997 0794 00        		.byte	0x0
 3998 0795 12        		.uleb128 0x12
 3999 0796 0000 0000 		.long	.LASF119
 4000 079a 01        		.byte	0x1
 4001 079b 06        		.byte	0x6
 4002 079c 4A05      		.word	0x54a
 4003 079e BB07 0000 		.long	0x7bb
 4004 07a2 10        		.uleb128 0x10
 4005 07a3 0000 0000 		.long	.LASF120
 4006 07a7 00        		.sleb128 0
 4007 07a8 10        		.uleb128 0x10
 4008 07a9 0000 0000 		.long	.LASF121
 4009 07ad 01        		.sleb128 1
 4010 07ae 10        		.uleb128 0x10
 4011 07af 0000 0000 		.long	.LASF122
 4012 07b3 02        		.sleb128 2
 4013 07b4 10        		.uleb128 0x10
 4014 07b5 0000 0000 		.long	.LASF123
 4015 07b9 03        		.sleb128 3
 4016 07ba 00        		.byte	0x0
 4017 07bb 12        		.uleb128 0x12
 4018 07bc 0000 0000 		.long	.LASF124
 4019 07c0 01        		.byte	0x1
 4020 07c1 06        		.byte	0x6
 4021 07c2 5C05      		.word	0x55c
 4022 07c4 F907 0000 		.long	0x7f9
 4023 07c8 10        		.uleb128 0x10
 4024 07c9 0000 0000 		.long	.LASF125
 4025 07cd 00        		.sleb128 0
 4026 07ce 10        		.uleb128 0x10
 4027 07cf 0000 0000 		.long	.LASF126
 4028 07d3 01        		.sleb128 1
 4029 07d4 10        		.uleb128 0x10
 4030 07d5 0000 0000 		.long	.LASF127
 4031 07d9 02        		.sleb128 2
 4032 07da 10        		.uleb128 0x10
 4033 07db 0000 0000 		.long	.LASF128
 4034 07df 03        		.sleb128 3
 4035 07e0 10        		.uleb128 0x10
 4036 07e1 0000 0000 		.long	.LASF129
 4037 07e5 04        		.sleb128 4
 4038 07e6 10        		.uleb128 0x10
 4039 07e7 0000 0000 		.long	.LASF130
 4040 07eb 05        		.sleb128 5
 4041 07ec 10        		.uleb128 0x10
 4042 07ed 0000 0000 		.long	.LASF131
 4043 07f1 06        		.sleb128 6
 4044 07f2 10        		.uleb128 0x10
 4045 07f3 0000 0000 		.long	.LASF132
 4046 07f7 07        		.sleb128 7
 4047 07f8 00        		.byte	0x0
GAS LISTING /tmp/cc1O4Nc2.s 			page 72


 4048 07f9 11        		.uleb128 0x11
 4049 07fa 0000 0000 		.long	.LASF133
 4050 07fe 18        		.byte	0x18
 4051 07ff 06        		.byte	0x6
 4052 0800 5D07      		.word	0x75d
 4053 0802 6E09 0000 		.long	0x96e
 4054 0806 09        		.uleb128 0x9
 4055 0807 4449 5200 		.string	"DIR"
 4056 080b 06        		.byte	0x6
 4057 080c 5E07      		.word	0x75e
 4058 080e 4001 0000 		.long	0x140
 4059 0812 02        		.byte	0x2
 4060 0813 23        		.byte	0x23
 4061 0814 00        		.uleb128 0x0
 4062 0815 08        		.uleb128 0x8
 4063 0816 0000 0000 		.long	.LASF134
 4064 081a 06        		.byte	0x6
 4065 081b 5F07      		.word	0x75f
 4066 081d 4001 0000 		.long	0x140
 4067 0821 02        		.byte	0x2
 4068 0822 23        		.byte	0x23
 4069 0823 01        		.uleb128 0x1
 4070 0824 08        		.uleb128 0x8
 4071 0825 0000 0000 		.long	.LASF135
 4072 0829 06        		.byte	0x6
 4073 082a 6007      		.word	0x760
 4074 082c 4001 0000 		.long	0x140
 4075 0830 02        		.byte	0x2
 4076 0831 23        		.byte	0x23
 4077 0832 02        		.uleb128 0x2
 4078 0833 08        		.uleb128 0x8
 4079 0834 0000 0000 		.long	.LASF136
 4080 0838 06        		.byte	0x6
 4081 0839 6107      		.word	0x761
 4082 083b 4001 0000 		.long	0x140
 4083 083f 02        		.byte	0x2
 4084 0840 23        		.byte	0x23
 4085 0841 03        		.uleb128 0x3
 4086 0842 09        		.uleb128 0x9
 4087 0843 4F55 5400 		.string	"OUT"
 4088 0847 06        		.byte	0x6
 4089 0848 6207      		.word	0x762
 4090 084a 4001 0000 		.long	0x140
 4091 084e 02        		.byte	0x2
 4092 084f 23        		.byte	0x23
 4093 0850 04        		.uleb128 0x4
 4094 0851 08        		.uleb128 0x8
 4095 0852 0000 0000 		.long	.LASF137
 4096 0856 06        		.byte	0x6
 4097 0857 6307      		.word	0x763
 4098 0859 4001 0000 		.long	0x140
 4099 085d 02        		.byte	0x2
 4100 085e 23        		.byte	0x23
 4101 085f 05        		.uleb128 0x5
 4102 0860 08        		.uleb128 0x8
 4103 0861 0000 0000 		.long	.LASF138
 4104 0865 06        		.byte	0x6
GAS LISTING /tmp/cc1O4Nc2.s 			page 73


 4105 0866 6407      		.word	0x764
 4106 0868 4001 0000 		.long	0x140
 4107 086c 02        		.byte	0x2
 4108 086d 23        		.byte	0x23
 4109 086e 06        		.uleb128 0x6
 4110 086f 08        		.uleb128 0x8
 4111 0870 0000 0000 		.long	.LASF139
 4112 0874 06        		.byte	0x6
 4113 0875 6507      		.word	0x765
 4114 0877 4001 0000 		.long	0x140
 4115 087b 02        		.byte	0x2
 4116 087c 23        		.byte	0x23
 4117 087d 07        		.uleb128 0x7
 4118 087e 09        		.uleb128 0x9
 4119 087f 494E 00   		.string	"IN"
 4120 0882 06        		.byte	0x6
 4121 0883 6607      		.word	0x766
 4122 0885 4001 0000 		.long	0x140
 4123 0889 02        		.byte	0x2
 4124 088a 23        		.byte	0x23
 4125 088b 08        		.uleb128 0x8
 4126 088c 08        		.uleb128 0x8
 4127 088d 0000 0000 		.long	.LASF51
 4128 0891 06        		.byte	0x6
 4129 0892 6707      		.word	0x767
 4130 0894 4001 0000 		.long	0x140
 4131 0898 02        		.byte	0x2
 4132 0899 23        		.byte	0x23
 4133 089a 09        		.uleb128 0x9
 4134 089b 08        		.uleb128 0x8
 4135 089c 0000 0000 		.long	.LASF140
 4136 08a0 06        		.byte	0x6
 4137 08a1 6807      		.word	0x768
 4138 08a3 4001 0000 		.long	0x140
 4139 08a7 02        		.byte	0x2
 4140 08a8 23        		.byte	0x23
 4141 08a9 0A        		.uleb128 0xa
 4142 08aa 08        		.uleb128 0x8
 4143 08ab 0000 0000 		.long	.LASF141
 4144 08af 06        		.byte	0x6
 4145 08b0 6907      		.word	0x769
 4146 08b2 4001 0000 		.long	0x140
 4147 08b6 02        		.byte	0x2
 4148 08b7 23        		.byte	0x23
 4149 08b8 0B        		.uleb128 0xb
 4150 08b9 08        		.uleb128 0x8
 4151 08ba 0000 0000 		.long	.LASF52
 4152 08be 06        		.byte	0x6
 4153 08bf 6A07      		.word	0x76a
 4154 08c1 4001 0000 		.long	0x140
 4155 08c5 02        		.byte	0x2
 4156 08c6 23        		.byte	0x23
 4157 08c7 0C        		.uleb128 0xc
 4158 08c8 08        		.uleb128 0x8
 4159 08c9 0000 0000 		.long	.LASF142
 4160 08cd 06        		.byte	0x6
 4161 08ce 6B07      		.word	0x76b
GAS LISTING /tmp/cc1O4Nc2.s 			page 74


 4162 08d0 4001 0000 		.long	0x140
 4163 08d4 02        		.byte	0x2
 4164 08d5 23        		.byte	0x23
 4165 08d6 0D        		.uleb128 0xd
 4166 08d7 08        		.uleb128 0x8
 4167 08d8 0000 0000 		.long	.LASF84
 4168 08dc 06        		.byte	0x6
 4169 08dd 6C07      		.word	0x76c
 4170 08df 4001 0000 		.long	0x140
 4171 08e3 02        		.byte	0x2
 4172 08e4 23        		.byte	0x23
 4173 08e5 0E        		.uleb128 0xe
 4174 08e6 08        		.uleb128 0x8
 4175 08e7 0000 0000 		.long	.LASF85
 4176 08eb 06        		.byte	0x6
 4177 08ec 6D07      		.word	0x76d
 4178 08ee 4001 0000 		.long	0x140
 4179 08f2 02        		.byte	0x2
 4180 08f3 23        		.byte	0x23
 4181 08f4 0F        		.uleb128 0xf
 4182 08f5 08        		.uleb128 0x8
 4183 08f6 0000 0000 		.long	.LASF143
 4184 08fa 06        		.byte	0x6
 4185 08fb 6E07      		.word	0x76e
 4186 08fd 4001 0000 		.long	0x140
 4187 0901 02        		.byte	0x2
 4188 0902 23        		.byte	0x23
 4189 0903 10        		.uleb128 0x10
 4190 0904 08        		.uleb128 0x8
 4191 0905 0000 0000 		.long	.LASF144
 4192 0909 06        		.byte	0x6
 4193 090a 6F07      		.word	0x76f
 4194 090c 4001 0000 		.long	0x140
 4195 0910 02        		.byte	0x2
 4196 0911 23        		.byte	0x23
 4197 0912 11        		.uleb128 0x11
 4198 0913 08        		.uleb128 0x8
 4199 0914 0000 0000 		.long	.LASF145
 4200 0918 06        		.byte	0x6
 4201 0919 7007      		.word	0x770
 4202 091b 4001 0000 		.long	0x140
 4203 091f 02        		.byte	0x2
 4204 0920 23        		.byte	0x23
 4205 0921 12        		.uleb128 0x12
 4206 0922 08        		.uleb128 0x8
 4207 0923 0000 0000 		.long	.LASF146
 4208 0927 06        		.byte	0x6
 4209 0928 7107      		.word	0x771
 4210 092a 4001 0000 		.long	0x140
 4211 092e 02        		.byte	0x2
 4212 092f 23        		.byte	0x23
 4213 0930 13        		.uleb128 0x13
 4214 0931 08        		.uleb128 0x8
 4215 0932 0000 0000 		.long	.LASF147
 4216 0936 06        		.byte	0x6
 4217 0937 7207      		.word	0x772
 4218 0939 4001 0000 		.long	0x140
GAS LISTING /tmp/cc1O4Nc2.s 			page 75


 4219 093d 02        		.byte	0x2
 4220 093e 23        		.byte	0x23
 4221 093f 14        		.uleb128 0x14
 4222 0940 08        		.uleb128 0x8
 4223 0941 0000 0000 		.long	.LASF148
 4224 0945 06        		.byte	0x6
 4225 0946 7307      		.word	0x773
 4226 0948 4001 0000 		.long	0x140
 4227 094c 02        		.byte	0x2
 4228 094d 23        		.byte	0x23
 4229 094e 15        		.uleb128 0x15
 4230 094f 08        		.uleb128 0x8
 4231 0950 0000 0000 		.long	.LASF149
 4232 0954 06        		.byte	0x6
 4233 0955 7407      		.word	0x774
 4234 0957 4001 0000 		.long	0x140
 4235 095b 02        		.byte	0x2
 4236 095c 23        		.byte	0x23
 4237 095d 16        		.uleb128 0x16
 4238 095e 08        		.uleb128 0x8
 4239 095f 0000 0000 		.long	.LASF150
 4240 0963 06        		.byte	0x6
 4241 0964 7507      		.word	0x775
 4242 0966 4001 0000 		.long	0x140
 4243 096a 02        		.byte	0x2
 4244 096b 23        		.byte	0x23
 4245 096c 17        		.uleb128 0x17
 4246 096d 00        		.byte	0x0
 4247 096e 18        		.uleb128 0x18
 4248 096f 0000 0000 		.long	.LASF151
 4249 0973 06        		.byte	0x6
 4250 0974 7607      		.word	0x776
 4251 0976 F907 0000 		.long	0x7f9
 4252 097a 13        		.uleb128 0x13
 4253 097b 02        		.byte	0x2
 4254 097c 06        		.byte	0x6
 4255 097d 3108      		.word	0x831
 4256 097f A209 0000 		.long	0x9a2
 4257 0983 08        		.uleb128 0x8
 4258 0984 0000 0000 		.long	.LASF152
 4259 0988 06        		.byte	0x6
 4260 0989 3108      		.word	0x831
 4261 098b 4001 0000 		.long	0x140
 4262 098f 02        		.byte	0x2
 4263 0990 23        		.byte	0x23
 4264 0991 00        		.uleb128 0x0
 4265 0992 08        		.uleb128 0x8
 4266 0993 0000 0000 		.long	.LASF153
 4267 0997 06        		.byte	0x6
 4268 0998 3108      		.word	0x831
 4269 099a 4001 0000 		.long	0x140
 4270 099e 02        		.byte	0x2
 4271 099f 23        		.byte	0x23
 4272 09a0 01        		.uleb128 0x1
 4273 09a1 00        		.byte	0x0
 4274 09a2 14        		.uleb128 0x14
 4275 09a3 02        		.byte	0x2
GAS LISTING /tmp/cc1O4Nc2.s 			page 76


 4276 09a4 06        		.byte	0x6
 4277 09a5 3108      		.word	0x831
 4278 09a7 BD09 0000 		.long	0x9bd
 4279 09ab 15        		.uleb128 0x15
 4280 09ac 434E 5400 		.string	"CNT"
 4281 09b0 06        		.byte	0x6
 4282 09b1 3108      		.word	0x831
 4283 09b3 C902 0000 		.long	0x2c9
 4284 09b7 16        		.uleb128 0x16
 4285 09b8 7A09 0000 		.long	0x97a
 4286 09bc 00        		.byte	0x0
 4287 09bd 13        		.uleb128 0x13
 4288 09be 02        		.byte	0x2
 4289 09bf 06        		.byte	0x6
 4290 09c0 3608      		.word	0x836
 4291 09c2 E509 0000 		.long	0x9e5
 4292 09c6 08        		.uleb128 0x8
 4293 09c7 0000 0000 		.long	.LASF154
 4294 09cb 06        		.byte	0x6
 4295 09cc 3608      		.word	0x836
 4296 09ce 4001 0000 		.long	0x140
 4297 09d2 02        		.byte	0x2
 4298 09d3 23        		.byte	0x23
 4299 09d4 00        		.uleb128 0x0
 4300 09d5 08        		.uleb128 0x8
 4301 09d6 0000 0000 		.long	.LASF155
 4302 09da 06        		.byte	0x6
 4303 09db 3608      		.word	0x836
 4304 09dd 4001 0000 		.long	0x140
 4305 09e1 02        		.byte	0x2
 4306 09e2 23        		.byte	0x23
 4307 09e3 01        		.uleb128 0x1
 4308 09e4 00        		.byte	0x0
 4309 09e5 14        		.uleb128 0x14
 4310 09e6 02        		.byte	0x2
 4311 09e7 06        		.byte	0x6
 4312 09e8 3608      		.word	0x836
 4313 09ea 000A 0000 		.long	0xa00
 4314 09ee 15        		.uleb128 0x15
 4315 09ef 5045 5200 		.string	"PER"
 4316 09f3 06        		.byte	0x6
 4317 09f4 3608      		.word	0x836
 4318 09f6 C902 0000 		.long	0x2c9
 4319 09fa 16        		.uleb128 0x16
 4320 09fb BD09 0000 		.long	0x9bd
 4321 09ff 00        		.byte	0x0
 4322 0a00 13        		.uleb128 0x13
 4323 0a01 02        		.byte	0x2
 4324 0a02 06        		.byte	0x6
 4325 0a03 3708      		.word	0x837
 4326 0a05 280A 0000 		.long	0xa28
 4327 0a09 08        		.uleb128 0x8
 4328 0a0a 0000 0000 		.long	.LASF156
 4329 0a0e 06        		.byte	0x6
 4330 0a0f 3708      		.word	0x837
 4331 0a11 4001 0000 		.long	0x140
 4332 0a15 02        		.byte	0x2
GAS LISTING /tmp/cc1O4Nc2.s 			page 77


 4333 0a16 23        		.byte	0x23
 4334 0a17 00        		.uleb128 0x0
 4335 0a18 08        		.uleb128 0x8
 4336 0a19 0000 0000 		.long	.LASF157
 4337 0a1d 06        		.byte	0x6
 4338 0a1e 3708      		.word	0x837
 4339 0a20 4001 0000 		.long	0x140
 4340 0a24 02        		.byte	0x2
 4341 0a25 23        		.byte	0x23
 4342 0a26 01        		.uleb128 0x1
 4343 0a27 00        		.byte	0x0
 4344 0a28 14        		.uleb128 0x14
 4345 0a29 02        		.byte	0x2
 4346 0a2a 06        		.byte	0x6
 4347 0a2b 3708      		.word	0x837
 4348 0a2d 430A 0000 		.long	0xa43
 4349 0a31 15        		.uleb128 0x15
 4350 0a32 4343 4100 		.string	"CCA"
 4351 0a36 06        		.byte	0x6
 4352 0a37 3708      		.word	0x837
 4353 0a39 C902 0000 		.long	0x2c9
 4354 0a3d 16        		.uleb128 0x16
 4355 0a3e 000A 0000 		.long	0xa00
 4356 0a42 00        		.byte	0x0
 4357 0a43 13        		.uleb128 0x13
 4358 0a44 02        		.byte	0x2
 4359 0a45 06        		.byte	0x6
 4360 0a46 3808      		.word	0x838
 4361 0a48 6B0A 0000 		.long	0xa6b
 4362 0a4c 08        		.uleb128 0x8
 4363 0a4d 0000 0000 		.long	.LASF158
 4364 0a51 06        		.byte	0x6
 4365 0a52 3808      		.word	0x838
 4366 0a54 4001 0000 		.long	0x140
 4367 0a58 02        		.byte	0x2
 4368 0a59 23        		.byte	0x23
 4369 0a5a 00        		.uleb128 0x0
 4370 0a5b 08        		.uleb128 0x8
 4371 0a5c 0000 0000 		.long	.LASF159
 4372 0a60 06        		.byte	0x6
 4373 0a61 3808      		.word	0x838
 4374 0a63 4001 0000 		.long	0x140
 4375 0a67 02        		.byte	0x2
 4376 0a68 23        		.byte	0x23
 4377 0a69 01        		.uleb128 0x1
 4378 0a6a 00        		.byte	0x0
 4379 0a6b 14        		.uleb128 0x14
 4380 0a6c 02        		.byte	0x2
 4381 0a6d 06        		.byte	0x6
 4382 0a6e 3808      		.word	0x838
 4383 0a70 860A 0000 		.long	0xa86
 4384 0a74 15        		.uleb128 0x15
 4385 0a75 4343 4200 		.string	"CCB"
 4386 0a79 06        		.byte	0x6
 4387 0a7a 3808      		.word	0x838
 4388 0a7c C902 0000 		.long	0x2c9
 4389 0a80 16        		.uleb128 0x16
GAS LISTING /tmp/cc1O4Nc2.s 			page 78


 4390 0a81 430A 0000 		.long	0xa43
 4391 0a85 00        		.byte	0x0
 4392 0a86 13        		.uleb128 0x13
 4393 0a87 02        		.byte	0x2
 4394 0a88 06        		.byte	0x6
 4395 0a89 3908      		.word	0x839
 4396 0a8b AE0A 0000 		.long	0xaae
 4397 0a8f 08        		.uleb128 0x8
 4398 0a90 0000 0000 		.long	.LASF160
 4399 0a94 06        		.byte	0x6
 4400 0a95 3908      		.word	0x839
 4401 0a97 4001 0000 		.long	0x140
 4402 0a9b 02        		.byte	0x2
 4403 0a9c 23        		.byte	0x23
 4404 0a9d 00        		.uleb128 0x0
 4405 0a9e 08        		.uleb128 0x8
 4406 0a9f 0000 0000 		.long	.LASF161
 4407 0aa3 06        		.byte	0x6
 4408 0aa4 3908      		.word	0x839
 4409 0aa6 4001 0000 		.long	0x140
 4410 0aaa 02        		.byte	0x2
 4411 0aab 23        		.byte	0x23
 4412 0aac 01        		.uleb128 0x1
 4413 0aad 00        		.byte	0x0
 4414 0aae 14        		.uleb128 0x14
 4415 0aaf 02        		.byte	0x2
 4416 0ab0 06        		.byte	0x6
 4417 0ab1 3908      		.word	0x839
 4418 0ab3 C90A 0000 		.long	0xac9
 4419 0ab7 15        		.uleb128 0x15
 4420 0ab8 4343 4300 		.string	"CCC"
 4421 0abc 06        		.byte	0x6
 4422 0abd 3908      		.word	0x839
 4423 0abf C902 0000 		.long	0x2c9
 4424 0ac3 16        		.uleb128 0x16
 4425 0ac4 860A 0000 		.long	0xa86
 4426 0ac8 00        		.byte	0x0
 4427 0ac9 13        		.uleb128 0x13
 4428 0aca 02        		.byte	0x2
 4429 0acb 06        		.byte	0x6
 4430 0acc 3A08      		.word	0x83a
 4431 0ace F10A 0000 		.long	0xaf1
 4432 0ad2 08        		.uleb128 0x8
 4433 0ad3 0000 0000 		.long	.LASF162
 4434 0ad7 06        		.byte	0x6
 4435 0ad8 3A08      		.word	0x83a
 4436 0ada 4001 0000 		.long	0x140
 4437 0ade 02        		.byte	0x2
 4438 0adf 23        		.byte	0x23
 4439 0ae0 00        		.uleb128 0x0
 4440 0ae1 08        		.uleb128 0x8
 4441 0ae2 0000 0000 		.long	.LASF163
 4442 0ae6 06        		.byte	0x6
 4443 0ae7 3A08      		.word	0x83a
 4444 0ae9 4001 0000 		.long	0x140
 4445 0aed 02        		.byte	0x2
 4446 0aee 23        		.byte	0x23
GAS LISTING /tmp/cc1O4Nc2.s 			page 79


 4447 0aef 01        		.uleb128 0x1
 4448 0af0 00        		.byte	0x0
 4449 0af1 14        		.uleb128 0x14
 4450 0af2 02        		.byte	0x2
 4451 0af3 06        		.byte	0x6
 4452 0af4 3A08      		.word	0x83a
 4453 0af6 0C0B 0000 		.long	0xb0c
 4454 0afa 15        		.uleb128 0x15
 4455 0afb 4343 4400 		.string	"CCD"
 4456 0aff 06        		.byte	0x6
 4457 0b00 3A08      		.word	0x83a
 4458 0b02 C902 0000 		.long	0x2c9
 4459 0b06 16        		.uleb128 0x16
 4460 0b07 C90A 0000 		.long	0xac9
 4461 0b0b 00        		.byte	0x0
 4462 0b0c 13        		.uleb128 0x13
 4463 0b0d 02        		.byte	0x2
 4464 0b0e 06        		.byte	0x6
 4465 0b0f 4108      		.word	0x841
 4466 0b11 340B 0000 		.long	0xb34
 4467 0b15 08        		.uleb128 0x8
 4468 0b16 0000 0000 		.long	.LASF164
 4469 0b1a 06        		.byte	0x6
 4470 0b1b 4108      		.word	0x841
 4471 0b1d 4001 0000 		.long	0x140
 4472 0b21 02        		.byte	0x2
 4473 0b22 23        		.byte	0x23
 4474 0b23 00        		.uleb128 0x0
 4475 0b24 08        		.uleb128 0x8
 4476 0b25 0000 0000 		.long	.LASF165
 4477 0b29 06        		.byte	0x6
 4478 0b2a 4108      		.word	0x841
 4479 0b2c 4001 0000 		.long	0x140
 4480 0b30 02        		.byte	0x2
 4481 0b31 23        		.byte	0x23
 4482 0b32 01        		.uleb128 0x1
 4483 0b33 00        		.byte	0x0
 4484 0b34 14        		.uleb128 0x14
 4485 0b35 02        		.byte	0x2
 4486 0b36 06        		.byte	0x6
 4487 0b37 4108      		.word	0x841
 4488 0b39 4F0B 0000 		.long	0xb4f
 4489 0b3d 19        		.uleb128 0x19
 4490 0b3e 0000 0000 		.long	.LASF166
 4491 0b42 06        		.byte	0x6
 4492 0b43 4108      		.word	0x841
 4493 0b45 C902 0000 		.long	0x2c9
 4494 0b49 16        		.uleb128 0x16
 4495 0b4a 0C0B 0000 		.long	0xb0c
 4496 0b4e 00        		.byte	0x0
 4497 0b4f 13        		.uleb128 0x13
 4498 0b50 02        		.byte	0x2
 4499 0b51 06        		.byte	0x6
 4500 0b52 4208      		.word	0x842
 4501 0b54 770B 0000 		.long	0xb77
 4502 0b58 08        		.uleb128 0x8
 4503 0b59 0000 0000 		.long	.LASF167
GAS LISTING /tmp/cc1O4Nc2.s 			page 80


 4504 0b5d 06        		.byte	0x6
 4505 0b5e 4208      		.word	0x842
 4506 0b60 4001 0000 		.long	0x140
 4507 0b64 02        		.byte	0x2
 4508 0b65 23        		.byte	0x23
 4509 0b66 00        		.uleb128 0x0
 4510 0b67 08        		.uleb128 0x8
 4511 0b68 0000 0000 		.long	.LASF168
 4512 0b6c 06        		.byte	0x6
 4513 0b6d 4208      		.word	0x842
 4514 0b6f 4001 0000 		.long	0x140
 4515 0b73 02        		.byte	0x2
 4516 0b74 23        		.byte	0x23
 4517 0b75 01        		.uleb128 0x1
 4518 0b76 00        		.byte	0x0
 4519 0b77 14        		.uleb128 0x14
 4520 0b78 02        		.byte	0x2
 4521 0b79 06        		.byte	0x6
 4522 0b7a 4208      		.word	0x842
 4523 0b7c 920B 0000 		.long	0xb92
 4524 0b80 19        		.uleb128 0x19
 4525 0b81 0000 0000 		.long	.LASF169
 4526 0b85 06        		.byte	0x6
 4527 0b86 4208      		.word	0x842
 4528 0b88 C902 0000 		.long	0x2c9
 4529 0b8c 16        		.uleb128 0x16
 4530 0b8d 4F0B 0000 		.long	0xb4f
 4531 0b91 00        		.byte	0x0
 4532 0b92 13        		.uleb128 0x13
 4533 0b93 02        		.byte	0x2
 4534 0b94 06        		.byte	0x6
 4535 0b95 4308      		.word	0x843
 4536 0b97 BA0B 0000 		.long	0xbba
 4537 0b9b 08        		.uleb128 0x8
 4538 0b9c 0000 0000 		.long	.LASF170
 4539 0ba0 06        		.byte	0x6
 4540 0ba1 4308      		.word	0x843
 4541 0ba3 4001 0000 		.long	0x140
 4542 0ba7 02        		.byte	0x2
 4543 0ba8 23        		.byte	0x23
 4544 0ba9 00        		.uleb128 0x0
 4545 0baa 08        		.uleb128 0x8
 4546 0bab 0000 0000 		.long	.LASF171
 4547 0baf 06        		.byte	0x6
 4548 0bb0 4308      		.word	0x843
 4549 0bb2 4001 0000 		.long	0x140
 4550 0bb6 02        		.byte	0x2
 4551 0bb7 23        		.byte	0x23
 4552 0bb8 01        		.uleb128 0x1
 4553 0bb9 00        		.byte	0x0
 4554 0bba 14        		.uleb128 0x14
 4555 0bbb 02        		.byte	0x2
 4556 0bbc 06        		.byte	0x6
 4557 0bbd 4308      		.word	0x843
 4558 0bbf D50B 0000 		.long	0xbd5
 4559 0bc3 19        		.uleb128 0x19
 4560 0bc4 0000 0000 		.long	.LASF172
GAS LISTING /tmp/cc1O4Nc2.s 			page 81


 4561 0bc8 06        		.byte	0x6
 4562 0bc9 4308      		.word	0x843
 4563 0bcb C902 0000 		.long	0x2c9
 4564 0bcf 16        		.uleb128 0x16
 4565 0bd0 920B 0000 		.long	0xb92
 4566 0bd4 00        		.byte	0x0
 4567 0bd5 13        		.uleb128 0x13
 4568 0bd6 02        		.byte	0x2
 4569 0bd7 06        		.byte	0x6
 4570 0bd8 4408      		.word	0x844
 4571 0bda FD0B 0000 		.long	0xbfd
 4572 0bde 08        		.uleb128 0x8
 4573 0bdf 0000 0000 		.long	.LASF173
 4574 0be3 06        		.byte	0x6
 4575 0be4 4408      		.word	0x844
 4576 0be6 4001 0000 		.long	0x140
 4577 0bea 02        		.byte	0x2
 4578 0beb 23        		.byte	0x23
 4579 0bec 00        		.uleb128 0x0
 4580 0bed 08        		.uleb128 0x8
 4581 0bee 0000 0000 		.long	.LASF174
 4582 0bf2 06        		.byte	0x6
 4583 0bf3 4408      		.word	0x844
 4584 0bf5 4001 0000 		.long	0x140
 4585 0bf9 02        		.byte	0x2
 4586 0bfa 23        		.byte	0x23
 4587 0bfb 01        		.uleb128 0x1
 4588 0bfc 00        		.byte	0x0
 4589 0bfd 14        		.uleb128 0x14
 4590 0bfe 02        		.byte	0x2
 4591 0bff 06        		.byte	0x6
 4592 0c00 4408      		.word	0x844
 4593 0c02 180C 0000 		.long	0xc18
 4594 0c06 19        		.uleb128 0x19
 4595 0c07 0000 0000 		.long	.LASF175
 4596 0c0b 06        		.byte	0x6
 4597 0c0c 4408      		.word	0x844
 4598 0c0e C902 0000 		.long	0x2c9
 4599 0c12 16        		.uleb128 0x16
 4600 0c13 D50B 0000 		.long	0xbd5
 4601 0c17 00        		.byte	0x0
 4602 0c18 13        		.uleb128 0x13
 4603 0c19 02        		.byte	0x2
 4604 0c1a 06        		.byte	0x6
 4605 0c1b 4508      		.word	0x845
 4606 0c1d 400C 0000 		.long	0xc40
 4607 0c21 08        		.uleb128 0x8
 4608 0c22 0000 0000 		.long	.LASF176
 4609 0c26 06        		.byte	0x6
 4610 0c27 4508      		.word	0x845
 4611 0c29 4001 0000 		.long	0x140
 4612 0c2d 02        		.byte	0x2
 4613 0c2e 23        		.byte	0x23
 4614 0c2f 00        		.uleb128 0x0
 4615 0c30 08        		.uleb128 0x8
 4616 0c31 0000 0000 		.long	.LASF177
 4617 0c35 06        		.byte	0x6
GAS LISTING /tmp/cc1O4Nc2.s 			page 82


 4618 0c36 4508      		.word	0x845
 4619 0c38 4001 0000 		.long	0x140
 4620 0c3c 02        		.byte	0x2
 4621 0c3d 23        		.byte	0x23
 4622 0c3e 01        		.uleb128 0x1
 4623 0c3f 00        		.byte	0x0
 4624 0c40 14        		.uleb128 0x14
 4625 0c41 02        		.byte	0x2
 4626 0c42 06        		.byte	0x6
 4627 0c43 4508      		.word	0x845
 4628 0c45 5B0C 0000 		.long	0xc5b
 4629 0c49 19        		.uleb128 0x19
 4630 0c4a 0000 0000 		.long	.LASF178
 4631 0c4e 06        		.byte	0x6
 4632 0c4f 4508      		.word	0x845
 4633 0c51 C902 0000 		.long	0x2c9
 4634 0c55 16        		.uleb128 0x16
 4635 0c56 180C 0000 		.long	0xc18
 4636 0c5a 00        		.byte	0x0
 4637 0c5b 11        		.uleb128 0x11
 4638 0c5c 0000 0000 		.long	.LASF179
 4639 0c60 40        		.byte	0x40
 4640 0c61 06        		.byte	0x6
 4641 0c62 1008      		.word	0x810
 4642 0c64 370F 0000 		.long	0xf37
 4643 0c68 08        		.uleb128 0x8
 4644 0c69 0000 0000 		.long	.LASF73
 4645 0c6d 06        		.byte	0x6
 4646 0c6e 1108      		.word	0x811
 4647 0c70 4001 0000 		.long	0x140
 4648 0c74 02        		.byte	0x2
 4649 0c75 23        		.byte	0x23
 4650 0c76 00        		.uleb128 0x0
 4651 0c77 08        		.uleb128 0x8
 4652 0c78 0000 0000 		.long	.LASF74
 4653 0c7c 06        		.byte	0x6
 4654 0c7d 1208      		.word	0x812
 4655 0c7f 4001 0000 		.long	0x140
 4656 0c83 02        		.byte	0x2
 4657 0c84 23        		.byte	0x23
 4658 0c85 01        		.uleb128 0x1
 4659 0c86 08        		.uleb128 0x8
 4660 0c87 0000 0000 		.long	.LASF180
 4661 0c8b 06        		.byte	0x6
 4662 0c8c 1308      		.word	0x813
 4663 0c8e 4001 0000 		.long	0x140
 4664 0c92 02        		.byte	0x2
 4665 0c93 23        		.byte	0x23
 4666 0c94 02        		.uleb128 0x2
 4667 0c95 08        		.uleb128 0x8
 4668 0c96 0000 0000 		.long	.LASF181
 4669 0c9a 06        		.byte	0x6
 4670 0c9b 1408      		.word	0x814
 4671 0c9d 4001 0000 		.long	0x140
 4672 0ca1 02        		.byte	0x2
 4673 0ca2 23        		.byte	0x23
 4674 0ca3 03        		.uleb128 0x3
GAS LISTING /tmp/cc1O4Nc2.s 			page 83


 4675 0ca4 08        		.uleb128 0x8
 4676 0ca5 0000 0000 		.long	.LASF182
 4677 0ca9 06        		.byte	0x6
 4678 0caa 1508      		.word	0x815
 4679 0cac 4001 0000 		.long	0x140
 4680 0cb0 02        		.byte	0x2
 4681 0cb1 23        		.byte	0x23
 4682 0cb2 04        		.uleb128 0x4
 4683 0cb3 08        		.uleb128 0x8
 4684 0cb4 0000 0000 		.long	.LASF183
 4685 0cb8 06        		.byte	0x6
 4686 0cb9 1608      		.word	0x816
 4687 0cbb 4001 0000 		.long	0x140
 4688 0cbf 02        		.byte	0x2
 4689 0cc0 23        		.byte	0x23
 4690 0cc1 05        		.uleb128 0x5
 4691 0cc2 08        		.uleb128 0x8
 4692 0cc3 0000 0000 		.long	.LASF184
 4693 0cc7 06        		.byte	0x6
 4694 0cc8 1708      		.word	0x817
 4695 0cca 4001 0000 		.long	0x140
 4696 0cce 02        		.byte	0x2
 4697 0ccf 23        		.byte	0x23
 4698 0cd0 06        		.uleb128 0x6
 4699 0cd1 08        		.uleb128 0x8
 4700 0cd2 0000 0000 		.long	.LASF185
 4701 0cd6 06        		.byte	0x6
 4702 0cd7 1808      		.word	0x818
 4703 0cd9 4001 0000 		.long	0x140
 4704 0cdd 02        		.byte	0x2
 4705 0cde 23        		.byte	0x23
 4706 0cdf 07        		.uleb128 0x7
 4707 0ce0 08        		.uleb128 0x8
 4708 0ce1 0000 0000 		.long	.LASF186
 4709 0ce5 06        		.byte	0x6
 4710 0ce6 1908      		.word	0x819
 4711 0ce8 4001 0000 		.long	0x140
 4712 0cec 02        		.byte	0x2
 4713 0ced 23        		.byte	0x23
 4714 0cee 08        		.uleb128 0x8
 4715 0cef 08        		.uleb128 0x8
 4716 0cf0 0000 0000 		.long	.LASF187
 4717 0cf4 06        		.byte	0x6
 4718 0cf5 1A08      		.word	0x81a
 4719 0cf7 4001 0000 		.long	0x140
 4720 0cfb 02        		.byte	0x2
 4721 0cfc 23        		.byte	0x23
 4722 0cfd 09        		.uleb128 0x9
 4723 0cfe 08        		.uleb128 0x8
 4724 0cff 0000 0000 		.long	.LASF188
 4725 0d03 06        		.byte	0x6
 4726 0d04 1B08      		.word	0x81b
 4727 0d06 4001 0000 		.long	0x140
 4728 0d0a 02        		.byte	0x2
 4729 0d0b 23        		.byte	0x23
 4730 0d0c 0A        		.uleb128 0xa
 4731 0d0d 08        		.uleb128 0x8
GAS LISTING /tmp/cc1O4Nc2.s 			page 84


 4732 0d0e 0000 0000 		.long	.LASF189
 4733 0d12 06        		.byte	0x6
 4734 0d13 1C08      		.word	0x81c
 4735 0d15 4001 0000 		.long	0x140
 4736 0d19 02        		.byte	0x2
 4737 0d1a 23        		.byte	0x23
 4738 0d1b 0B        		.uleb128 0xb
 4739 0d1c 08        		.uleb128 0x8
 4740 0d1d 0000 0000 		.long	.LASF52
 4741 0d21 06        		.byte	0x6
 4742 0d22 1D08      		.word	0x81d
 4743 0d24 4001 0000 		.long	0x140
 4744 0d28 02        		.byte	0x2
 4745 0d29 23        		.byte	0x23
 4746 0d2a 0C        		.uleb128 0xc
 4747 0d2b 08        		.uleb128 0x8
 4748 0d2c 0000 0000 		.long	.LASF142
 4749 0d30 06        		.byte	0x6
 4750 0d31 1E08      		.word	0x81e
 4751 0d33 4001 0000 		.long	0x140
 4752 0d37 02        		.byte	0x2
 4753 0d38 23        		.byte	0x23
 4754 0d39 0D        		.uleb128 0xd
 4755 0d3a 08        		.uleb128 0x8
 4756 0d3b 0000 0000 		.long	.LASF84
 4757 0d3f 06        		.byte	0x6
 4758 0d40 1F08      		.word	0x81f
 4759 0d42 4001 0000 		.long	0x140
 4760 0d46 02        		.byte	0x2
 4761 0d47 23        		.byte	0x23
 4762 0d48 0E        		.uleb128 0xe
 4763 0d49 08        		.uleb128 0x8
 4764 0d4a 0000 0000 		.long	.LASF190
 4765 0d4e 06        		.byte	0x6
 4766 0d4f 2008      		.word	0x820
 4767 0d51 4001 0000 		.long	0x140
 4768 0d55 02        		.byte	0x2
 4769 0d56 23        		.byte	0x23
 4770 0d57 0F        		.uleb128 0xf
 4771 0d58 08        		.uleb128 0x8
 4772 0d59 0000 0000 		.long	.LASF191
 4773 0d5d 06        		.byte	0x6
 4774 0d5e 2108      		.word	0x821
 4775 0d60 4001 0000 		.long	0x140
 4776 0d64 02        		.byte	0x2
 4777 0d65 23        		.byte	0x23
 4778 0d66 10        		.uleb128 0x10
 4779 0d67 08        		.uleb128 0x8
 4780 0d68 0000 0000 		.long	.LASF192
 4781 0d6c 06        		.byte	0x6
 4782 0d6d 2208      		.word	0x822
 4783 0d6f 4001 0000 		.long	0x140
 4784 0d73 02        		.byte	0x2
 4785 0d74 23        		.byte	0x23
 4786 0d75 11        		.uleb128 0x11
 4787 0d76 08        		.uleb128 0x8
 4788 0d77 0000 0000 		.long	.LASF193
GAS LISTING /tmp/cc1O4Nc2.s 			page 85


 4789 0d7b 06        		.byte	0x6
 4790 0d7c 2308      		.word	0x823
 4791 0d7e 4001 0000 		.long	0x140
 4792 0d82 02        		.byte	0x2
 4793 0d83 23        		.byte	0x23
 4794 0d84 12        		.uleb128 0x12
 4795 0d85 08        		.uleb128 0x8
 4796 0d86 0000 0000 		.long	.LASF194
 4797 0d8a 06        		.byte	0x6
 4798 0d8b 2408      		.word	0x824
 4799 0d8d 4001 0000 		.long	0x140
 4800 0d91 02        		.byte	0x2
 4801 0d92 23        		.byte	0x23
 4802 0d93 13        		.uleb128 0x13
 4803 0d94 08        		.uleb128 0x8
 4804 0d95 0000 0000 		.long	.LASF195
 4805 0d99 06        		.byte	0x6
 4806 0d9a 2508      		.word	0x825
 4807 0d9c 4001 0000 		.long	0x140
 4808 0da0 02        		.byte	0x2
 4809 0da1 23        		.byte	0x23
 4810 0da2 14        		.uleb128 0x14
 4811 0da3 08        		.uleb128 0x8
 4812 0da4 0000 0000 		.long	.LASF196
 4813 0da8 06        		.byte	0x6
 4814 0da9 2608      		.word	0x826
 4815 0dab 4001 0000 		.long	0x140
 4816 0daf 02        		.byte	0x2
 4817 0db0 23        		.byte	0x23
 4818 0db1 15        		.uleb128 0x15
 4819 0db2 08        		.uleb128 0x8
 4820 0db3 0000 0000 		.long	.LASF197
 4821 0db7 06        		.byte	0x6
 4822 0db8 2708      		.word	0x827
 4823 0dba 4001 0000 		.long	0x140
 4824 0dbe 02        		.byte	0x2
 4825 0dbf 23        		.byte	0x23
 4826 0dc0 16        		.uleb128 0x16
 4827 0dc1 08        		.uleb128 0x8
 4828 0dc2 0000 0000 		.long	.LASF198
 4829 0dc6 06        		.byte	0x6
 4830 0dc7 2808      		.word	0x828
 4831 0dc9 4001 0000 		.long	0x140
 4832 0dcd 02        		.byte	0x2
 4833 0dce 23        		.byte	0x23
 4834 0dcf 17        		.uleb128 0x17
 4835 0dd0 08        		.uleb128 0x8
 4836 0dd1 0000 0000 		.long	.LASF199
 4837 0dd5 06        		.byte	0x6
 4838 0dd6 2908      		.word	0x829
 4839 0dd8 4001 0000 		.long	0x140
 4840 0ddc 02        		.byte	0x2
 4841 0ddd 23        		.byte	0x23
 4842 0dde 18        		.uleb128 0x18
 4843 0ddf 08        		.uleb128 0x8
 4844 0de0 0000 0000 		.long	.LASF200
 4845 0de4 06        		.byte	0x6
GAS LISTING /tmp/cc1O4Nc2.s 			page 86


 4846 0de5 2A08      		.word	0x82a
 4847 0de7 4001 0000 		.long	0x140
 4848 0deb 02        		.byte	0x2
 4849 0dec 23        		.byte	0x23
 4850 0ded 19        		.uleb128 0x19
 4851 0dee 08        		.uleb128 0x8
 4852 0def 0000 0000 		.long	.LASF86
 4853 0df3 06        		.byte	0x6
 4854 0df4 2B08      		.word	0x82b
 4855 0df6 4001 0000 		.long	0x140
 4856 0dfa 02        		.byte	0x2
 4857 0dfb 23        		.byte	0x23
 4858 0dfc 1A        		.uleb128 0x1a
 4859 0dfd 08        		.uleb128 0x8
 4860 0dfe 0000 0000 		.long	.LASF87
 4861 0e02 06        		.byte	0x6
 4862 0e03 2C08      		.word	0x82c
 4863 0e05 4001 0000 		.long	0x140
 4864 0e09 02        		.byte	0x2
 4865 0e0a 23        		.byte	0x23
 4866 0e0b 1B        		.uleb128 0x1b
 4867 0e0c 08        		.uleb128 0x8
 4868 0e0d 0000 0000 		.long	.LASF88
 4869 0e11 06        		.byte	0x6
 4870 0e12 2D08      		.word	0x82d
 4871 0e14 4001 0000 		.long	0x140
 4872 0e18 02        		.byte	0x2
 4873 0e19 23        		.byte	0x23
 4874 0e1a 1C        		.uleb128 0x1c
 4875 0e1b 08        		.uleb128 0x8
 4876 0e1c 0000 0000 		.long	.LASF89
 4877 0e20 06        		.byte	0x6
 4878 0e21 2E08      		.word	0x82e
 4879 0e23 4001 0000 		.long	0x140
 4880 0e27 02        		.byte	0x2
 4881 0e28 23        		.byte	0x23
 4882 0e29 1D        		.uleb128 0x1d
 4883 0e2a 08        		.uleb128 0x8
 4884 0e2b 0000 0000 		.long	.LASF90
 4885 0e2f 06        		.byte	0x6
 4886 0e30 2F08      		.word	0x82f
 4887 0e32 4001 0000 		.long	0x140
 4888 0e36 02        		.byte	0x2
 4889 0e37 23        		.byte	0x23
 4890 0e38 1E        		.uleb128 0x1e
 4891 0e39 08        		.uleb128 0x8
 4892 0e3a 0000 0000 		.long	.LASF91
 4893 0e3e 06        		.byte	0x6
 4894 0e3f 3008      		.word	0x830
 4895 0e41 4001 0000 		.long	0x140
 4896 0e45 02        		.byte	0x2
 4897 0e46 23        		.byte	0x23
 4898 0e47 1F        		.uleb128 0x1f
 4899 0e48 17        		.uleb128 0x17
 4900 0e49 A209 0000 		.long	0x9a2
 4901 0e4d 02        		.byte	0x2
 4902 0e4e 23        		.byte	0x23
GAS LISTING /tmp/cc1O4Nc2.s 			page 87


 4903 0e4f 20        		.uleb128 0x20
 4904 0e50 08        		.uleb128 0x8
 4905 0e51 0000 0000 		.long	.LASF201
 4906 0e55 06        		.byte	0x6
 4907 0e56 3208      		.word	0x832
 4908 0e58 4001 0000 		.long	0x140
 4909 0e5c 02        		.byte	0x2
 4910 0e5d 23        		.byte	0x23
 4911 0e5e 22        		.uleb128 0x22
 4912 0e5f 08        		.uleb128 0x8
 4913 0e60 0000 0000 		.long	.LASF202
 4914 0e64 06        		.byte	0x6
 4915 0e65 3308      		.word	0x833
 4916 0e67 4001 0000 		.long	0x140
 4917 0e6b 02        		.byte	0x2
 4918 0e6c 23        		.byte	0x23
 4919 0e6d 23        		.uleb128 0x23
 4920 0e6e 08        		.uleb128 0x8
 4921 0e6f 0000 0000 		.long	.LASF203
 4922 0e73 06        		.byte	0x6
 4923 0e74 3408      		.word	0x834
 4924 0e76 4001 0000 		.long	0x140
 4925 0e7a 02        		.byte	0x2
 4926 0e7b 23        		.byte	0x23
 4927 0e7c 24        		.uleb128 0x24
 4928 0e7d 08        		.uleb128 0x8
 4929 0e7e 0000 0000 		.long	.LASF204
 4930 0e82 06        		.byte	0x6
 4931 0e83 3508      		.word	0x835
 4932 0e85 4001 0000 		.long	0x140
 4933 0e89 02        		.byte	0x2
 4934 0e8a 23        		.byte	0x23
 4935 0e8b 25        		.uleb128 0x25
 4936 0e8c 17        		.uleb128 0x17
 4937 0e8d E509 0000 		.long	0x9e5
 4938 0e91 02        		.byte	0x2
 4939 0e92 23        		.byte	0x23
 4940 0e93 26        		.uleb128 0x26
 4941 0e94 17        		.uleb128 0x17
 4942 0e95 280A 0000 		.long	0xa28
 4943 0e99 02        		.byte	0x2
 4944 0e9a 23        		.byte	0x23
 4945 0e9b 28        		.uleb128 0x28
 4946 0e9c 17        		.uleb128 0x17
 4947 0e9d 6B0A 0000 		.long	0xa6b
 4948 0ea1 02        		.byte	0x2
 4949 0ea2 23        		.byte	0x23
 4950 0ea3 2A        		.uleb128 0x2a
 4951 0ea4 17        		.uleb128 0x17
 4952 0ea5 AE0A 0000 		.long	0xaae
 4953 0ea9 02        		.byte	0x2
 4954 0eaa 23        		.byte	0x23
 4955 0eab 2C        		.uleb128 0x2c
 4956 0eac 17        		.uleb128 0x17
 4957 0ead F10A 0000 		.long	0xaf1
 4958 0eb1 02        		.byte	0x2
 4959 0eb2 23        		.byte	0x23
GAS LISTING /tmp/cc1O4Nc2.s 			page 88


 4960 0eb3 2E        		.uleb128 0x2e
 4961 0eb4 08        		.uleb128 0x8
 4962 0eb5 0000 0000 		.long	.LASF205
 4963 0eb9 06        		.byte	0x6
 4964 0eba 3B08      		.word	0x83b
 4965 0ebc 4001 0000 		.long	0x140
 4966 0ec0 02        		.byte	0x2
 4967 0ec1 23        		.byte	0x23
 4968 0ec2 30        		.uleb128 0x30
 4969 0ec3 08        		.uleb128 0x8
 4970 0ec4 0000 0000 		.long	.LASF206
 4971 0ec8 06        		.byte	0x6
 4972 0ec9 3C08      		.word	0x83c
 4973 0ecb 4001 0000 		.long	0x140
 4974 0ecf 02        		.byte	0x2
 4975 0ed0 23        		.byte	0x23
 4976 0ed1 31        		.uleb128 0x31
 4977 0ed2 08        		.uleb128 0x8
 4978 0ed3 0000 0000 		.long	.LASF207
 4979 0ed7 06        		.byte	0x6
 4980 0ed8 3D08      		.word	0x83d
 4981 0eda 4001 0000 		.long	0x140
 4982 0ede 02        		.byte	0x2
 4983 0edf 23        		.byte	0x23
 4984 0ee0 32        		.uleb128 0x32
 4985 0ee1 08        		.uleb128 0x8
 4986 0ee2 0000 0000 		.long	.LASF208
 4987 0ee6 06        		.byte	0x6
 4988 0ee7 3E08      		.word	0x83e
 4989 0ee9 4001 0000 		.long	0x140
 4990 0eed 02        		.byte	0x2
 4991 0eee 23        		.byte	0x23
 4992 0eef 33        		.uleb128 0x33
 4993 0ef0 08        		.uleb128 0x8
 4994 0ef1 0000 0000 		.long	.LASF209
 4995 0ef5 06        		.byte	0x6
 4996 0ef6 3F08      		.word	0x83f
 4997 0ef8 4001 0000 		.long	0x140
 4998 0efc 02        		.byte	0x2
 4999 0efd 23        		.byte	0x23
 5000 0efe 34        		.uleb128 0x34
 5001 0eff 08        		.uleb128 0x8
 5002 0f00 0000 0000 		.long	.LASF210
 5003 0f04 06        		.byte	0x6
 5004 0f05 4008      		.word	0x840
 5005 0f07 4001 0000 		.long	0x140
 5006 0f0b 02        		.byte	0x2
 5007 0f0c 23        		.byte	0x23
 5008 0f0d 35        		.uleb128 0x35
 5009 0f0e 17        		.uleb128 0x17
 5010 0f0f 340B 0000 		.long	0xb34
 5011 0f13 02        		.byte	0x2
 5012 0f14 23        		.byte	0x23
 5013 0f15 36        		.uleb128 0x36
 5014 0f16 17        		.uleb128 0x17
 5015 0f17 770B 0000 		.long	0xb77
 5016 0f1b 02        		.byte	0x2
GAS LISTING /tmp/cc1O4Nc2.s 			page 89


 5017 0f1c 23        		.byte	0x23
 5018 0f1d 38        		.uleb128 0x38
 5019 0f1e 17        		.uleb128 0x17
 5020 0f1f BA0B 0000 		.long	0xbba
 5021 0f23 02        		.byte	0x2
 5022 0f24 23        		.byte	0x23
 5023 0f25 3A        		.uleb128 0x3a
 5024 0f26 17        		.uleb128 0x17
 5025 0f27 FD0B 0000 		.long	0xbfd
 5026 0f2b 02        		.byte	0x2
 5027 0f2c 23        		.byte	0x23
 5028 0f2d 3C        		.uleb128 0x3c
 5029 0f2e 17        		.uleb128 0x17
 5030 0f2f 400C 0000 		.long	0xc40
 5031 0f33 02        		.byte	0x2
 5032 0f34 23        		.byte	0x23
 5033 0f35 3E        		.uleb128 0x3e
 5034 0f36 00        		.byte	0x0
 5035 0f37 18        		.uleb128 0x18
 5036 0f38 0000 0000 		.long	.LASF211
 5037 0f3c 06        		.byte	0x6
 5038 0f3d 4608      		.word	0x846
 5039 0f3f 5B0C 0000 		.long	0xc5b
 5040 0f43 13        		.uleb128 0x13
 5041 0f44 02        		.byte	0x2
 5042 0f45 06        		.byte	0x6
 5043 0f46 7108      		.word	0x871
 5044 0f48 6B0F 0000 		.long	0xf6b
 5045 0f4c 08        		.uleb128 0x8
 5046 0f4d 0000 0000 		.long	.LASF152
 5047 0f51 06        		.byte	0x6
 5048 0f52 7108      		.word	0x871
 5049 0f54 4001 0000 		.long	0x140
 5050 0f58 02        		.byte	0x2
 5051 0f59 23        		.byte	0x23
 5052 0f5a 00        		.uleb128 0x0
 5053 0f5b 08        		.uleb128 0x8
 5054 0f5c 0000 0000 		.long	.LASF153
 5055 0f60 06        		.byte	0x6
 5056 0f61 7108      		.word	0x871
 5057 0f63 4001 0000 		.long	0x140
 5058 0f67 02        		.byte	0x2
 5059 0f68 23        		.byte	0x23
 5060 0f69 01        		.uleb128 0x1
 5061 0f6a 00        		.byte	0x0
 5062 0f6b 14        		.uleb128 0x14
 5063 0f6c 02        		.byte	0x2
 5064 0f6d 06        		.byte	0x6
 5065 0f6e 7108      		.word	0x871
 5066 0f70 860F 0000 		.long	0xf86
 5067 0f74 15        		.uleb128 0x15
 5068 0f75 434E 5400 		.string	"CNT"
 5069 0f79 06        		.byte	0x6
 5070 0f7a 7108      		.word	0x871
 5071 0f7c C902 0000 		.long	0x2c9
 5072 0f80 16        		.uleb128 0x16
 5073 0f81 430F 0000 		.long	0xf43
GAS LISTING /tmp/cc1O4Nc2.s 			page 90


 5074 0f85 00        		.byte	0x0
 5075 0f86 13        		.uleb128 0x13
 5076 0f87 02        		.byte	0x2
 5077 0f88 06        		.byte	0x6
 5078 0f89 7608      		.word	0x876
 5079 0f8b AE0F 0000 		.long	0xfae
 5080 0f8f 08        		.uleb128 0x8
 5081 0f90 0000 0000 		.long	.LASF154
 5082 0f94 06        		.byte	0x6
 5083 0f95 7608      		.word	0x876
 5084 0f97 4001 0000 		.long	0x140
 5085 0f9b 02        		.byte	0x2
 5086 0f9c 23        		.byte	0x23
 5087 0f9d 00        		.uleb128 0x0
 5088 0f9e 08        		.uleb128 0x8
 5089 0f9f 0000 0000 		.long	.LASF155
 5090 0fa3 06        		.byte	0x6
 5091 0fa4 7608      		.word	0x876
 5092 0fa6 4001 0000 		.long	0x140
 5093 0faa 02        		.byte	0x2
 5094 0fab 23        		.byte	0x23
 5095 0fac 01        		.uleb128 0x1
 5096 0fad 00        		.byte	0x0
 5097 0fae 14        		.uleb128 0x14
 5098 0faf 02        		.byte	0x2
 5099 0fb0 06        		.byte	0x6
 5100 0fb1 7608      		.word	0x876
 5101 0fb3 C90F 0000 		.long	0xfc9
 5102 0fb7 15        		.uleb128 0x15
 5103 0fb8 5045 5200 		.string	"PER"
 5104 0fbc 06        		.byte	0x6
 5105 0fbd 7608      		.word	0x876
 5106 0fbf C902 0000 		.long	0x2c9
 5107 0fc3 16        		.uleb128 0x16
 5108 0fc4 860F 0000 		.long	0xf86
 5109 0fc8 00        		.byte	0x0
 5110 0fc9 13        		.uleb128 0x13
 5111 0fca 02        		.byte	0x2
 5112 0fcb 06        		.byte	0x6
 5113 0fcc 7708      		.word	0x877
 5114 0fce F10F 0000 		.long	0xff1
 5115 0fd2 08        		.uleb128 0x8
 5116 0fd3 0000 0000 		.long	.LASF156
 5117 0fd7 06        		.byte	0x6
 5118 0fd8 7708      		.word	0x877
 5119 0fda 4001 0000 		.long	0x140
 5120 0fde 02        		.byte	0x2
 5121 0fdf 23        		.byte	0x23
 5122 0fe0 00        		.uleb128 0x0
 5123 0fe1 08        		.uleb128 0x8
 5124 0fe2 0000 0000 		.long	.LASF157
 5125 0fe6 06        		.byte	0x6
 5126 0fe7 7708      		.word	0x877
 5127 0fe9 4001 0000 		.long	0x140
 5128 0fed 02        		.byte	0x2
 5129 0fee 23        		.byte	0x23
 5130 0fef 01        		.uleb128 0x1
GAS LISTING /tmp/cc1O4Nc2.s 			page 91


 5131 0ff0 00        		.byte	0x0
 5132 0ff1 14        		.uleb128 0x14
 5133 0ff2 02        		.byte	0x2
 5134 0ff3 06        		.byte	0x6
 5135 0ff4 7708      		.word	0x877
 5136 0ff6 0C10 0000 		.long	0x100c
 5137 0ffa 15        		.uleb128 0x15
 5138 0ffb 4343 4100 		.string	"CCA"
 5139 0fff 06        		.byte	0x6
 5140 1000 7708      		.word	0x877
 5141 1002 C902 0000 		.long	0x2c9
 5142 1006 16        		.uleb128 0x16
 5143 1007 C90F 0000 		.long	0xfc9
 5144 100b 00        		.byte	0x0
 5145 100c 13        		.uleb128 0x13
 5146 100d 02        		.byte	0x2
 5147 100e 06        		.byte	0x6
 5148 100f 7808      		.word	0x878
 5149 1011 3410 0000 		.long	0x1034
 5150 1015 08        		.uleb128 0x8
 5151 1016 0000 0000 		.long	.LASF158
 5152 101a 06        		.byte	0x6
 5153 101b 7808      		.word	0x878
 5154 101d 4001 0000 		.long	0x140
 5155 1021 02        		.byte	0x2
 5156 1022 23        		.byte	0x23
 5157 1023 00        		.uleb128 0x0
 5158 1024 08        		.uleb128 0x8
 5159 1025 0000 0000 		.long	.LASF159
 5160 1029 06        		.byte	0x6
 5161 102a 7808      		.word	0x878
 5162 102c 4001 0000 		.long	0x140
 5163 1030 02        		.byte	0x2
 5164 1031 23        		.byte	0x23
 5165 1032 01        		.uleb128 0x1
 5166 1033 00        		.byte	0x0
 5167 1034 14        		.uleb128 0x14
 5168 1035 02        		.byte	0x2
 5169 1036 06        		.byte	0x6
 5170 1037 7808      		.word	0x878
 5171 1039 4F10 0000 		.long	0x104f
 5172 103d 15        		.uleb128 0x15
 5173 103e 4343 4200 		.string	"CCB"
 5174 1042 06        		.byte	0x6
 5175 1043 7808      		.word	0x878
 5176 1045 C902 0000 		.long	0x2c9
 5177 1049 16        		.uleb128 0x16
 5178 104a 0C10 0000 		.long	0x100c
 5179 104e 00        		.byte	0x0
 5180 104f 13        		.uleb128 0x13
 5181 1050 02        		.byte	0x2
 5182 1051 06        		.byte	0x6
 5183 1052 8308      		.word	0x883
 5184 1054 7710 0000 		.long	0x1077
 5185 1058 08        		.uleb128 0x8
 5186 1059 0000 0000 		.long	.LASF164
 5187 105d 06        		.byte	0x6
GAS LISTING /tmp/cc1O4Nc2.s 			page 92


 5188 105e 8308      		.word	0x883
 5189 1060 4001 0000 		.long	0x140
 5190 1064 02        		.byte	0x2
 5191 1065 23        		.byte	0x23
 5192 1066 00        		.uleb128 0x0
 5193 1067 08        		.uleb128 0x8
 5194 1068 0000 0000 		.long	.LASF165
 5195 106c 06        		.byte	0x6
 5196 106d 8308      		.word	0x883
 5197 106f 4001 0000 		.long	0x140
 5198 1073 02        		.byte	0x2
 5199 1074 23        		.byte	0x23
 5200 1075 01        		.uleb128 0x1
 5201 1076 00        		.byte	0x0
 5202 1077 14        		.uleb128 0x14
 5203 1078 02        		.byte	0x2
 5204 1079 06        		.byte	0x6
 5205 107a 8308      		.word	0x883
 5206 107c 9210 0000 		.long	0x1092
 5207 1080 19        		.uleb128 0x19
 5208 1081 0000 0000 		.long	.LASF166
 5209 1085 06        		.byte	0x6
 5210 1086 8308      		.word	0x883
 5211 1088 C902 0000 		.long	0x2c9
 5212 108c 16        		.uleb128 0x16
 5213 108d 4F10 0000 		.long	0x104f
 5214 1091 00        		.byte	0x0
 5215 1092 13        		.uleb128 0x13
 5216 1093 02        		.byte	0x2
 5217 1094 06        		.byte	0x6
 5218 1095 8408      		.word	0x884
 5219 1097 BA10 0000 		.long	0x10ba
 5220 109b 08        		.uleb128 0x8
 5221 109c 0000 0000 		.long	.LASF167
 5222 10a0 06        		.byte	0x6
 5223 10a1 8408      		.word	0x884
 5224 10a3 4001 0000 		.long	0x140
 5225 10a7 02        		.byte	0x2
 5226 10a8 23        		.byte	0x23
 5227 10a9 00        		.uleb128 0x0
 5228 10aa 08        		.uleb128 0x8
 5229 10ab 0000 0000 		.long	.LASF168
 5230 10af 06        		.byte	0x6
 5231 10b0 8408      		.word	0x884
 5232 10b2 4001 0000 		.long	0x140
 5233 10b6 02        		.byte	0x2
 5234 10b7 23        		.byte	0x23
 5235 10b8 01        		.uleb128 0x1
 5236 10b9 00        		.byte	0x0
 5237 10ba 14        		.uleb128 0x14
 5238 10bb 02        		.byte	0x2
 5239 10bc 06        		.byte	0x6
 5240 10bd 8408      		.word	0x884
 5241 10bf D510 0000 		.long	0x10d5
 5242 10c3 19        		.uleb128 0x19
 5243 10c4 0000 0000 		.long	.LASF169
 5244 10c8 06        		.byte	0x6
GAS LISTING /tmp/cc1O4Nc2.s 			page 93


 5245 10c9 8408      		.word	0x884
 5246 10cb C902 0000 		.long	0x2c9
 5247 10cf 16        		.uleb128 0x16
 5248 10d0 9210 0000 		.long	0x1092
 5249 10d4 00        		.byte	0x0
 5250 10d5 13        		.uleb128 0x13
 5251 10d6 02        		.byte	0x2
 5252 10d7 06        		.byte	0x6
 5253 10d8 8508      		.word	0x885
 5254 10da FD10 0000 		.long	0x10fd
 5255 10de 08        		.uleb128 0x8
 5256 10df 0000 0000 		.long	.LASF170
 5257 10e3 06        		.byte	0x6
 5258 10e4 8508      		.word	0x885
 5259 10e6 4001 0000 		.long	0x140
 5260 10ea 02        		.byte	0x2
 5261 10eb 23        		.byte	0x23
 5262 10ec 00        		.uleb128 0x0
 5263 10ed 08        		.uleb128 0x8
 5264 10ee 0000 0000 		.long	.LASF171
 5265 10f2 06        		.byte	0x6
 5266 10f3 8508      		.word	0x885
 5267 10f5 4001 0000 		.long	0x140
 5268 10f9 02        		.byte	0x2
 5269 10fa 23        		.byte	0x23
 5270 10fb 01        		.uleb128 0x1
 5271 10fc 00        		.byte	0x0
 5272 10fd 14        		.uleb128 0x14
 5273 10fe 02        		.byte	0x2
 5274 10ff 06        		.byte	0x6
 5275 1100 8508      		.word	0x885
 5276 1102 1811 0000 		.long	0x1118
 5277 1106 19        		.uleb128 0x19
 5278 1107 0000 0000 		.long	.LASF172
 5279 110b 06        		.byte	0x6
 5280 110c 8508      		.word	0x885
 5281 110e C902 0000 		.long	0x2c9
 5282 1112 16        		.uleb128 0x16
 5283 1113 D510 0000 		.long	0x10d5
 5284 1117 00        		.byte	0x0
 5285 1118 11        		.uleb128 0x11
 5286 1119 0000 0000 		.long	.LASF212
 5287 111d 3C        		.byte	0x3c
 5288 111e 06        		.byte	0x6
 5289 111f 5008      		.word	0x850
 5290 1121 1014 0000 		.long	0x1410
 5291 1125 08        		.uleb128 0x8
 5292 1126 0000 0000 		.long	.LASF73
 5293 112a 06        		.byte	0x6
 5294 112b 5108      		.word	0x851
 5295 112d 4001 0000 		.long	0x140
 5296 1131 02        		.byte	0x2
 5297 1132 23        		.byte	0x23
 5298 1133 00        		.uleb128 0x0
 5299 1134 08        		.uleb128 0x8
 5300 1135 0000 0000 		.long	.LASF74
 5301 1139 06        		.byte	0x6
GAS LISTING /tmp/cc1O4Nc2.s 			page 94


 5302 113a 5208      		.word	0x852
 5303 113c 4001 0000 		.long	0x140
 5304 1140 02        		.byte	0x2
 5305 1141 23        		.byte	0x23
 5306 1142 01        		.uleb128 0x1
 5307 1143 08        		.uleb128 0x8
 5308 1144 0000 0000 		.long	.LASF180
 5309 1148 06        		.byte	0x6
 5310 1149 5308      		.word	0x853
 5311 114b 4001 0000 		.long	0x140
 5312 114f 02        		.byte	0x2
 5313 1150 23        		.byte	0x23
 5314 1151 02        		.uleb128 0x2
 5315 1152 08        		.uleb128 0x8
 5316 1153 0000 0000 		.long	.LASF181
 5317 1157 06        		.byte	0x6
 5318 1158 5408      		.word	0x854
 5319 115a 4001 0000 		.long	0x140
 5320 115e 02        		.byte	0x2
 5321 115f 23        		.byte	0x23
 5322 1160 03        		.uleb128 0x3
 5323 1161 08        		.uleb128 0x8
 5324 1162 0000 0000 		.long	.LASF182
 5325 1166 06        		.byte	0x6
 5326 1167 5508      		.word	0x855
 5327 1169 4001 0000 		.long	0x140
 5328 116d 02        		.byte	0x2
 5329 116e 23        		.byte	0x23
 5330 116f 04        		.uleb128 0x4
 5331 1170 08        		.uleb128 0x8
 5332 1171 0000 0000 		.long	.LASF183
 5333 1175 06        		.byte	0x6
 5334 1176 5608      		.word	0x856
 5335 1178 4001 0000 		.long	0x140
 5336 117c 02        		.byte	0x2
 5337 117d 23        		.byte	0x23
 5338 117e 05        		.uleb128 0x5
 5339 117f 08        		.uleb128 0x8
 5340 1180 0000 0000 		.long	.LASF184
 5341 1184 06        		.byte	0x6
 5342 1185 5708      		.word	0x857
 5343 1187 4001 0000 		.long	0x140
 5344 118b 02        		.byte	0x2
 5345 118c 23        		.byte	0x23
 5346 118d 06        		.uleb128 0x6
 5347 118e 08        		.uleb128 0x8
 5348 118f 0000 0000 		.long	.LASF185
 5349 1193 06        		.byte	0x6
 5350 1194 5808      		.word	0x858
 5351 1196 4001 0000 		.long	0x140
 5352 119a 02        		.byte	0x2
 5353 119b 23        		.byte	0x23
 5354 119c 07        		.uleb128 0x7
 5355 119d 08        		.uleb128 0x8
 5356 119e 0000 0000 		.long	.LASF186
 5357 11a2 06        		.byte	0x6
 5358 11a3 5908      		.word	0x859
GAS LISTING /tmp/cc1O4Nc2.s 			page 95


 5359 11a5 4001 0000 		.long	0x140
 5360 11a9 02        		.byte	0x2
 5361 11aa 23        		.byte	0x23
 5362 11ab 08        		.uleb128 0x8
 5363 11ac 08        		.uleb128 0x8
 5364 11ad 0000 0000 		.long	.LASF187
 5365 11b1 06        		.byte	0x6
 5366 11b2 5A08      		.word	0x85a
 5367 11b4 4001 0000 		.long	0x140
 5368 11b8 02        		.byte	0x2
 5369 11b9 23        		.byte	0x23
 5370 11ba 09        		.uleb128 0x9
 5371 11bb 08        		.uleb128 0x8
 5372 11bc 0000 0000 		.long	.LASF188
 5373 11c0 06        		.byte	0x6
 5374 11c1 5B08      		.word	0x85b
 5375 11c3 4001 0000 		.long	0x140
 5376 11c7 02        		.byte	0x2
 5377 11c8 23        		.byte	0x23
 5378 11c9 0A        		.uleb128 0xa
 5379 11ca 08        		.uleb128 0x8
 5380 11cb 0000 0000 		.long	.LASF189
 5381 11cf 06        		.byte	0x6
 5382 11d0 5C08      		.word	0x85c
 5383 11d2 4001 0000 		.long	0x140
 5384 11d6 02        		.byte	0x2
 5385 11d7 23        		.byte	0x23
 5386 11d8 0B        		.uleb128 0xb
 5387 11d9 08        		.uleb128 0x8
 5388 11da 0000 0000 		.long	.LASF52
 5389 11de 06        		.byte	0x6
 5390 11df 5D08      		.word	0x85d
 5391 11e1 4001 0000 		.long	0x140
 5392 11e5 02        		.byte	0x2
 5393 11e6 23        		.byte	0x23
 5394 11e7 0C        		.uleb128 0xc
 5395 11e8 08        		.uleb128 0x8
 5396 11e9 0000 0000 		.long	.LASF142
 5397 11ed 06        		.byte	0x6
 5398 11ee 5E08      		.word	0x85e
 5399 11f0 4001 0000 		.long	0x140
 5400 11f4 02        		.byte	0x2
 5401 11f5 23        		.byte	0x23
 5402 11f6 0D        		.uleb128 0xd
 5403 11f7 08        		.uleb128 0x8
 5404 11f8 0000 0000 		.long	.LASF84
 5405 11fc 06        		.byte	0x6
 5406 11fd 5F08      		.word	0x85f
 5407 11ff 4001 0000 		.long	0x140
 5408 1203 02        		.byte	0x2
 5409 1204 23        		.byte	0x23
 5410 1205 0E        		.uleb128 0xe
 5411 1206 08        		.uleb128 0x8
 5412 1207 0000 0000 		.long	.LASF190
 5413 120b 06        		.byte	0x6
 5414 120c 6008      		.word	0x860
 5415 120e 4001 0000 		.long	0x140
GAS LISTING /tmp/cc1O4Nc2.s 			page 96


 5416 1212 02        		.byte	0x2
 5417 1213 23        		.byte	0x23
 5418 1214 0F        		.uleb128 0xf
 5419 1215 08        		.uleb128 0x8
 5420 1216 0000 0000 		.long	.LASF191
 5421 121a 06        		.byte	0x6
 5422 121b 6108      		.word	0x861
 5423 121d 4001 0000 		.long	0x140
 5424 1221 02        		.byte	0x2
 5425 1222 23        		.byte	0x23
 5426 1223 10        		.uleb128 0x10
 5427 1224 08        		.uleb128 0x8
 5428 1225 0000 0000 		.long	.LASF192
 5429 1229 06        		.byte	0x6
 5430 122a 6208      		.word	0x862
 5431 122c 4001 0000 		.long	0x140
 5432 1230 02        		.byte	0x2
 5433 1231 23        		.byte	0x23
 5434 1232 11        		.uleb128 0x11
 5435 1233 08        		.uleb128 0x8
 5436 1234 0000 0000 		.long	.LASF193
 5437 1238 06        		.byte	0x6
 5438 1239 6308      		.word	0x863
 5439 123b 4001 0000 		.long	0x140
 5440 123f 02        		.byte	0x2
 5441 1240 23        		.byte	0x23
 5442 1241 12        		.uleb128 0x12
 5443 1242 08        		.uleb128 0x8
 5444 1243 0000 0000 		.long	.LASF194
 5445 1247 06        		.byte	0x6
 5446 1248 6408      		.word	0x864
 5447 124a 4001 0000 		.long	0x140
 5448 124e 02        		.byte	0x2
 5449 124f 23        		.byte	0x23
 5450 1250 13        		.uleb128 0x13
 5451 1251 08        		.uleb128 0x8
 5452 1252 0000 0000 		.long	.LASF195
 5453 1256 06        		.byte	0x6
 5454 1257 6508      		.word	0x865
 5455 1259 4001 0000 		.long	0x140
 5456 125d 02        		.byte	0x2
 5457 125e 23        		.byte	0x23
 5458 125f 14        		.uleb128 0x14
 5459 1260 08        		.uleb128 0x8
 5460 1261 0000 0000 		.long	.LASF196
 5461 1265 06        		.byte	0x6
 5462 1266 6608      		.word	0x866
 5463 1268 4001 0000 		.long	0x140
 5464 126c 02        		.byte	0x2
 5465 126d 23        		.byte	0x23
 5466 126e 15        		.uleb128 0x15
 5467 126f 08        		.uleb128 0x8
 5468 1270 0000 0000 		.long	.LASF197
 5469 1274 06        		.byte	0x6
 5470 1275 6708      		.word	0x867
 5471 1277 4001 0000 		.long	0x140
 5472 127b 02        		.byte	0x2
GAS LISTING /tmp/cc1O4Nc2.s 			page 97


 5473 127c 23        		.byte	0x23
 5474 127d 16        		.uleb128 0x16
 5475 127e 08        		.uleb128 0x8
 5476 127f 0000 0000 		.long	.LASF198
 5477 1283 06        		.byte	0x6
 5478 1284 6808      		.word	0x868
 5479 1286 4001 0000 		.long	0x140
 5480 128a 02        		.byte	0x2
 5481 128b 23        		.byte	0x23
 5482 128c 17        		.uleb128 0x17
 5483 128d 08        		.uleb128 0x8
 5484 128e 0000 0000 		.long	.LASF199
 5485 1292 06        		.byte	0x6
 5486 1293 6908      		.word	0x869
 5487 1295 4001 0000 		.long	0x140
 5488 1299 02        		.byte	0x2
 5489 129a 23        		.byte	0x23
 5490 129b 18        		.uleb128 0x18
 5491 129c 08        		.uleb128 0x8
 5492 129d 0000 0000 		.long	.LASF200
 5493 12a1 06        		.byte	0x6
 5494 12a2 6A08      		.word	0x86a
 5495 12a4 4001 0000 		.long	0x140
 5496 12a8 02        		.byte	0x2
 5497 12a9 23        		.byte	0x23
 5498 12aa 19        		.uleb128 0x19
 5499 12ab 08        		.uleb128 0x8
 5500 12ac 0000 0000 		.long	.LASF86
 5501 12b0 06        		.byte	0x6
 5502 12b1 6B08      		.word	0x86b
 5503 12b3 4001 0000 		.long	0x140
 5504 12b7 02        		.byte	0x2
 5505 12b8 23        		.byte	0x23
 5506 12b9 1A        		.uleb128 0x1a
 5507 12ba 08        		.uleb128 0x8
 5508 12bb 0000 0000 		.long	.LASF87
 5509 12bf 06        		.byte	0x6
 5510 12c0 6C08      		.word	0x86c
 5511 12c2 4001 0000 		.long	0x140
 5512 12c6 02        		.byte	0x2
 5513 12c7 23        		.byte	0x23
 5514 12c8 1B        		.uleb128 0x1b
 5515 12c9 08        		.uleb128 0x8
 5516 12ca 0000 0000 		.long	.LASF88
 5517 12ce 06        		.byte	0x6
 5518 12cf 6D08      		.word	0x86d
 5519 12d1 4001 0000 		.long	0x140
 5520 12d5 02        		.byte	0x2
 5521 12d6 23        		.byte	0x23
 5522 12d7 1C        		.uleb128 0x1c
 5523 12d8 08        		.uleb128 0x8
 5524 12d9 0000 0000 		.long	.LASF89
 5525 12dd 06        		.byte	0x6
 5526 12de 6E08      		.word	0x86e
 5527 12e0 4001 0000 		.long	0x140
 5528 12e4 02        		.byte	0x2
 5529 12e5 23        		.byte	0x23
GAS LISTING /tmp/cc1O4Nc2.s 			page 98


 5530 12e6 1D        		.uleb128 0x1d
 5531 12e7 08        		.uleb128 0x8
 5532 12e8 0000 0000 		.long	.LASF90
 5533 12ec 06        		.byte	0x6
 5534 12ed 6F08      		.word	0x86f
 5535 12ef 4001 0000 		.long	0x140
 5536 12f3 02        		.byte	0x2
 5537 12f4 23        		.byte	0x23
 5538 12f5 1E        		.uleb128 0x1e
 5539 12f6 08        		.uleb128 0x8
 5540 12f7 0000 0000 		.long	.LASF91
 5541 12fb 06        		.byte	0x6
 5542 12fc 7008      		.word	0x870
 5543 12fe 4001 0000 		.long	0x140
 5544 1302 02        		.byte	0x2
 5545 1303 23        		.byte	0x23
 5546 1304 1F        		.uleb128 0x1f
 5547 1305 17        		.uleb128 0x17
 5548 1306 6B0F 0000 		.long	0xf6b
 5549 130a 02        		.byte	0x2
 5550 130b 23        		.byte	0x23
 5551 130c 20        		.uleb128 0x20
 5552 130d 08        		.uleb128 0x8
 5553 130e 0000 0000 		.long	.LASF201
 5554 1312 06        		.byte	0x6
 5555 1313 7208      		.word	0x872
 5556 1315 4001 0000 		.long	0x140
 5557 1319 02        		.byte	0x2
 5558 131a 23        		.byte	0x23
 5559 131b 22        		.uleb128 0x22
 5560 131c 08        		.uleb128 0x8
 5561 131d 0000 0000 		.long	.LASF202
 5562 1321 06        		.byte	0x6
 5563 1322 7308      		.word	0x873
 5564 1324 4001 0000 		.long	0x140
 5565 1328 02        		.byte	0x2
 5566 1329 23        		.byte	0x23
 5567 132a 23        		.uleb128 0x23
 5568 132b 08        		.uleb128 0x8
 5569 132c 0000 0000 		.long	.LASF203
 5570 1330 06        		.byte	0x6
 5571 1331 7408      		.word	0x874
 5572 1333 4001 0000 		.long	0x140
 5573 1337 02        		.byte	0x2
 5574 1338 23        		.byte	0x23
 5575 1339 24        		.uleb128 0x24
 5576 133a 08        		.uleb128 0x8
 5577 133b 0000 0000 		.long	.LASF204
 5578 133f 06        		.byte	0x6
 5579 1340 7508      		.word	0x875
 5580 1342 4001 0000 		.long	0x140
 5581 1346 02        		.byte	0x2
 5582 1347 23        		.byte	0x23
 5583 1348 25        		.uleb128 0x25
 5584 1349 17        		.uleb128 0x17
 5585 134a AE0F 0000 		.long	0xfae
 5586 134e 02        		.byte	0x2
GAS LISTING /tmp/cc1O4Nc2.s 			page 99


 5587 134f 23        		.byte	0x23
 5588 1350 26        		.uleb128 0x26
 5589 1351 17        		.uleb128 0x17
 5590 1352 F10F 0000 		.long	0xff1
 5591 1356 02        		.byte	0x2
 5592 1357 23        		.byte	0x23
 5593 1358 28        		.uleb128 0x28
 5594 1359 17        		.uleb128 0x17
 5595 135a 3410 0000 		.long	0x1034
 5596 135e 02        		.byte	0x2
 5597 135f 23        		.byte	0x23
 5598 1360 2A        		.uleb128 0x2a
 5599 1361 08        		.uleb128 0x8
 5600 1362 0000 0000 		.long	.LASF213
 5601 1366 06        		.byte	0x6
 5602 1367 7908      		.word	0x879
 5603 1369 4001 0000 		.long	0x140
 5604 136d 02        		.byte	0x2
 5605 136e 23        		.byte	0x23
 5606 136f 2C        		.uleb128 0x2c
 5607 1370 08        		.uleb128 0x8
 5608 1371 0000 0000 		.long	.LASF214
 5609 1375 06        		.byte	0x6
 5610 1376 7A08      		.word	0x87a
 5611 1378 4001 0000 		.long	0x140
 5612 137c 02        		.byte	0x2
 5613 137d 23        		.byte	0x23
 5614 137e 2D        		.uleb128 0x2d
 5615 137f 08        		.uleb128 0x8
 5616 1380 0000 0000 		.long	.LASF215
 5617 1384 06        		.byte	0x6
 5618 1385 7B08      		.word	0x87b
 5619 1387 4001 0000 		.long	0x140
 5620 138b 02        		.byte	0x2
 5621 138c 23        		.byte	0x23
 5622 138d 2E        		.uleb128 0x2e
 5623 138e 08        		.uleb128 0x8
 5624 138f 0000 0000 		.long	.LASF216
 5625 1393 06        		.byte	0x6
 5626 1394 7C08      		.word	0x87c
 5627 1396 4001 0000 		.long	0x140
 5628 139a 02        		.byte	0x2
 5629 139b 23        		.byte	0x23
 5630 139c 2F        		.uleb128 0x2f
 5631 139d 08        		.uleb128 0x8
 5632 139e 0000 0000 		.long	.LASF205
 5633 13a2 06        		.byte	0x6
 5634 13a3 7D08      		.word	0x87d
 5635 13a5 4001 0000 		.long	0x140
 5636 13a9 02        		.byte	0x2
 5637 13aa 23        		.byte	0x23
 5638 13ab 30        		.uleb128 0x30
 5639 13ac 08        		.uleb128 0x8
 5640 13ad 0000 0000 		.long	.LASF206
 5641 13b1 06        		.byte	0x6
 5642 13b2 7E08      		.word	0x87e
 5643 13b4 4001 0000 		.long	0x140
GAS LISTING /tmp/cc1O4Nc2.s 			page 100


 5644 13b8 02        		.byte	0x2
 5645 13b9 23        		.byte	0x23
 5646 13ba 31        		.uleb128 0x31
 5647 13bb 08        		.uleb128 0x8
 5648 13bc 0000 0000 		.long	.LASF207
 5649 13c0 06        		.byte	0x6
 5650 13c1 7F08      		.word	0x87f
 5651 13c3 4001 0000 		.long	0x140
 5652 13c7 02        		.byte	0x2
 5653 13c8 23        		.byte	0x23
 5654 13c9 32        		.uleb128 0x32
 5655 13ca 08        		.uleb128 0x8
 5656 13cb 0000 0000 		.long	.LASF208
 5657 13cf 06        		.byte	0x6
 5658 13d0 8008      		.word	0x880
 5659 13d2 4001 0000 		.long	0x140
 5660 13d6 02        		.byte	0x2
 5661 13d7 23        		.byte	0x23
 5662 13d8 33        		.uleb128 0x33
 5663 13d9 08        		.uleb128 0x8
 5664 13da 0000 0000 		.long	.LASF209
 5665 13de 06        		.byte	0x6
 5666 13df 8108      		.word	0x881
 5667 13e1 4001 0000 		.long	0x140
 5668 13e5 02        		.byte	0x2
 5669 13e6 23        		.byte	0x23
 5670 13e7 34        		.uleb128 0x34
 5671 13e8 08        		.uleb128 0x8
 5672 13e9 0000 0000 		.long	.LASF210
 5673 13ed 06        		.byte	0x6
 5674 13ee 8208      		.word	0x882
 5675 13f0 4001 0000 		.long	0x140
 5676 13f4 02        		.byte	0x2
 5677 13f5 23        		.byte	0x23
 5678 13f6 35        		.uleb128 0x35
 5679 13f7 17        		.uleb128 0x17
 5680 13f8 7710 0000 		.long	0x1077
 5681 13fc 02        		.byte	0x2
 5682 13fd 23        		.byte	0x23
 5683 13fe 36        		.uleb128 0x36
 5684 13ff 17        		.uleb128 0x17
 5685 1400 BA10 0000 		.long	0x10ba
 5686 1404 02        		.byte	0x2
 5687 1405 23        		.byte	0x23
 5688 1406 38        		.uleb128 0x38
 5689 1407 17        		.uleb128 0x17
 5690 1408 FD10 0000 		.long	0x10fd
 5691 140c 02        		.byte	0x2
 5692 140d 23        		.byte	0x23
 5693 140e 3A        		.uleb128 0x3a
 5694 140f 00        		.byte	0x0
 5695 1410 18        		.uleb128 0x18
 5696 1411 0000 0000 		.long	.LASF217
 5697 1415 06        		.byte	0x6
 5698 1416 8608      		.word	0x886
 5699 1418 1811 0000 		.long	0x1118
 5700 141c 11        		.uleb128 0x11
GAS LISTING /tmp/cc1O4Nc2.s 			page 101


 5701 141d 0000 0000 		.long	.LASF218
 5702 1421 01        		.byte	0x1
 5703 1422 06        		.byte	0x6
 5704 1423 A808      		.word	0x8a8
 5705 1425 3914 0000 		.long	0x1439
 5706 1429 08        		.uleb128 0x8
 5707 142a 0000 0000 		.long	.LASF18
 5708 142e 06        		.byte	0x6
 5709 142f A908      		.word	0x8a9
 5710 1431 4001 0000 		.long	0x140
 5711 1435 02        		.byte	0x2
 5712 1436 23        		.byte	0x23
 5713 1437 00        		.uleb128 0x0
 5714 1438 00        		.byte	0x0
 5715 1439 18        		.uleb128 0x18
 5716 143a 0000 0000 		.long	.LASF219
 5717 143e 06        		.byte	0x6
 5718 143f AA08      		.word	0x8aa
 5719 1441 1C14 0000 		.long	0x141c
 5720 1445 12        		.uleb128 0x12
 5721 1446 0000 0000 		.long	.LASF220
 5722 144a 01        		.byte	0x1
 5723 144b 06        		.byte	0x6
 5724 144c AE08      		.word	0x8ae
 5725 144e B314 0000 		.long	0x14b3
 5726 1452 10        		.uleb128 0x10
 5727 1453 0000 0000 		.long	.LASF221
 5728 1457 00        		.sleb128 0
 5729 1458 10        		.uleb128 0x10
 5730 1459 0000 0000 		.long	.LASF222
 5731 145d 01        		.sleb128 1
 5732 145e 10        		.uleb128 0x10
 5733 145f 0000 0000 		.long	.LASF223
 5734 1463 02        		.sleb128 2
 5735 1464 10        		.uleb128 0x10
 5736 1465 0000 0000 		.long	.LASF224
 5737 1469 03        		.sleb128 3
 5738 146a 10        		.uleb128 0x10
 5739 146b 0000 0000 		.long	.LASF225
 5740 146f 04        		.sleb128 4
 5741 1470 10        		.uleb128 0x10
 5742 1471 0000 0000 		.long	.LASF226
 5743 1475 05        		.sleb128 5
 5744 1476 10        		.uleb128 0x10
 5745 1477 0000 0000 		.long	.LASF227
 5746 147b 06        		.sleb128 6
 5747 147c 10        		.uleb128 0x10
 5748 147d 0000 0000 		.long	.LASF228
 5749 1481 07        		.sleb128 7
 5750 1482 10        		.uleb128 0x10
 5751 1483 0000 0000 		.long	.LASF229
 5752 1487 08        		.sleb128 8
 5753 1488 10        		.uleb128 0x10
 5754 1489 0000 0000 		.long	.LASF230
 5755 148d 09        		.sleb128 9
 5756 148e 10        		.uleb128 0x10
 5757 148f 0000 0000 		.long	.LASF231
GAS LISTING /tmp/cc1O4Nc2.s 			page 102


 5758 1493 0A        		.sleb128 10
 5759 1494 10        		.uleb128 0x10
 5760 1495 0000 0000 		.long	.LASF232
 5761 1499 0B        		.sleb128 11
 5762 149a 10        		.uleb128 0x10
 5763 149b 0000 0000 		.long	.LASF233
 5764 149f 0C        		.sleb128 12
 5765 14a0 10        		.uleb128 0x10
 5766 14a1 0000 0000 		.long	.LASF234
 5767 14a5 0D        		.sleb128 13
 5768 14a6 10        		.uleb128 0x10
 5769 14a7 0000 0000 		.long	.LASF235
 5770 14ab 0E        		.sleb128 14
 5771 14ac 10        		.uleb128 0x10
 5772 14ad 0000 0000 		.long	.LASF236
 5773 14b1 0F        		.sleb128 15
 5774 14b2 00        		.byte	0x0
 5775 14b3 12        		.uleb128 0x12
 5776 14b4 0000 0000 		.long	.LASF237
 5777 14b8 01        		.byte	0x1
 5778 14b9 06        		.byte	0x6
 5779 14ba C308      		.word	0x8c3
 5780 14bc E514 0000 		.long	0x14e5
 5781 14c0 10        		.uleb128 0x10
 5782 14c1 0000 0000 		.long	.LASF238
 5783 14c5 00        		.sleb128 0
 5784 14c6 10        		.uleb128 0x10
 5785 14c7 0000 0000 		.long	.LASF239
 5786 14cb 01        		.sleb128 1
 5787 14cc 10        		.uleb128 0x10
 5788 14cd 0000 0000 		.long	.LASF240
 5789 14d1 03        		.sleb128 3
 5790 14d2 10        		.uleb128 0x10
 5791 14d3 0000 0000 		.long	.LASF241
 5792 14d7 05        		.sleb128 5
 5793 14d8 10        		.uleb128 0x10
 5794 14d9 0000 0000 		.long	.LASF242
 5795 14dd 06        		.sleb128 6
 5796 14de 10        		.uleb128 0x10
 5797 14df 0000 0000 		.long	.LASF243
 5798 14e3 07        		.sleb128 7
 5799 14e4 00        		.byte	0x0
 5800 14e5 12        		.uleb128 0x12
 5801 14e6 0000 0000 		.long	.LASF244
 5802 14ea 01        		.byte	0x1
 5803 14eb 06        		.byte	0x6
 5804 14ec F108      		.word	0x8f1
 5805 14ee 0B15 0000 		.long	0x150b
 5806 14f2 10        		.uleb128 0x10
 5807 14f3 0000 0000 		.long	.LASF245
 5808 14f7 00        		.sleb128 0
 5809 14f8 10        		.uleb128 0x10
 5810 14f9 0000 0000 		.long	.LASF246
 5811 14fd 01        		.sleb128 1
 5812 14fe 10        		.uleb128 0x10
 5813 14ff 0000 0000 		.long	.LASF247
 5814 1503 02        		.sleb128 2
GAS LISTING /tmp/cc1O4Nc2.s 			page 103


 5815 1504 10        		.uleb128 0x10
 5816 1505 0000 0000 		.long	.LASF248
 5817 1509 03        		.sleb128 3
 5818 150a 00        		.byte	0x0
 5819 150b 12        		.uleb128 0x12
 5820 150c 0000 0000 		.long	.LASF249
 5821 1510 01        		.byte	0x1
 5822 1511 06        		.byte	0x6
 5823 1512 0C09      		.word	0x90c
 5824 1514 3115 0000 		.long	0x1531
 5825 1518 10        		.uleb128 0x10
 5826 1519 0000 0000 		.long	.LASF250
 5827 151d 00        		.sleb128 0
 5828 151e 10        		.uleb128 0x10
 5829 151f 0000 0000 		.long	.LASF251
 5830 1523 04        		.sleb128 4
 5831 1524 10        		.uleb128 0x10
 5832 1525 0000 0000 		.long	.LASF252
 5833 1529 08        		.sleb128 8
 5834 152a 10        		.uleb128 0x10
 5835 152b 0000 0000 		.long	.LASF253
 5836 152f 0C        		.sleb128 12
 5837 1530 00        		.byte	0x0
 5838 1531 12        		.uleb128 0x12
 5839 1532 0000 0000 		.long	.LASF254
 5840 1536 01        		.byte	0x1
 5841 1537 06        		.byte	0x6
 5842 1538 2F09      		.word	0x92f
 5843 153a 5715 0000 		.long	0x1557
 5844 153e 10        		.uleb128 0x10
 5845 153f 0000 0000 		.long	.LASF255
 5846 1543 00        		.sleb128 0
 5847 1544 10        		.uleb128 0x10
 5848 1545 0000 0000 		.long	.LASF256
 5849 1549 01        		.sleb128 1
 5850 154a 10        		.uleb128 0x10
 5851 154b 0000 0000 		.long	.LASF257
 5852 154f 02        		.sleb128 2
 5853 1550 10        		.uleb128 0x10
 5854 1551 0000 0000 		.long	.LASF258
 5855 1555 03        		.sleb128 3
 5856 1556 00        		.byte	0x0
 5857 1557 11        		.uleb128 0x11
 5858 1558 0000 0000 		.long	.LASF259
 5859 155c 08        		.byte	0x8
 5860 155d 06        		.byte	0x6
 5861 155e 3F09      		.word	0x93f
 5862 1560 DD15 0000 		.long	0x15dd
 5863 1564 08        		.uleb128 0x8
 5864 1565 0000 0000 		.long	.LASF260
 5865 1569 06        		.byte	0x6
 5866 156a 4009      		.word	0x940
 5867 156c 4001 0000 		.long	0x140
 5868 1570 02        		.byte	0x2
 5869 1571 23        		.byte	0x23
 5870 1572 00        		.uleb128 0x0
 5871 1573 08        		.uleb128 0x8
GAS LISTING /tmp/cc1O4Nc2.s 			page 104


 5872 1574 0000 0000 		.long	.LASF35
 5873 1578 06        		.byte	0x6
 5874 1579 4109      		.word	0x941
 5875 157b 4001 0000 		.long	0x140
 5876 157f 02        		.byte	0x2
 5877 1580 23        		.byte	0x23
 5878 1581 01        		.uleb128 0x1
 5879 1582 08        		.uleb128 0x8
 5880 1583 0000 0000 		.long	.LASF261
 5881 1587 06        		.byte	0x6
 5882 1588 4209      		.word	0x942
 5883 158a 4001 0000 		.long	0x140
 5884 158e 02        		.byte	0x2
 5885 158f 23        		.byte	0x23
 5886 1590 02        		.uleb128 0x2
 5887 1591 08        		.uleb128 0x8
 5888 1592 0000 0000 		.long	.LASF73
 5889 1596 06        		.byte	0x6
 5890 1597 4309      		.word	0x943
 5891 1599 4001 0000 		.long	0x140
 5892 159d 02        		.byte	0x2
 5893 159e 23        		.byte	0x23
 5894 159f 03        		.uleb128 0x3
 5895 15a0 08        		.uleb128 0x8
 5896 15a1 0000 0000 		.long	.LASF74
 5897 15a5 06        		.byte	0x6
 5898 15a6 4409      		.word	0x944
 5899 15a8 4001 0000 		.long	0x140
 5900 15ac 02        		.byte	0x2
 5901 15ad 23        		.byte	0x23
 5902 15ae 04        		.uleb128 0x4
 5903 15af 08        		.uleb128 0x8
 5904 15b0 0000 0000 		.long	.LASF180
 5905 15b4 06        		.byte	0x6
 5906 15b5 4509      		.word	0x945
 5907 15b7 4001 0000 		.long	0x140
 5908 15bb 02        		.byte	0x2
 5909 15bc 23        		.byte	0x23
 5910 15bd 05        		.uleb128 0x5
 5911 15be 08        		.uleb128 0x8
 5912 15bf 0000 0000 		.long	.LASF262
 5913 15c3 06        		.byte	0x6
 5914 15c4 4609      		.word	0x946
 5915 15c6 4001 0000 		.long	0x140
 5916 15ca 02        		.byte	0x2
 5917 15cb 23        		.byte	0x23
 5918 15cc 06        		.uleb128 0x6
 5919 15cd 08        		.uleb128 0x8
 5920 15ce 0000 0000 		.long	.LASF263
 5921 15d2 06        		.byte	0x6
 5922 15d3 4709      		.word	0x947
 5923 15d5 4001 0000 		.long	0x140
 5924 15d9 02        		.byte	0x2
 5925 15da 23        		.byte	0x23
 5926 15db 07        		.uleb128 0x7
 5927 15dc 00        		.byte	0x0
 5928 15dd 11        		.uleb128 0x11
GAS LISTING /tmp/cc1O4Nc2.s 			page 105


 5929 15de 0000 0000 		.long	.LASF264
 5930 15e2 04        		.byte	0x4
 5931 15e3 06        		.byte	0x6
 5932 15e4 8909      		.word	0x989
 5933 15e6 2716 0000 		.long	0x1627
 5934 15ea 08        		.uleb128 0x8
 5935 15eb 0000 0000 		.long	.LASF18
 5936 15ef 06        		.byte	0x6
 5937 15f0 8A09      		.word	0x98a
 5938 15f2 4001 0000 		.long	0x140
 5939 15f6 02        		.byte	0x2
 5940 15f7 23        		.byte	0x23
 5941 15f8 00        		.uleb128 0x0
 5942 15f9 08        		.uleb128 0x8
 5943 15fa 0000 0000 		.long	.LASF51
 5944 15fe 06        		.byte	0x6
 5945 15ff 8B09      		.word	0x98b
 5946 1601 4001 0000 		.long	0x140
 5947 1605 02        		.byte	0x2
 5948 1606 23        		.byte	0x23
 5949 1607 01        		.uleb128 0x1
 5950 1608 08        		.uleb128 0x8
 5951 1609 0000 0000 		.long	.LASF35
 5952 160d 06        		.byte	0x6
 5953 160e 8C09      		.word	0x98c
 5954 1610 4001 0000 		.long	0x140
 5955 1614 02        		.byte	0x2
 5956 1615 23        		.byte	0x23
 5957 1616 02        		.uleb128 0x2
 5958 1617 08        		.uleb128 0x8
 5959 1618 0000 0000 		.long	.LASF260
 5960 161c 06        		.byte	0x6
 5961 161d 8D09      		.word	0x98d
 5962 161f 4001 0000 		.long	0x140
 5963 1623 02        		.byte	0x2
 5964 1624 23        		.byte	0x23
 5965 1625 03        		.uleb128 0x3
 5966 1626 00        		.byte	0x0
 5967 1627 18        		.uleb128 0x18
 5968 1628 0000 0000 		.long	.LASF265
 5969 162c 06        		.byte	0x6
 5970 162d 8E09      		.word	0x98e
 5971 162f DD15 0000 		.long	0x15dd
 5972 1633 12        		.uleb128 0x12
 5973 1634 0000 0000 		.long	.LASF266
 5974 1638 01        		.byte	0x1
 5975 1639 06        		.byte	0x6
 5976 163a 9209      		.word	0x992
 5977 163c 5916 0000 		.long	0x1659
 5978 1640 10        		.uleb128 0x10
 5979 1641 0000 0000 		.long	.LASF267
 5980 1645 00        		.sleb128 0
 5981 1646 10        		.uleb128 0x10
 5982 1647 0000 0000 		.long	.LASF268
 5983 164b 04        		.sleb128 4
 5984 164c 10        		.uleb128 0x10
 5985 164d 0000 0000 		.long	.LASF269
GAS LISTING /tmp/cc1O4Nc2.s 			page 106


 5986 1651 08        		.sleb128 8
 5987 1652 10        		.uleb128 0x10
 5988 1653 0000 0000 		.long	.LASF270
 5989 1657 0C        		.sleb128 12
 5990 1658 00        		.byte	0x0
 5991 1659 12        		.uleb128 0x12
 5992 165a 0000 0000 		.long	.LASF271
 5993 165e 01        		.byte	0x1
 5994 165f 06        		.byte	0x6
 5995 1660 A409      		.word	0x9a4
 5996 1662 7F16 0000 		.long	0x167f
 5997 1666 10        		.uleb128 0x10
 5998 1667 0000 0000 		.long	.LASF272
 5999 166b 00        		.sleb128 0
 6000 166c 10        		.uleb128 0x10
 6001 166d 0000 0000 		.long	.LASF273
 6002 1671 01        		.sleb128 1
 6003 1672 10        		.uleb128 0x10
 6004 1673 0000 0000 		.long	.LASF274
 6005 1677 02        		.sleb128 2
 6006 1678 10        		.uleb128 0x10
 6007 1679 0000 0000 		.long	.LASF275
 6008 167d 03        		.sleb128 3
 6009 167e 00        		.byte	0x0
 6010 167f 1A        		.uleb128 0x1a
 6011 1680 02        		.byte	0x2
 6012 1681 07        		.byte	0x7
 6013 1682 1A        		.uleb128 0x1a
 6014 1683 01        		.byte	0x1
 6015 1684 08        		.byte	0x8
 6016 1685 0A        		.uleb128 0xa
 6017 1686 02        		.byte	0x2
 6018 1687 6E09 0000 		.long	0x96e
 6019 168b 02        		.uleb128 0x2
 6020 168c 01        		.byte	0x1
 6021 168d 02        		.byte	0x2
 6022 168e 0000 0000 		.long	.LASF276
 6023 1692 0A        		.uleb128 0xa
 6024 1693 02        		.byte	0x2
 6025 1694 2716 0000 		.long	0x1627
 6026 1698 05        		.uleb128 0x5
 6027 1699 0000 0000 		.long	.LASF277
 6028 169d 04        		.byte	0x4
 6029 169e 07        		.byte	0x7
 6030 169f 67        		.byte	0x67
 6031 16a0 C116 0000 		.long	0x16c1
 6032 16a4 07        		.uleb128 0x7
 6033 16a5 0000 0000 		.long	.LASF278
 6034 16a9 07        		.byte	0x7
 6035 16aa 68        		.byte	0x68
 6036 16ab 9216 0000 		.long	0x1692
 6037 16af 02        		.byte	0x2
 6038 16b0 23        		.byte	0x23
 6039 16b1 00        		.uleb128 0x0
 6040 16b2 07        		.uleb128 0x7
 6041 16b3 0000 0000 		.long	.LASF279
 6042 16b7 07        		.byte	0x7
GAS LISTING /tmp/cc1O4Nc2.s 			page 107


 6043 16b8 69        		.byte	0x69
 6044 16b9 8516 0000 		.long	0x1685
 6045 16bd 02        		.byte	0x2
 6046 16be 23        		.byte	0x23
 6047 16bf 02        		.uleb128 0x2
 6048 16c0 00        		.byte	0x0
 6049 16c1 04        		.uleb128 0x4
 6050 16c2 0000 0000 		.long	.LASF280
 6051 16c6 07        		.byte	0x7
 6052 16c7 6A        		.byte	0x6a
 6053 16c8 9816 0000 		.long	0x1698
 6054 16cc 1B        		.uleb128 0x1b
 6055 16cd 0000 0000 		.long	.LASF281
 6056 16d1 02        		.byte	0x2
 6057 16d2 68        		.byte	0x68
 6058 16d3 01        		.byte	0x1
 6059 16d4 03        		.byte	0x3
 6060 16d5 E516 0000 		.long	0x16e5
 6061 16d9 1C        		.uleb128 0x1c
 6062 16da 0000 0000 		.long	.LASF283
 6063 16de 02        		.byte	0x2
 6064 16df 67        		.byte	0x67
 6065 16e0 5300 0000 		.long	0x53
 6066 16e4 00        		.byte	0x0
 6067 16e5 1B        		.uleb128 0x1b
 6068 16e6 0000 0000 		.long	.LASF282
 6069 16ea 03        		.byte	0x3
 6070 16eb 6F        		.byte	0x6f
 6071 16ec 01        		.byte	0x1
 6072 16ed 03        		.byte	0x3
 6073 16ee 1617 0000 		.long	0x1716
 6074 16f2 1C        		.uleb128 0x1c
 6075 16f3 0000 0000 		.long	.LASF284
 6076 16f7 03        		.byte	0x3
 6077 16f8 6E        		.byte	0x6e
 6078 16f9 1617 0000 		.long	0x1716
 6079 16fd 1D        		.uleb128 0x1d
 6080 16fe 0000 0000 		.long	.LASF285
 6081 1702 03        		.byte	0x3
 6082 1703 70        		.byte	0x70
 6083 1704 5300 0000 		.long	0x53
 6084 1708 1D        		.uleb128 0x1d
 6085 1709 0000 0000 		.long	.LASF286
 6086 170d 03        		.byte	0x3
 6087 170e 71        		.byte	0x71
 6088 170f 1617 0000 		.long	0x1716
 6089 1713 1E        		.uleb128 0x1e
 6090 1714 1E        		.uleb128 0x1e
 6091 1715 00        		.byte	0x0
 6092 1716 02        		.uleb128 0x2
 6093 1717 04        		.byte	0x4
 6094 1718 04        		.byte	0x4
 6095 1719 0000 0000 		.long	.LASF287
 6096 171d 1F        		.uleb128 0x1f
 6097 171e 01        		.byte	0x1
 6098 171f 0000 0000 		.long	.LASF288
 6099 1723 01        		.byte	0x1
GAS LISTING /tmp/cc1O4Nc2.s 			page 108


 6100 1724 6901      		.word	0x169
 6101 1726 01        		.byte	0x1
 6102 1727 0000 0000 		.long	.LFB10
 6103 172b 0000 0000 		.long	.LFE10
 6104 172f 02        		.byte	0x2
 6105 1730 90        		.byte	0x90
 6106 1731 20        		.uleb128 0x20
 6107 1732 1F        		.uleb128 0x1f
 6108 1733 01        		.byte	0x1
 6109 1734 0000 0000 		.long	.LASF289
 6110 1738 01        		.byte	0x1
 6111 1739 7101      		.word	0x171
 6112 173b 01        		.byte	0x1
 6113 173c 0000 0000 		.long	.LFB11
 6114 1740 0000 0000 		.long	.LFE11
 6115 1744 02        		.byte	0x2
 6116 1745 90        		.byte	0x90
 6117 1746 20        		.uleb128 0x20
 6118 1747 1F        		.uleb128 0x1f
 6119 1748 01        		.byte	0x1
 6120 1749 0000 0000 		.long	.LASF290
 6121 174d 01        		.byte	0x1
 6122 174e 7B01      		.word	0x17b
 6123 1750 01        		.byte	0x1
 6124 1751 0000 0000 		.long	.LFB12
 6125 1755 0000 0000 		.long	.LFE12
 6126 1759 02        		.byte	0x2
 6127 175a 90        		.byte	0x90
 6128 175b 20        		.uleb128 0x20
 6129 175c 1F        		.uleb128 0x1f
 6130 175d 01        		.byte	0x1
 6131 175e 0000 0000 		.long	.LASF291
 6132 1762 01        		.byte	0x1
 6133 1763 8501      		.word	0x185
 6134 1765 01        		.byte	0x1
 6135 1766 0000 0000 		.long	.LFB13
 6136 176a 0000 0000 		.long	.LFE13
 6137 176e 02        		.byte	0x2
 6138 176f 90        		.byte	0x90
 6139 1770 20        		.uleb128 0x20
 6140 1771 1F        		.uleb128 0x1f
 6141 1772 01        		.byte	0x1
 6142 1773 0000 0000 		.long	.LASF292
 6143 1777 01        		.byte	0x1
 6144 1778 8D01      		.word	0x18d
 6145 177a 01        		.byte	0x1
 6146 177b 0000 0000 		.long	.LFB14
 6147 177f 0000 0000 		.long	.LFE14
 6148 1783 02        		.byte	0x2
 6149 1784 90        		.byte	0x90
 6150 1785 20        		.uleb128 0x20
 6151 1786 1F        		.uleb128 0x1f
 6152 1787 01        		.byte	0x1
 6153 1788 0000 0000 		.long	.LASF293
 6154 178c 01        		.byte	0x1
 6155 178d B101      		.word	0x1b1
 6156 178f 01        		.byte	0x1
GAS LISTING /tmp/cc1O4Nc2.s 			page 109


 6157 1790 0000 0000 		.long	.LFB16
 6158 1794 0000 0000 		.long	.LFE16
 6159 1798 02        		.byte	0x2
 6160 1799 90        		.byte	0x90
 6161 179a 20        		.uleb128 0x20
 6162 179b 1F        		.uleb128 0x1f
 6163 179c 01        		.byte	0x1
 6164 179d 0000 0000 		.long	.LASF294
 6165 17a1 01        		.byte	0x1
 6166 17a2 B601      		.word	0x1b6
 6167 17a4 01        		.byte	0x1
 6168 17a5 0000 0000 		.long	.LFB17
 6169 17a9 0000 0000 		.long	.LFE17
 6170 17ad 02        		.byte	0x2
 6171 17ae 90        		.byte	0x90
 6172 17af 20        		.uleb128 0x20
 6173 17b0 1F        		.uleb128 0x1f
 6174 17b1 01        		.byte	0x1
 6175 17b2 0000 0000 		.long	.LASF295
 6176 17b6 01        		.byte	0x1
 6177 17b7 C301      		.word	0x1c3
 6178 17b9 01        		.byte	0x1
 6179 17ba 0000 0000 		.long	.LFB18
 6180 17be 0000 0000 		.long	.LFE18
 6181 17c2 02        		.byte	0x2
 6182 17c3 90        		.byte	0x90
 6183 17c4 20        		.uleb128 0x20
 6184 17c5 1F        		.uleb128 0x1f
 6185 17c6 01        		.byte	0x1
 6186 17c7 0000 0000 		.long	.LASF296
 6187 17cb 01        		.byte	0x1
 6188 17cc C801      		.word	0x1c8
 6189 17ce 01        		.byte	0x1
 6190 17cf 0000 0000 		.long	.LFB19
 6191 17d3 0000 0000 		.long	.LFE19
 6192 17d7 02        		.byte	0x2
 6193 17d8 90        		.byte	0x90
 6194 17d9 20        		.uleb128 0x20
 6195 17da 1F        		.uleb128 0x1f
 6196 17db 01        		.byte	0x1
 6197 17dc 0000 0000 		.long	.LASF297
 6198 17e0 01        		.byte	0x1
 6199 17e1 CD01      		.word	0x1cd
 6200 17e3 01        		.byte	0x1
 6201 17e4 0000 0000 		.long	.LFB20
 6202 17e8 0000 0000 		.long	.LFE20
 6203 17ec 02        		.byte	0x2
 6204 17ed 90        		.byte	0x90
 6205 17ee 20        		.uleb128 0x20
 6206 17ef 20        		.uleb128 0x20
 6207 17f0 01        		.byte	0x1
 6208 17f1 0000 0000 		.long	.LASF298
 6209 17f5 01        		.byte	0x1
 6210 17f6 D501      		.word	0x1d5
 6211 17f8 01        		.byte	0x1
 6212 17f9 0000 0000 		.long	.LFB21
 6213 17fd 0000 0000 		.long	.LFE21
GAS LISTING /tmp/cc1O4Nc2.s 			page 110


 6214 1801 02        		.byte	0x2
 6215 1802 90        		.byte	0x90
 6216 1803 20        		.uleb128 0x20
 6217 1804 1B18 0000 		.long	0x181b
 6218 1808 21        		.uleb128 0x21
 6219 1809 7463 00   		.string	"tc"
 6220 180c 01        		.byte	0x1
 6221 180d D501      		.word	0x1d5
 6222 180f 1B18 0000 		.long	0x181b
 6223 1813 06        		.byte	0x6
 6224 1814 68        		.byte	0x68
 6225 1815 93        		.byte	0x93
 6226 1816 01        		.uleb128 0x1
 6227 1817 69        		.byte	0x69
 6228 1818 93        		.byte	0x93
 6229 1819 01        		.uleb128 0x1
 6230 181a 00        		.byte	0x0
 6231 181b 0A        		.uleb128 0xa
 6232 181c 02        		.byte	0x2
 6233 181d 2118 0000 		.long	0x1821
 6234 1821 0E        		.uleb128 0xe
 6235 1822 370F 0000 		.long	0xf37
 6236 1826 20        		.uleb128 0x20
 6237 1827 01        		.byte	0x1
 6238 1828 0000 0000 		.long	.LASF299
 6239 182c 01        		.byte	0x1
 6240 182d D901      		.word	0x1d9
 6241 182f 01        		.byte	0x1
 6242 1830 0000 0000 		.long	.LFB22
 6243 1834 0000 0000 		.long	.LFE22
 6244 1838 02        		.byte	0x2
 6245 1839 90        		.byte	0x90
 6246 183a 20        		.uleb128 0x20
 6247 183b 5218 0000 		.long	0x1852
 6248 183f 21        		.uleb128 0x21
 6249 1840 7463 00   		.string	"tc"
 6250 1843 01        		.byte	0x1
 6251 1844 D901      		.word	0x1d9
 6252 1846 5218 0000 		.long	0x1852
 6253 184a 06        		.byte	0x6
 6254 184b 68        		.byte	0x68
 6255 184c 93        		.byte	0x93
 6256 184d 01        		.uleb128 0x1
 6257 184e 69        		.byte	0x69
 6258 184f 93        		.byte	0x93
 6259 1850 01        		.uleb128 0x1
 6260 1851 00        		.byte	0x0
 6261 1852 0A        		.uleb128 0xa
 6262 1853 02        		.byte	0x2
 6263 1854 5818 0000 		.long	0x1858
 6264 1858 0E        		.uleb128 0xe
 6265 1859 1014 0000 		.long	0x1410
 6266 185d 1F        		.uleb128 0x1f
 6267 185e 01        		.byte	0x1
 6268 185f 0000 0000 		.long	.LASF300
 6269 1863 01        		.byte	0x1
 6270 1864 DD01      		.word	0x1dd
GAS LISTING /tmp/cc1O4Nc2.s 			page 111


 6271 1866 01        		.byte	0x1
 6272 1867 0000 0000 		.long	.LFB23
 6273 186b 0000 0000 		.long	.LFE23
 6274 186f 02        		.byte	0x2
 6275 1870 90        		.byte	0x90
 6276 1871 20        		.uleb128 0x20
 6277 1872 1F        		.uleb128 0x1f
 6278 1873 01        		.byte	0x1
 6279 1874 0000 0000 		.long	.LASF301
 6280 1878 01        		.byte	0x1
 6281 1879 F101      		.word	0x1f1
 6282 187b 01        		.byte	0x1
 6283 187c 0000 0000 		.long	.LFB25
 6284 1880 0000 0000 		.long	.LFE25
 6285 1884 02        		.byte	0x2
 6286 1885 90        		.byte	0x90
 6287 1886 20        		.uleb128 0x20
 6288 1887 1F        		.uleb128 0x1f
 6289 1888 01        		.byte	0x1
 6290 1889 0000 0000 		.long	.LASF302
 6291 188d 01        		.byte	0x1
 6292 188e F501      		.word	0x1f5
 6293 1890 01        		.byte	0x1
 6294 1891 0000 0000 		.long	.LFB26
 6295 1895 0000 0000 		.long	.LFE26
 6296 1899 02        		.byte	0x2
 6297 189a 90        		.byte	0x90
 6298 189b 20        		.uleb128 0x20
 6299 189c 20        		.uleb128 0x20
 6300 189d 01        		.byte	0x1
 6301 189e 0000 0000 		.long	.LASF303
 6302 18a2 01        		.byte	0x1
 6303 18a3 8302      		.word	0x283
 6304 18a5 01        		.byte	0x1
 6305 18a6 0000 0000 		.long	.LFB31
 6306 18aa 0000 0000 		.long	.LFE31
 6307 18ae 02        		.byte	0x2
 6308 18af 90        		.byte	0x90
 6309 18b0 20        		.uleb128 0x20
 6310 18b1 C418 0000 		.long	0x18c4
 6311 18b5 22        		.uleb128 0x22
 6312 18b6 0000 0000 		.long	.LASF304
 6313 18ba 01        		.byte	0x1
 6314 18bb 8302      		.word	0x283
 6315 18bd 4100 0000 		.long	0x41
 6316 18c1 01        		.byte	0x1
 6317 18c2 68        		.byte	0x68
 6318 18c3 00        		.byte	0x0
 6319 18c4 20        		.uleb128 0x20
 6320 18c5 01        		.byte	0x1
 6321 18c6 0000 0000 		.long	.LASF305
 6322 18ca 01        		.byte	0x1
 6323 18cb 8702      		.word	0x287
 6324 18cd 01        		.byte	0x1
 6325 18ce 0000 0000 		.long	.LFB32
 6326 18d2 0000 0000 		.long	.LFE32
 6327 18d6 02        		.byte	0x2
GAS LISTING /tmp/cc1O4Nc2.s 			page 112


 6328 18d7 90        		.byte	0x90
 6329 18d8 20        		.uleb128 0x20
 6330 18d9 EE18 0000 		.long	0x18ee
 6331 18dd 23        		.uleb128 0x23
 6332 18de 0000 0000 		.long	.LASF304
 6333 18e2 01        		.byte	0x1
 6334 18e3 8702      		.word	0x287
 6335 18e5 4100 0000 		.long	0x41
 6336 18e9 0000 0000 		.long	.LLST17
 6337 18ed 00        		.byte	0x0
 6338 18ee 20        		.uleb128 0x20
 6339 18ef 01        		.byte	0x1
 6340 18f0 0000 0000 		.long	.LASF306
 6341 18f4 01        		.byte	0x1
 6342 18f5 9702      		.word	0x297
 6343 18f7 01        		.byte	0x1
 6344 18f8 0000 0000 		.long	.LFB33
 6345 18fc 0000 0000 		.long	.LFE33
 6346 1900 02        		.byte	0x2
 6347 1901 90        		.byte	0x90
 6348 1902 20        		.uleb128 0x20
 6349 1903 1619 0000 		.long	0x1916
 6350 1907 22        		.uleb128 0x22
 6351 1908 0000 0000 		.long	.LASF304
 6352 190c 01        		.byte	0x1
 6353 190d 9702      		.word	0x297
 6354 190f 4100 0000 		.long	0x41
 6355 1913 01        		.byte	0x1
 6356 1914 68        		.byte	0x68
 6357 1915 00        		.byte	0x0
 6358 1916 20        		.uleb128 0x20
 6359 1917 01        		.byte	0x1
 6360 1918 0000 0000 		.long	.LASF307
 6361 191c 01        		.byte	0x1
 6362 191d 9B02      		.word	0x29b
 6363 191f 01        		.byte	0x1
 6364 1920 0000 0000 		.long	.LFB34
 6365 1924 0000 0000 		.long	.LFE34
 6366 1928 02        		.byte	0x2
 6367 1929 90        		.byte	0x90
 6368 192a 20        		.uleb128 0x20
 6369 192b 3E19 0000 		.long	0x193e
 6370 192f 22        		.uleb128 0x22
 6371 1930 0000 0000 		.long	.LASF304
 6372 1934 01        		.byte	0x1
 6373 1935 9B02      		.word	0x29b
 6374 1937 4100 0000 		.long	0x41
 6375 193b 01        		.byte	0x1
 6376 193c 68        		.byte	0x68
 6377 193d 00        		.byte	0x0
 6378 193e 24        		.uleb128 0x24
 6379 193f 0000 0000 		.long	.LASF343
 6380 1943 01        		.byte	0x1
 6381 1944 9F02      		.word	0x29f
 6382 1946 01        		.byte	0x1
 6383 1947 2C00 0000 		.long	0x2c
 6384 194b 0000 0000 		.long	.LFB35
GAS LISTING /tmp/cc1O4Nc2.s 			page 113


 6385 194f 0000 0000 		.long	.LFE35
 6386 1953 02        		.byte	0x2
 6387 1954 90        		.byte	0x90
 6388 1955 20        		.uleb128 0x20
 6389 1956 7919 0000 		.long	0x1979
 6390 195a 25        		.uleb128 0x25
 6391 195b 6300      		.string	"c"
 6392 195d 01        		.byte	0x1
 6393 195e 9F02      		.word	0x29f
 6394 1960 FB00 0000 		.long	0xfb
 6395 1964 0000 0000 		.long	.LLST21
 6396 1968 23        		.uleb128 0x23
 6397 1969 0000 0000 		.long	.LASF308
 6398 196d 01        		.byte	0x1
 6399 196e 9F02      		.word	0x29f
 6400 1970 1701 0000 		.long	0x117
 6401 1974 0000 0000 		.long	.LLST22
 6402 1978 00        		.byte	0x0
 6403 1979 1F        		.uleb128 0x1f
 6404 197a 01        		.byte	0x1
 6405 197b 0000 0000 		.long	.LASF309
 6406 197f 01        		.byte	0x1
 6407 1980 BF02      		.word	0x2bf
 6408 1982 01        		.byte	0x1
 6409 1983 0000 0000 		.long	.LFB37
 6410 1987 0000 0000 		.long	.LFE37
 6411 198b 02        		.byte	0x2
 6412 198c 90        		.byte	0x90
 6413 198d 20        		.uleb128 0x20
 6414 198e 20        		.uleb128 0x20
 6415 198f 01        		.byte	0x1
 6416 1990 0000 0000 		.long	.LASF310
 6417 1994 01        		.byte	0x1
 6418 1995 CA02      		.word	0x2ca
 6419 1997 01        		.byte	0x1
 6420 1998 0000 0000 		.long	.LFB38
 6421 199c 0000 0000 		.long	.LFE38
 6422 19a0 02        		.byte	0x2
 6423 19a1 90        		.byte	0x90
 6424 19a2 20        		.uleb128 0x20
 6425 19a3 3F1A 0000 		.long	0x1a3f
 6426 19a7 26        		.uleb128 0x26
 6427 19a8 6900      		.string	"i"
 6428 19aa 01        		.byte	0x1
 6429 19ab CB02      		.word	0x2cb
 6430 19ad 2C00 0000 		.long	0x2c
 6431 19b1 06        		.byte	0x6
 6432 19b2 66        		.byte	0x66
 6433 19b3 93        		.byte	0x93
 6434 19b4 01        		.uleb128 0x1
 6435 19b5 67        		.byte	0x67
 6436 19b6 93        		.byte	0x93
 6437 19b7 01        		.uleb128 0x1
 6438 19b8 27        		.uleb128 0x27
 6439 19b9 E516 0000 		.long	0x16e5
 6440 19bd 0000 0000 		.long	.Ldebug_ranges0+0x0
 6441 19c1 01        		.byte	0x1
GAS LISTING /tmp/cc1O4Nc2.s 			page 114


 6442 19c2 CE02      		.word	0x2ce
 6443 19c4 F719 0000 		.long	0x19f7
 6444 19c8 28        		.uleb128 0x28
 6445 19c9 F216 0000 		.long	0x16f2
 6446 19cd 29        		.uleb128 0x29
 6447 19ce 0000 0000 		.long	.Ldebug_ranges0+0x18
 6448 19d2 2A        		.uleb128 0x2a
 6449 19d3 FD16 0000 		.long	0x16fd
 6450 19d7 0000 0000 		.long	.LLST25
 6451 19db 2B        		.uleb128 0x2b
 6452 19dc 0817 0000 		.long	0x1708
 6453 19e0 2C        		.uleb128 0x2c
 6454 19e1 CC16 0000 		.long	0x16cc
 6455 19e5 0000 0000 		.long	.Ldebug_ranges0+0x30
 6456 19e9 03        		.byte	0x3
 6457 19ea 7B        		.byte	0x7b
 6458 19eb 2D        		.uleb128 0x2d
 6459 19ec D916 0000 		.long	0x16d9
 6460 19f0 0000 0000 		.long	.LLST26
 6461 19f4 00        		.byte	0x0
 6462 19f5 00        		.byte	0x0
 6463 19f6 00        		.byte	0x0
 6464 19f7 2E        		.uleb128 0x2e
 6465 19f8 E516 0000 		.long	0x16e5
 6466 19fc 0000 0000 		.long	.LBB68
 6467 1a00 0000 0000 		.long	.LBE68
 6468 1a04 01        		.byte	0x1
 6469 1a05 D002      		.word	0x2d0
 6470 1a07 28        		.uleb128 0x28
 6471 1a08 F216 0000 		.long	0x16f2
 6472 1a0c 2F        		.uleb128 0x2f
 6473 1a0d 0000 0000 		.long	.LBB69
 6474 1a11 0000 0000 		.long	.LBE69
 6475 1a15 2A        		.uleb128 0x2a
 6476 1a16 FD16 0000 		.long	0x16fd
 6477 1a1a 0000 0000 		.long	.LLST27
 6478 1a1e 2B        		.uleb128 0x2b
 6479 1a1f 0817 0000 		.long	0x1708
 6480 1a23 30        		.uleb128 0x30
 6481 1a24 CC16 0000 		.long	0x16cc
 6482 1a28 0000 0000 		.long	.LBB70
 6483 1a2c 0000 0000 		.long	.LBE70
 6484 1a30 03        		.byte	0x3
 6485 1a31 7B        		.byte	0x7b
 6486 1a32 2D        		.uleb128 0x2d
 6487 1a33 D916 0000 		.long	0x16d9
 6488 1a37 0000 0000 		.long	.LLST28
 6489 1a3b 00        		.byte	0x0
 6490 1a3c 00        		.byte	0x0
 6491 1a3d 00        		.byte	0x0
 6492 1a3e 00        		.byte	0x0
 6493 1a3f 20        		.uleb128 0x20
 6494 1a40 01        		.byte	0x1
 6495 1a41 0000 0000 		.long	.LASF311
 6496 1a45 01        		.byte	0x1
 6497 1a46 4302      		.word	0x243
 6498 1a48 01        		.byte	0x1
GAS LISTING /tmp/cc1O4Nc2.s 			page 115


 6499 1a49 0000 0000 		.long	.LFB30
 6500 1a4d 0000 0000 		.long	.LFE30
 6501 1a51 02        		.byte	0x2
 6502 1a52 90        		.byte	0x90
 6503 1a53 20        		.uleb128 0x20
 6504 1a54 651C 0000 		.long	0x1c65
 6505 1a58 31        		.uleb128 0x31
 6506 1a59 E516 0000 		.long	0x16e5
 6507 1a5d 0000 0000 		.long	.LBB72
 6508 1a61 0000 0000 		.long	.LBE72
 6509 1a65 01        		.byte	0x1
 6510 1a66 7202      		.word	0x272
 6511 1a68 A31A 0000 		.long	0x1aa3
 6512 1a6c 28        		.uleb128 0x28
 6513 1a6d F216 0000 		.long	0x16f2
 6514 1a71 2F        		.uleb128 0x2f
 6515 1a72 0000 0000 		.long	.LBB73
 6516 1a76 0000 0000 		.long	.LBE73
 6517 1a7a 2A        		.uleb128 0x2a
 6518 1a7b FD16 0000 		.long	0x16fd
 6519 1a7f 0000 0000 		.long	.LLST30
 6520 1a83 2B        		.uleb128 0x2b
 6521 1a84 0817 0000 		.long	0x1708
 6522 1a88 30        		.uleb128 0x30
 6523 1a89 CC16 0000 		.long	0x16cc
 6524 1a8d 0000 0000 		.long	.LBB74
 6525 1a91 0000 0000 		.long	.LBE74
 6526 1a95 03        		.byte	0x3
 6527 1a96 7B        		.byte	0x7b
 6528 1a97 2D        		.uleb128 0x2d
 6529 1a98 D916 0000 		.long	0x16d9
 6530 1a9c 0000 0000 		.long	.LLST31
 6531 1aa0 00        		.byte	0x0
 6532 1aa1 00        		.byte	0x0
 6533 1aa2 00        		.byte	0x0
 6534 1aa3 31        		.uleb128 0x31
 6535 1aa4 E516 0000 		.long	0x16e5
 6536 1aa8 0000 0000 		.long	.LBB76
 6537 1aac 0000 0000 		.long	.LBE76
 6538 1ab0 01        		.byte	0x1
 6539 1ab1 7402      		.word	0x274
 6540 1ab3 EE1A 0000 		.long	0x1aee
 6541 1ab7 28        		.uleb128 0x28
 6542 1ab8 F216 0000 		.long	0x16f2
 6543 1abc 2F        		.uleb128 0x2f
 6544 1abd 0000 0000 		.long	.LBB77
 6545 1ac1 0000 0000 		.long	.LBE77
 6546 1ac5 2A        		.uleb128 0x2a
 6547 1ac6 FD16 0000 		.long	0x16fd
 6548 1aca 0000 0000 		.long	.LLST32
 6549 1ace 2B        		.uleb128 0x2b
 6550 1acf 0817 0000 		.long	0x1708
 6551 1ad3 30        		.uleb128 0x30
 6552 1ad4 CC16 0000 		.long	0x16cc
 6553 1ad8 0000 0000 		.long	.LBB78
 6554 1adc 0000 0000 		.long	.LBE78
 6555 1ae0 03        		.byte	0x3
GAS LISTING /tmp/cc1O4Nc2.s 			page 116


 6556 1ae1 7B        		.byte	0x7b
 6557 1ae2 2D        		.uleb128 0x2d
 6558 1ae3 D916 0000 		.long	0x16d9
 6559 1ae7 0000 0000 		.long	.LLST33
 6560 1aeb 00        		.byte	0x0
 6561 1aec 00        		.byte	0x0
 6562 1aed 00        		.byte	0x0
 6563 1aee 31        		.uleb128 0x31
 6564 1aef E516 0000 		.long	0x16e5
 6565 1af3 0000 0000 		.long	.LBB80
 6566 1af7 0000 0000 		.long	.LBE80
 6567 1afb 01        		.byte	0x1
 6568 1afc 7602      		.word	0x276
 6569 1afe 391B 0000 		.long	0x1b39
 6570 1b02 28        		.uleb128 0x28
 6571 1b03 F216 0000 		.long	0x16f2
 6572 1b07 2F        		.uleb128 0x2f
 6573 1b08 0000 0000 		.long	.LBB81
 6574 1b0c 0000 0000 		.long	.LBE81
 6575 1b10 2A        		.uleb128 0x2a
 6576 1b11 FD16 0000 		.long	0x16fd
 6577 1b15 0000 0000 		.long	.LLST34
 6578 1b19 2B        		.uleb128 0x2b
 6579 1b1a 0817 0000 		.long	0x1708
 6580 1b1e 30        		.uleb128 0x30
 6581 1b1f CC16 0000 		.long	0x16cc
 6582 1b23 0000 0000 		.long	.LBB82
 6583 1b27 0000 0000 		.long	.LBE82
 6584 1b2b 03        		.byte	0x3
 6585 1b2c 7B        		.byte	0x7b
 6586 1b2d 2D        		.uleb128 0x2d
 6587 1b2e D916 0000 		.long	0x16d9
 6588 1b32 0000 0000 		.long	.LLST35
 6589 1b36 00        		.byte	0x0
 6590 1b37 00        		.byte	0x0
 6591 1b38 00        		.byte	0x0
 6592 1b39 31        		.uleb128 0x31
 6593 1b3a E516 0000 		.long	0x16e5
 6594 1b3e 0000 0000 		.long	.LBB84
 6595 1b42 0000 0000 		.long	.LBE84
 6596 1b46 01        		.byte	0x1
 6597 1b47 7802      		.word	0x278
 6598 1b49 841B 0000 		.long	0x1b84
 6599 1b4d 28        		.uleb128 0x28
 6600 1b4e F216 0000 		.long	0x16f2
 6601 1b52 2F        		.uleb128 0x2f
 6602 1b53 0000 0000 		.long	.LBB85
 6603 1b57 0000 0000 		.long	.LBE85
 6604 1b5b 2A        		.uleb128 0x2a
 6605 1b5c FD16 0000 		.long	0x16fd
 6606 1b60 0000 0000 		.long	.LLST36
 6607 1b64 2B        		.uleb128 0x2b
 6608 1b65 0817 0000 		.long	0x1708
 6609 1b69 30        		.uleb128 0x30
 6610 1b6a CC16 0000 		.long	0x16cc
 6611 1b6e 0000 0000 		.long	.LBB86
 6612 1b72 0000 0000 		.long	.LBE86
GAS LISTING /tmp/cc1O4Nc2.s 			page 117


 6613 1b76 03        		.byte	0x3
 6614 1b77 7B        		.byte	0x7b
 6615 1b78 2D        		.uleb128 0x2d
 6616 1b79 D916 0000 		.long	0x16d9
 6617 1b7d 0000 0000 		.long	.LLST37
 6618 1b81 00        		.byte	0x0
 6619 1b82 00        		.byte	0x0
 6620 1b83 00        		.byte	0x0
 6621 1b84 31        		.uleb128 0x31
 6622 1b85 E516 0000 		.long	0x16e5
 6623 1b89 0000 0000 		.long	.LBB88
 6624 1b8d 0000 0000 		.long	.LBE88
 6625 1b91 01        		.byte	0x1
 6626 1b92 7A02      		.word	0x27a
 6627 1b94 CF1B 0000 		.long	0x1bcf
 6628 1b98 28        		.uleb128 0x28
 6629 1b99 F216 0000 		.long	0x16f2
 6630 1b9d 2F        		.uleb128 0x2f
 6631 1b9e 0000 0000 		.long	.LBB89
 6632 1ba2 0000 0000 		.long	.LBE89
 6633 1ba6 2A        		.uleb128 0x2a
 6634 1ba7 FD16 0000 		.long	0x16fd
 6635 1bab 0000 0000 		.long	.LLST38
 6636 1baf 2B        		.uleb128 0x2b
 6637 1bb0 0817 0000 		.long	0x1708
 6638 1bb4 30        		.uleb128 0x30
 6639 1bb5 CC16 0000 		.long	0x16cc
 6640 1bb9 0000 0000 		.long	.LBB90
 6641 1bbd 0000 0000 		.long	.LBE90
 6642 1bc1 03        		.byte	0x3
 6643 1bc2 7B        		.byte	0x7b
 6644 1bc3 2D        		.uleb128 0x2d
 6645 1bc4 D916 0000 		.long	0x16d9
 6646 1bc8 0000 0000 		.long	.LLST39
 6647 1bcc 00        		.byte	0x0
 6648 1bcd 00        		.byte	0x0
 6649 1bce 00        		.byte	0x0
 6650 1bcf 31        		.uleb128 0x31
 6651 1bd0 E516 0000 		.long	0x16e5
 6652 1bd4 0000 0000 		.long	.LBB92
 6653 1bd8 0000 0000 		.long	.LBE92
 6654 1bdc 01        		.byte	0x1
 6655 1bdd 7C02      		.word	0x27c
 6656 1bdf 1A1C 0000 		.long	0x1c1a
 6657 1be3 28        		.uleb128 0x28
 6658 1be4 F216 0000 		.long	0x16f2
 6659 1be8 2F        		.uleb128 0x2f
 6660 1be9 0000 0000 		.long	.LBB93
 6661 1bed 0000 0000 		.long	.LBE93
 6662 1bf1 2A        		.uleb128 0x2a
 6663 1bf2 FD16 0000 		.long	0x16fd
 6664 1bf6 0000 0000 		.long	.LLST40
 6665 1bfa 2B        		.uleb128 0x2b
 6666 1bfb 0817 0000 		.long	0x1708
 6667 1bff 30        		.uleb128 0x30
 6668 1c00 CC16 0000 		.long	0x16cc
 6669 1c04 0000 0000 		.long	.LBB94
GAS LISTING /tmp/cc1O4Nc2.s 			page 118


 6670 1c08 0000 0000 		.long	.LBE94
 6671 1c0c 03        		.byte	0x3
 6672 1c0d 7B        		.byte	0x7b
 6673 1c0e 2D        		.uleb128 0x2d
 6674 1c0f D916 0000 		.long	0x16d9
 6675 1c13 0000 0000 		.long	.LLST41
 6676 1c17 00        		.byte	0x0
 6677 1c18 00        		.byte	0x0
 6678 1c19 00        		.byte	0x0
 6679 1c1a 2E        		.uleb128 0x2e
 6680 1c1b E516 0000 		.long	0x16e5
 6681 1c1f 0000 0000 		.long	.LBB96
 6682 1c23 0000 0000 		.long	.LBE96
 6683 1c27 01        		.byte	0x1
 6684 1c28 7E02      		.word	0x27e
 6685 1c2a 28        		.uleb128 0x28
 6686 1c2b F216 0000 		.long	0x16f2
 6687 1c2f 2F        		.uleb128 0x2f
 6688 1c30 0000 0000 		.long	.LBB97
 6689 1c34 0000 0000 		.long	.LBE97
 6690 1c38 32        		.uleb128 0x32
 6691 1c39 FD16 0000 		.long	0x16fd
 6692 1c3d 06        		.byte	0x6
 6693 1c3e 62        		.byte	0x62
 6694 1c3f 93        		.byte	0x93
 6695 1c40 01        		.uleb128 0x1
 6696 1c41 63        		.byte	0x63
 6697 1c42 93        		.byte	0x93
 6698 1c43 01        		.uleb128 0x1
 6699 1c44 2B        		.uleb128 0x2b
 6700 1c45 0817 0000 		.long	0x1708
 6701 1c49 30        		.uleb128 0x30
 6702 1c4a CC16 0000 		.long	0x16cc
 6703 1c4e 0000 0000 		.long	.LBB98
 6704 1c52 0000 0000 		.long	.LBE98
 6705 1c56 03        		.byte	0x3
 6706 1c57 7B        		.byte	0x7b
 6707 1c58 2D        		.uleb128 0x2d
 6708 1c59 D916 0000 		.long	0x16d9
 6709 1c5d 0000 0000 		.long	.LLST42
 6710 1c61 00        		.byte	0x0
 6711 1c62 00        		.byte	0x0
 6712 1c63 00        		.byte	0x0
 6713 1c64 00        		.byte	0x0
 6714 1c65 20        		.uleb128 0x20
 6715 1c66 01        		.byte	0x1
 6716 1c67 0000 0000 		.long	.LASF312
 6717 1c6b 01        		.byte	0x1
 6718 1c6c 3D02      		.word	0x23d
 6719 1c6e 01        		.byte	0x1
 6720 1c6f 0000 0000 		.long	.LFB29
 6721 1c73 0000 0000 		.long	.LFE29
 6722 1c77 02        		.byte	0x2
 6723 1c78 90        		.byte	0x90
 6724 1c79 20        		.uleb128 0x20
 6725 1c7a 8E1C 0000 		.long	0x1c8e
 6726 1c7e 25        		.uleb128 0x25
GAS LISTING /tmp/cc1O4Nc2.s 			page 119


 6727 1c7f 7463 00   		.string	"tc"
 6728 1c82 01        		.byte	0x1
 6729 1c83 3D02      		.word	0x23d
 6730 1c85 1B18 0000 		.long	0x181b
 6731 1c89 0000 0000 		.long	.LLST44
 6732 1c8d 00        		.byte	0x0
 6733 1c8e 20        		.uleb128 0x20
 6734 1c8f 01        		.byte	0x1
 6735 1c90 0000 0000 		.long	.LASF313
 6736 1c94 01        		.byte	0x1
 6737 1c95 1D02      		.word	0x21d
 6738 1c97 01        		.byte	0x1
 6739 1c98 0000 0000 		.long	.LFB28
 6740 1c9c 0000 0000 		.long	.LFE28
 6741 1ca0 02        		.byte	0x2
 6742 1ca1 90        		.byte	0x90
 6743 1ca2 20        		.uleb128 0x20
 6744 1ca3 B81C 0000 		.long	0x1cb8
 6745 1ca7 33        		.uleb128 0x33
 6746 1ca8 0000 0000 		.long	.LASF314
 6747 1cac 01        		.byte	0x1
 6748 1cad 2202      		.word	0x222
 6749 1caf 4100 0000 		.long	0x41
 6750 1cb3 0000 0000 		.long	.LLST46
 6751 1cb7 00        		.byte	0x0
 6752 1cb8 1F        		.uleb128 0x1f
 6753 1cb9 01        		.byte	0x1
 6754 1cba 0000 0000 		.long	.LASF315
 6755 1cbe 01        		.byte	0x1
 6756 1cbf E101      		.word	0x1e1
 6757 1cc1 01        		.byte	0x1
 6758 1cc2 0000 0000 		.long	.LFB24
 6759 1cc6 0000 0000 		.long	.LFE24
 6760 1cca 02        		.byte	0x2
 6761 1ccb 90        		.byte	0x90
 6762 1ccc 20        		.uleb128 0x20
 6763 1ccd 20        		.uleb128 0x20
 6764 1cce 01        		.byte	0x1
 6765 1ccf 0000 0000 		.long	.LASF316
 6766 1cd3 01        		.byte	0x1
 6767 1cd4 FB01      		.word	0x1fb
 6768 1cd6 01        		.byte	0x1
 6769 1cd7 0000 0000 		.long	.LFB27
 6770 1cdb 0000 0000 		.long	.LFE27
 6771 1cdf 02        		.byte	0x2
 6772 1ce0 90        		.byte	0x90
 6773 1ce1 20        		.uleb128 0x20
 6774 1ce2 F71C 0000 		.long	0x1cf7
 6775 1ce6 25        		.uleb128 0x25
 6776 1ce7 6164 6300 		.string	"adc"
 6777 1ceb 01        		.byte	0x1
 6778 1cec FB01      		.word	0x1fb
 6779 1cee F71C 0000 		.long	0x1cf7
 6780 1cf2 0000 0000 		.long	.LLST49
 6781 1cf6 00        		.byte	0x0
 6782 1cf7 0A        		.uleb128 0xa
 6783 1cf8 02        		.byte	0x2
GAS LISTING /tmp/cc1O4Nc2.s 			page 120


 6784 1cf9 C506 0000 		.long	0x6c5
 6785 1cfd 20        		.uleb128 0x20
 6786 1cfe 01        		.byte	0x1
 6787 1cff 0000 0000 		.long	.LASF317
 6788 1d03 01        		.byte	0x1
 6789 1d04 9B01      		.word	0x19b
 6790 1d06 01        		.byte	0x1
 6791 1d07 0000 0000 		.long	.LFB15
 6792 1d0b 0000 0000 		.long	.LFE15
 6793 1d0f 02        		.byte	0x2
 6794 1d10 90        		.byte	0x90
 6795 1d11 20        		.uleb128 0x20
 6796 1d12 461D 0000 		.long	0x1d46
 6797 1d16 25        		.uleb128 0x25
 6798 1d17 7463 00   		.string	"tc"
 6799 1d1a 01        		.byte	0x1
 6800 1d1b 9B01      		.word	0x19b
 6801 1d1d 1B18 0000 		.long	0x181b
 6802 1d21 0000 0000 		.long	.LLST51
 6803 1d25 23        		.uleb128 0x23
 6804 1d26 0000 0000 		.long	.LASF318
 6805 1d2a 01        		.byte	0x1
 6806 1d2b 9B01      		.word	0x19b
 6807 1d2d 461D 0000 		.long	0x1d46
 6808 1d31 0000 0000 		.long	.LLST52
 6809 1d35 23        		.uleb128 0x23
 6810 1d36 0000 0000 		.long	.LASF319
 6811 1d3a 01        		.byte	0x1
 6812 1d3b 9B01      		.word	0x19b
 6813 1d3d 5300 0000 		.long	0x53
 6814 1d41 0000 0000 		.long	.LLST53
 6815 1d45 00        		.byte	0x0
 6816 1d46 0A        		.uleb128 0xa
 6817 1d47 02        		.byte	0x2
 6818 1d48 3914 0000 		.long	0x1439
 6819 1d4c 20        		.uleb128 0x20
 6820 1d4d 01        		.byte	0x1
 6821 1d4e 0000 0000 		.long	.LASF320
 6822 1d52 01        		.byte	0x1
 6823 1d53 5101      		.word	0x151
 6824 1d55 01        		.byte	0x1
 6825 1d56 0000 0000 		.long	.LFB9
 6826 1d5a 0000 0000 		.long	.LFE9
 6827 1d5e 02        		.byte	0x2
 6828 1d5f 90        		.byte	0x90
 6829 1d60 20        		.uleb128 0x20
 6830 1d61 951D 0000 		.long	0x1d95
 6831 1d65 25        		.uleb128 0x25
 6832 1d66 7463 00   		.string	"tc"
 6833 1d69 01        		.byte	0x1
 6834 1d6a 5101      		.word	0x151
 6835 1d6c 1B18 0000 		.long	0x181b
 6836 1d70 0000 0000 		.long	.LLST55
 6837 1d74 23        		.uleb128 0x23
 6838 1d75 0000 0000 		.long	.LASF318
 6839 1d79 01        		.byte	0x1
 6840 1d7a 5101      		.word	0x151
GAS LISTING /tmp/cc1O4Nc2.s 			page 121


 6841 1d7c 461D 0000 		.long	0x1d46
 6842 1d80 0000 0000 		.long	.LLST56
 6843 1d84 23        		.uleb128 0x23
 6844 1d85 0000 0000 		.long	.LASF319
 6845 1d89 01        		.byte	0x1
 6846 1d8a 5101      		.word	0x151
 6847 1d8c 5300 0000 		.long	0x53
 6848 1d90 0000 0000 		.long	.LLST57
 6849 1d94 00        		.byte	0x0
 6850 1d95 1F        		.uleb128 0x1f
 6851 1d96 01        		.byte	0x1
 6852 1d97 0000 0000 		.long	.LASF321
 6853 1d9b 01        		.byte	0x1
 6854 1d9c 3701      		.word	0x137
 6855 1d9e 01        		.byte	0x1
 6856 1d9f 0000 0000 		.long	.LFB8
 6857 1da3 0000 0000 		.long	.LFE8
 6858 1da7 02        		.byte	0x2
 6859 1da8 90        		.byte	0x90
 6860 1da9 20        		.uleb128 0x20
 6861 1daa 34        		.uleb128 0x34
 6862 1dab 01        		.byte	0x1
 6863 1dac 0000 0000 		.long	.LASF344
 6864 1db0 01        		.byte	0x1
 6865 1db1 FB        		.byte	0xfb
 6866 1db2 01        		.byte	0x1
 6867 1db3 2C00 0000 		.long	0x2c
 6868 1db7 0000 0000 		.long	.LFB7
 6869 1dbb 0000 0000 		.long	.LFE7
 6870 1dbf 02        		.byte	0x2
 6871 1dc0 90        		.byte	0x90
 6872 1dc1 20        		.uleb128 0x20
 6873 1dc2 35        		.uleb128 0x35
 6874 1dc3 0000 0000 		.long	.LASF322
 6875 1dc7 01        		.byte	0x1
 6876 1dc8 76        		.byte	0x76
 6877 1dc9 7300 0000 		.long	0x73
 6878 1dcd 05        		.byte	0x5
 6879 1dce 03        		.byte	0x3
 6880 1dcf 0000 0000 		.long	debug
 6881 1dd3 36        		.uleb128 0x36
 6882 1dd4 1701 0000 		.long	0x117
 6883 1dd8 DE1D 0000 		.long	0x1dde
 6884 1ddc 37        		.uleb128 0x37
 6885 1ddd 00        		.byte	0x0
 6886 1dde 38        		.uleb128 0x38
 6887 1ddf 0000 0000 		.long	.LASF323
 6888 1de3 05        		.byte	0x5
 6889 1de4 9501      		.word	0x195
 6890 1de6 D31D 0000 		.long	0x1dd3
 6891 1dea 01        		.byte	0x1
 6892 1deb 01        		.byte	0x1
 6893 1dec 39        		.uleb128 0x39
 6894 1ded 0000 0000 		.long	.LASF324
 6895 1df1 01        		.byte	0x1
 6896 1df2 88        		.byte	0x88
 6897 1df3 3B01 0000 		.long	0x13b
GAS LISTING /tmp/cc1O4Nc2.s 			page 122


 6898 1df7 01        		.byte	0x1
 6899 1df8 05        		.byte	0x5
 6900 1df9 03        		.byte	0x3
 6901 1dfa 0000 0000 		.long	motor1State
 6902 1dfe 39        		.uleb128 0x39
 6903 1dff 0000 0000 		.long	.LASF325
 6904 1e03 01        		.byte	0x1
 6905 1e04 89        		.byte	0x89
 6906 1e05 3B01 0000 		.long	0x13b
 6907 1e09 01        		.byte	0x1
 6908 1e0a 05        		.byte	0x5
 6909 1e0b 03        		.byte	0x3
 6910 1e0c 0000 0000 		.long	motor2State
 6911 1e10 39        		.uleb128 0x39
 6912 1e11 0000 0000 		.long	.LASF326
 6913 1e15 01        		.byte	0x1
 6914 1e16 8A        		.byte	0x8a
 6915 1e17 3B01 0000 		.long	0x13b
 6916 1e1b 01        		.byte	0x1
 6917 1e1c 05        		.byte	0x5
 6918 1e1d 03        		.byte	0x3
 6919 1e1e 0000 0000 		.long	motor3State
 6920 1e22 39        		.uleb128 0x39
 6921 1e23 0000 0000 		.long	.LASF327
 6922 1e27 01        		.byte	0x1
 6923 1e28 8B        		.byte	0x8b
 6924 1e29 3B01 0000 		.long	0x13b
 6925 1e2d 01        		.byte	0x1
 6926 1e2e 05        		.byte	0x5
 6927 1e2f 03        		.byte	0x3
 6928 1e30 0000 0000 		.long	motor4State
 6929 1e34 36        		.uleb128 0x36
 6930 1e35 4100 0000 		.long	0x41
 6931 1e39 441E 0000 		.long	0x1e44
 6932 1e3d 3A        		.uleb128 0x3a
 6933 1e3e 7F16 0000 		.long	0x167f
 6934 1e42 05        		.byte	0x5
 6935 1e43 00        		.byte	0x0
 6936 1e44 39        		.uleb128 0x39
 6937 1e45 0000 0000 		.long	.LASF328
 6938 1e49 01        		.byte	0x1
 6939 1e4a 90        		.byte	0x90
 6940 1e4b 561E 0000 		.long	0x1e56
 6941 1e4f 01        		.byte	0x1
 6942 1e50 05        		.byte	0x5
 6943 1e51 03        		.byte	0x3
 6944 1e52 0000 0000 		.long	stateSlope
 6945 1e56 0E        		.uleb128 0xe
 6946 1e57 341E 0000 		.long	0x1e34
 6947 1e5b 39        		.uleb128 0x39
 6948 1e5c 0000 0000 		.long	.LASF329
 6949 1e60 01        		.byte	0x1
 6950 1e61 93        		.byte	0x93
 6951 1e62 6D1E 0000 		.long	0x1e6d
 6952 1e66 01        		.byte	0x1
 6953 1e67 05        		.byte	0x5
 6954 1e68 03        		.byte	0x3
GAS LISTING /tmp/cc1O4Nc2.s 			page 123


 6955 1e69 0000 0000 		.long	motor2StateSenseIndex
 6956 1e6d 0E        		.uleb128 0xe
 6957 1e6e 341E 0000 		.long	0x1e34
 6958 1e72 39        		.uleb128 0x39
 6959 1e73 0000 0000 		.long	.LASF330
 6960 1e77 01        		.byte	0x1
 6961 1e78 96        		.byte	0x96
 6962 1e79 3B01 0000 		.long	0x13b
 6963 1e7d 01        		.byte	0x1
 6964 1e7e 05        		.byte	0x5
 6965 1e7f 03        		.byte	0x3
 6966 1e80 0000 0000 		.long	motor1Thresh
 6967 1e84 39        		.uleb128 0x39
 6968 1e85 0000 0000 		.long	.LASF331
 6969 1e89 01        		.byte	0x1
 6970 1e8a 97        		.byte	0x97
 6971 1e8b 3B01 0000 		.long	0x13b
 6972 1e8f 01        		.byte	0x1
 6973 1e90 05        		.byte	0x5
 6974 1e91 03        		.byte	0x3
 6975 1e92 0000 0000 		.long	motor2Thresh
 6976 1e96 39        		.uleb128 0x39
 6977 1e97 0000 0000 		.long	.LASF332
 6978 1e9b 01        		.byte	0x1
 6979 1e9c 98        		.byte	0x98
 6980 1e9d 3B01 0000 		.long	0x13b
 6981 1ea1 01        		.byte	0x1
 6982 1ea2 05        		.byte	0x5
 6983 1ea3 03        		.byte	0x3
 6984 1ea4 0000 0000 		.long	motor3Thresh
 6985 1ea8 39        		.uleb128 0x39
 6986 1ea9 0000 0000 		.long	.LASF333
 6987 1ead 01        		.byte	0x1
 6988 1eae 99        		.byte	0x99
 6989 1eaf 3B01 0000 		.long	0x13b
 6990 1eb3 01        		.byte	0x1
 6991 1eb4 05        		.byte	0x5
 6992 1eb5 03        		.byte	0x3
 6993 1eb6 0000 0000 		.long	motor4Thresh
 6994 1eba 39        		.uleb128 0x39
 6995 1ebb 0000 0000 		.long	.LASF334
 6996 1ebf 01        		.byte	0x1
 6997 1ec0 9B        		.byte	0x9b
 6998 1ec1 3B01 0000 		.long	0x13b
 6999 1ec5 01        		.byte	0x1
 7000 1ec6 05        		.byte	0x5
 7001 1ec7 03        		.byte	0x3
 7002 1ec8 0000 0000 		.long	autoCommutationFlag
 7003 1ecc 39        		.uleb128 0x39
 7004 1ecd 0000 0000 		.long	.LASF335
 7005 1ed1 01        		.byte	0x1
 7006 1ed2 9E        		.byte	0x9e
 7007 1ed3 C116 0000 		.long	0x16c1
 7008 1ed7 01        		.byte	0x1
 7009 1ed8 05        		.byte	0x5
 7010 1ed9 03        		.byte	0x3
 7011 1eda 0000 0000 		.long	spiSlaveC
GAS LISTING /tmp/cc1O4Nc2.s 			page 124


 7012 1ede 36        		.uleb128 0x36
 7013 1edf 4100 0000 		.long	0x41
 7014 1ee3 EE1E 0000 		.long	0x1eee
 7015 1ee7 3A        		.uleb128 0x3a
 7016 1ee8 7F16 0000 		.long	0x167f
 7017 1eec 13        		.byte	0x13
 7018 1eed 00        		.byte	0x0
 7019 1eee 39        		.uleb128 0x39
 7020 1eef 0000 0000 		.long	.LASF336
 7021 1ef3 01        		.byte	0x1
 7022 1ef4 A0        		.byte	0xa0
 7023 1ef5 DE1E 0000 		.long	0x1ede
 7024 1ef9 01        		.byte	0x1
 7025 1efa 05        		.byte	0x5
 7026 1efb 03        		.byte	0x3
 7027 1efc 0000 0000 		.long	spiRxBuff
 7028 1f00 39        		.uleb128 0x39
 7029 1f01 0000 0000 		.long	.LASF337
 7030 1f05 01        		.byte	0x1
 7031 1f06 A1        		.byte	0xa1
 7032 1f07 4100 0000 		.long	0x41
 7033 1f0b 01        		.byte	0x1
 7034 1f0c 05        		.byte	0x5
 7035 1f0d 03        		.byte	0x3
 7036 1f0e 0000 0000 		.long	spiRxBuffHead
 7037 1f12 36        		.uleb128 0x36
 7038 1f13 5300 0000 		.long	0x53
 7039 1f17 221F 0000 		.long	0x1f22
 7040 1f1b 3A        		.uleb128 0x3a
 7041 1f1c 7F16 0000 		.long	0x167f
 7042 1f20 05        		.byte	0x5
 7043 1f21 00        		.byte	0x0
 7044 1f22 39        		.uleb128 0x39
 7045 1f23 0000 0000 		.long	.LASF338
 7046 1f27 01        		.byte	0x1
 7047 1f28 ED        		.byte	0xed
 7048 1f29 121F 0000 		.long	0x1f12
 7049 1f2d 01        		.byte	0x1
 7050 1f2e 05        		.byte	0x5
 7051 1f2f 03        		.byte	0x3
 7052 1f30 0000 0000 		.long	startupPwms
 7053 1f34 39        		.uleb128 0x39
 7054 1f35 0000 0000 		.long	.LASF339
 7055 1f39 01        		.byte	0x1
 7056 1f3a EE        		.byte	0xee
 7057 1f3b 341E 0000 		.long	0x1e34
 7058 1f3f 01        		.byte	0x1
 7059 1f40 05        		.byte	0x5
 7060 1f41 03        		.byte	0x3
 7061 1f42 0000 0000 		.long	startupDelays
 7062 1f46 00        		.byte	0x0
 7063               		.section	.debug_abbrev
 7064 0000 01        		.uleb128 0x1
 7065 0001 11        		.uleb128 0x11
 7066 0002 01        		.byte	0x1
 7067 0003 25        		.uleb128 0x25
 7068 0004 0E        		.uleb128 0xe
GAS LISTING /tmp/cc1O4Nc2.s 			page 125


 7069 0005 13        		.uleb128 0x13
 7070 0006 0B        		.uleb128 0xb
 7071 0007 03        		.uleb128 0x3
 7072 0008 0E        		.uleb128 0xe
 7073 0009 1B        		.uleb128 0x1b
 7074 000a 0E        		.uleb128 0xe
 7075 000b 11        		.uleb128 0x11
 7076 000c 01        		.uleb128 0x1
 7077 000d 12        		.uleb128 0x12
 7078 000e 01        		.uleb128 0x1
 7079 000f 10        		.uleb128 0x10
 7080 0010 06        		.uleb128 0x6
 7081 0011 00        		.byte	0x0
 7082 0012 00        		.byte	0x0
 7083 0013 02        		.uleb128 0x2
 7084 0014 24        		.uleb128 0x24
 7085 0015 00        		.byte	0x0
 7086 0016 0B        		.uleb128 0xb
 7087 0017 0B        		.uleb128 0xb
 7088 0018 3E        		.uleb128 0x3e
 7089 0019 0B        		.uleb128 0xb
 7090 001a 03        		.uleb128 0x3
 7091 001b 0E        		.uleb128 0xe
 7092 001c 00        		.byte	0x0
 7093 001d 00        		.byte	0x0
 7094 001e 03        		.uleb128 0x3
 7095 001f 24        		.uleb128 0x24
 7096 0020 00        		.byte	0x0
 7097 0021 0B        		.uleb128 0xb
 7098 0022 0B        		.uleb128 0xb
 7099 0023 3E        		.uleb128 0x3e
 7100 0024 0B        		.uleb128 0xb
 7101 0025 03        		.uleb128 0x3
 7102 0026 08        		.uleb128 0x8
 7103 0027 00        		.byte	0x0
 7104 0028 00        		.byte	0x0
 7105 0029 04        		.uleb128 0x4
 7106 002a 16        		.uleb128 0x16
 7107 002b 00        		.byte	0x0
 7108 002c 03        		.uleb128 0x3
 7109 002d 0E        		.uleb128 0xe
 7110 002e 3A        		.uleb128 0x3a
 7111 002f 0B        		.uleb128 0xb
 7112 0030 3B        		.uleb128 0x3b
 7113 0031 0B        		.uleb128 0xb
 7114 0032 49        		.uleb128 0x49
 7115 0033 13        		.uleb128 0x13
 7116 0034 00        		.byte	0x0
 7117 0035 00        		.byte	0x0
 7118 0036 05        		.uleb128 0x5
 7119 0037 13        		.uleb128 0x13
 7120 0038 01        		.byte	0x1
 7121 0039 03        		.uleb128 0x3
 7122 003a 0E        		.uleb128 0xe
 7123 003b 0B        		.uleb128 0xb
 7124 003c 0B        		.uleb128 0xb
 7125 003d 3A        		.uleb128 0x3a
GAS LISTING /tmp/cc1O4Nc2.s 			page 126


 7126 003e 0B        		.uleb128 0xb
 7127 003f 3B        		.uleb128 0x3b
 7128 0040 0B        		.uleb128 0xb
 7129 0041 01        		.uleb128 0x1
 7130 0042 13        		.uleb128 0x13
 7131 0043 00        		.byte	0x0
 7132 0044 00        		.byte	0x0
 7133 0045 06        		.uleb128 0x6
 7134 0046 0D        		.uleb128 0xd
 7135 0047 00        		.byte	0x0
 7136 0048 03        		.uleb128 0x3
 7137 0049 08        		.uleb128 0x8
 7138 004a 3A        		.uleb128 0x3a
 7139 004b 0B        		.uleb128 0xb
 7140 004c 3B        		.uleb128 0x3b
 7141 004d 0B        		.uleb128 0xb
 7142 004e 49        		.uleb128 0x49
 7143 004f 13        		.uleb128 0x13
 7144 0050 38        		.uleb128 0x38
 7145 0051 0A        		.uleb128 0xa
 7146 0052 00        		.byte	0x0
 7147 0053 00        		.byte	0x0
 7148 0054 07        		.uleb128 0x7
 7149 0055 0D        		.uleb128 0xd
 7150 0056 00        		.byte	0x0
 7151 0057 03        		.uleb128 0x3
 7152 0058 0E        		.uleb128 0xe
 7153 0059 3A        		.uleb128 0x3a
 7154 005a 0B        		.uleb128 0xb
 7155 005b 3B        		.uleb128 0x3b
 7156 005c 0B        		.uleb128 0xb
 7157 005d 49        		.uleb128 0x49
 7158 005e 13        		.uleb128 0x13
 7159 005f 38        		.uleb128 0x38
 7160 0060 0A        		.uleb128 0xa
 7161 0061 00        		.byte	0x0
 7162 0062 00        		.byte	0x0
 7163 0063 08        		.uleb128 0x8
 7164 0064 0D        		.uleb128 0xd
 7165 0065 00        		.byte	0x0
 7166 0066 03        		.uleb128 0x3
 7167 0067 0E        		.uleb128 0xe
 7168 0068 3A        		.uleb128 0x3a
 7169 0069 0B        		.uleb128 0xb
 7170 006a 3B        		.uleb128 0x3b
 7171 006b 05        		.uleb128 0x5
 7172 006c 49        		.uleb128 0x49
 7173 006d 13        		.uleb128 0x13
 7174 006e 38        		.uleb128 0x38
 7175 006f 0A        		.uleb128 0xa
 7176 0070 00        		.byte	0x0
 7177 0071 00        		.byte	0x0
 7178 0072 09        		.uleb128 0x9
 7179 0073 0D        		.uleb128 0xd
 7180 0074 00        		.byte	0x0
 7181 0075 03        		.uleb128 0x3
 7182 0076 08        		.uleb128 0x8
GAS LISTING /tmp/cc1O4Nc2.s 			page 127


 7183 0077 3A        		.uleb128 0x3a
 7184 0078 0B        		.uleb128 0xb
 7185 0079 3B        		.uleb128 0x3b
 7186 007a 05        		.uleb128 0x5
 7187 007b 49        		.uleb128 0x49
 7188 007c 13        		.uleb128 0x13
 7189 007d 38        		.uleb128 0x38
 7190 007e 0A        		.uleb128 0xa
 7191 007f 00        		.byte	0x0
 7192 0080 00        		.byte	0x0
 7193 0081 0A        		.uleb128 0xa
 7194 0082 0F        		.uleb128 0xf
 7195 0083 00        		.byte	0x0
 7196 0084 0B        		.uleb128 0xb
 7197 0085 0B        		.uleb128 0xb
 7198 0086 49        		.uleb128 0x49
 7199 0087 13        		.uleb128 0x13
 7200 0088 00        		.byte	0x0
 7201 0089 00        		.byte	0x0
 7202 008a 0B        		.uleb128 0xb
 7203 008b 15        		.uleb128 0x15
 7204 008c 01        		.byte	0x1
 7205 008d 27        		.uleb128 0x27
 7206 008e 0C        		.uleb128 0xc
 7207 008f 49        		.uleb128 0x49
 7208 0090 13        		.uleb128 0x13
 7209 0091 01        		.uleb128 0x1
 7210 0092 13        		.uleb128 0x13
 7211 0093 00        		.byte	0x0
 7212 0094 00        		.byte	0x0
 7213 0095 0C        		.uleb128 0xc
 7214 0096 05        		.uleb128 0x5
 7215 0097 00        		.byte	0x0
 7216 0098 49        		.uleb128 0x49
 7217 0099 13        		.uleb128 0x13
 7218 009a 00        		.byte	0x0
 7219 009b 00        		.byte	0x0
 7220 009c 0D        		.uleb128 0xd
 7221 009d 0F        		.uleb128 0xf
 7222 009e 00        		.byte	0x0
 7223 009f 0B        		.uleb128 0xb
 7224 00a0 0B        		.uleb128 0xb
 7225 00a1 00        		.byte	0x0
 7226 00a2 00        		.byte	0x0
 7227 00a3 0E        		.uleb128 0xe
 7228 00a4 35        		.uleb128 0x35
 7229 00a5 00        		.byte	0x0
 7230 00a6 49        		.uleb128 0x49
 7231 00a7 13        		.uleb128 0x13
 7232 00a8 00        		.byte	0x0
 7233 00a9 00        		.byte	0x0
 7234 00aa 0F        		.uleb128 0xf
 7235 00ab 04        		.uleb128 0x4
 7236 00ac 01        		.byte	0x1
 7237 00ad 03        		.uleb128 0x3
 7238 00ae 0E        		.uleb128 0xe
 7239 00af 0B        		.uleb128 0xb
GAS LISTING /tmp/cc1O4Nc2.s 			page 128


 7240 00b0 0B        		.uleb128 0xb
 7241 00b1 3A        		.uleb128 0x3a
 7242 00b2 0B        		.uleb128 0xb
 7243 00b3 3B        		.uleb128 0x3b
 7244 00b4 0B        		.uleb128 0xb
 7245 00b5 01        		.uleb128 0x1
 7246 00b6 13        		.uleb128 0x13
 7247 00b7 00        		.byte	0x0
 7248 00b8 00        		.byte	0x0
 7249 00b9 10        		.uleb128 0x10
 7250 00ba 28        		.uleb128 0x28
 7251 00bb 00        		.byte	0x0
 7252 00bc 03        		.uleb128 0x3
 7253 00bd 0E        		.uleb128 0xe
 7254 00be 1C        		.uleb128 0x1c
 7255 00bf 0D        		.uleb128 0xd
 7256 00c0 00        		.byte	0x0
 7257 00c1 00        		.byte	0x0
 7258 00c2 11        		.uleb128 0x11
 7259 00c3 13        		.uleb128 0x13
 7260 00c4 01        		.byte	0x1
 7261 00c5 03        		.uleb128 0x3
 7262 00c6 0E        		.uleb128 0xe
 7263 00c7 0B        		.uleb128 0xb
 7264 00c8 0B        		.uleb128 0xb
 7265 00c9 3A        		.uleb128 0x3a
 7266 00ca 0B        		.uleb128 0xb
 7267 00cb 3B        		.uleb128 0x3b
 7268 00cc 05        		.uleb128 0x5
 7269 00cd 01        		.uleb128 0x1
 7270 00ce 13        		.uleb128 0x13
 7271 00cf 00        		.byte	0x0
 7272 00d0 00        		.byte	0x0
 7273 00d1 12        		.uleb128 0x12
 7274 00d2 04        		.uleb128 0x4
 7275 00d3 01        		.byte	0x1
 7276 00d4 03        		.uleb128 0x3
 7277 00d5 0E        		.uleb128 0xe
 7278 00d6 0B        		.uleb128 0xb
 7279 00d7 0B        		.uleb128 0xb
 7280 00d8 3A        		.uleb128 0x3a
 7281 00d9 0B        		.uleb128 0xb
 7282 00da 3B        		.uleb128 0x3b
 7283 00db 05        		.uleb128 0x5
 7284 00dc 01        		.uleb128 0x1
 7285 00dd 13        		.uleb128 0x13
 7286 00de 00        		.byte	0x0
 7287 00df 00        		.byte	0x0
 7288 00e0 13        		.uleb128 0x13
 7289 00e1 13        		.uleb128 0x13
 7290 00e2 01        		.byte	0x1
 7291 00e3 0B        		.uleb128 0xb
 7292 00e4 0B        		.uleb128 0xb
 7293 00e5 3A        		.uleb128 0x3a
 7294 00e6 0B        		.uleb128 0xb
 7295 00e7 3B        		.uleb128 0x3b
 7296 00e8 05        		.uleb128 0x5
GAS LISTING /tmp/cc1O4Nc2.s 			page 129


 7297 00e9 01        		.uleb128 0x1
 7298 00ea 13        		.uleb128 0x13
 7299 00eb 00        		.byte	0x0
 7300 00ec 00        		.byte	0x0
 7301 00ed 14        		.uleb128 0x14
 7302 00ee 17        		.uleb128 0x17
 7303 00ef 01        		.byte	0x1
 7304 00f0 0B        		.uleb128 0xb
 7305 00f1 0B        		.uleb128 0xb
 7306 00f2 3A        		.uleb128 0x3a
 7307 00f3 0B        		.uleb128 0xb
 7308 00f4 3B        		.uleb128 0x3b
 7309 00f5 05        		.uleb128 0x5
 7310 00f6 01        		.uleb128 0x1
 7311 00f7 13        		.uleb128 0x13
 7312 00f8 00        		.byte	0x0
 7313 00f9 00        		.byte	0x0
 7314 00fa 15        		.uleb128 0x15
 7315 00fb 0D        		.uleb128 0xd
 7316 00fc 00        		.byte	0x0
 7317 00fd 03        		.uleb128 0x3
 7318 00fe 08        		.uleb128 0x8
 7319 00ff 3A        		.uleb128 0x3a
 7320 0100 0B        		.uleb128 0xb
 7321 0101 3B        		.uleb128 0x3b
 7322 0102 05        		.uleb128 0x5
 7323 0103 49        		.uleb128 0x49
 7324 0104 13        		.uleb128 0x13
 7325 0105 00        		.byte	0x0
 7326 0106 00        		.byte	0x0
 7327 0107 16        		.uleb128 0x16
 7328 0108 0D        		.uleb128 0xd
 7329 0109 00        		.byte	0x0
 7330 010a 49        		.uleb128 0x49
 7331 010b 13        		.uleb128 0x13
 7332 010c 00        		.byte	0x0
 7333 010d 00        		.byte	0x0
 7334 010e 17        		.uleb128 0x17
 7335 010f 0D        		.uleb128 0xd
 7336 0110 00        		.byte	0x0
 7337 0111 49        		.uleb128 0x49
 7338 0112 13        		.uleb128 0x13
 7339 0113 38        		.uleb128 0x38
 7340 0114 0A        		.uleb128 0xa
 7341 0115 00        		.byte	0x0
 7342 0116 00        		.byte	0x0
 7343 0117 18        		.uleb128 0x18
 7344 0118 16        		.uleb128 0x16
 7345 0119 00        		.byte	0x0
 7346 011a 03        		.uleb128 0x3
 7347 011b 0E        		.uleb128 0xe
 7348 011c 3A        		.uleb128 0x3a
 7349 011d 0B        		.uleb128 0xb
 7350 011e 3B        		.uleb128 0x3b
 7351 011f 05        		.uleb128 0x5
 7352 0120 49        		.uleb128 0x49
 7353 0121 13        		.uleb128 0x13
GAS LISTING /tmp/cc1O4Nc2.s 			page 130


 7354 0122 00        		.byte	0x0
 7355 0123 00        		.byte	0x0
 7356 0124 19        		.uleb128 0x19
 7357 0125 0D        		.uleb128 0xd
 7358 0126 00        		.byte	0x0
 7359 0127 03        		.uleb128 0x3
 7360 0128 0E        		.uleb128 0xe
 7361 0129 3A        		.uleb128 0x3a
 7362 012a 0B        		.uleb128 0xb
 7363 012b 3B        		.uleb128 0x3b
 7364 012c 05        		.uleb128 0x5
 7365 012d 49        		.uleb128 0x49
 7366 012e 13        		.uleb128 0x13
 7367 012f 00        		.byte	0x0
 7368 0130 00        		.byte	0x0
 7369 0131 1A        		.uleb128 0x1a
 7370 0132 24        		.uleb128 0x24
 7371 0133 00        		.byte	0x0
 7372 0134 0B        		.uleb128 0xb
 7373 0135 0B        		.uleb128 0xb
 7374 0136 3E        		.uleb128 0x3e
 7375 0137 0B        		.uleb128 0xb
 7376 0138 00        		.byte	0x0
 7377 0139 00        		.byte	0x0
 7378 013a 1B        		.uleb128 0x1b
 7379 013b 2E        		.uleb128 0x2e
 7380 013c 01        		.byte	0x1
 7381 013d 03        		.uleb128 0x3
 7382 013e 0E        		.uleb128 0xe
 7383 013f 3A        		.uleb128 0x3a
 7384 0140 0B        		.uleb128 0xb
 7385 0141 3B        		.uleb128 0x3b
 7386 0142 0B        		.uleb128 0xb
 7387 0143 27        		.uleb128 0x27
 7388 0144 0C        		.uleb128 0xc
 7389 0145 20        		.uleb128 0x20
 7390 0146 0B        		.uleb128 0xb
 7391 0147 01        		.uleb128 0x1
 7392 0148 13        		.uleb128 0x13
 7393 0149 00        		.byte	0x0
 7394 014a 00        		.byte	0x0
 7395 014b 1C        		.uleb128 0x1c
 7396 014c 05        		.uleb128 0x5
 7397 014d 00        		.byte	0x0
 7398 014e 03        		.uleb128 0x3
 7399 014f 0E        		.uleb128 0xe
 7400 0150 3A        		.uleb128 0x3a
 7401 0151 0B        		.uleb128 0xb
 7402 0152 3B        		.uleb128 0x3b
 7403 0153 0B        		.uleb128 0xb
 7404 0154 49        		.uleb128 0x49
 7405 0155 13        		.uleb128 0x13
 7406 0156 00        		.byte	0x0
 7407 0157 00        		.byte	0x0
 7408 0158 1D        		.uleb128 0x1d
 7409 0159 34        		.uleb128 0x34
 7410 015a 00        		.byte	0x0
GAS LISTING /tmp/cc1O4Nc2.s 			page 131


 7411 015b 03        		.uleb128 0x3
 7412 015c 0E        		.uleb128 0xe
 7413 015d 3A        		.uleb128 0x3a
 7414 015e 0B        		.uleb128 0xb
 7415 015f 3B        		.uleb128 0x3b
 7416 0160 0B        		.uleb128 0xb
 7417 0161 49        		.uleb128 0x49
 7418 0162 13        		.uleb128 0x13
 7419 0163 00        		.byte	0x0
 7420 0164 00        		.byte	0x0
 7421 0165 1E        		.uleb128 0x1e
 7422 0166 0B        		.uleb128 0xb
 7423 0167 00        		.byte	0x0
 7424 0168 00        		.byte	0x0
 7425 0169 00        		.byte	0x0
 7426 016a 1F        		.uleb128 0x1f
 7427 016b 2E        		.uleb128 0x2e
 7428 016c 00        		.byte	0x0
 7429 016d 3F        		.uleb128 0x3f
 7430 016e 0C        		.uleb128 0xc
 7431 016f 03        		.uleb128 0x3
 7432 0170 0E        		.uleb128 0xe
 7433 0171 3A        		.uleb128 0x3a
 7434 0172 0B        		.uleb128 0xb
 7435 0173 3B        		.uleb128 0x3b
 7436 0174 05        		.uleb128 0x5
 7437 0175 27        		.uleb128 0x27
 7438 0176 0C        		.uleb128 0xc
 7439 0177 11        		.uleb128 0x11
 7440 0178 01        		.uleb128 0x1
 7441 0179 12        		.uleb128 0x12
 7442 017a 01        		.uleb128 0x1
 7443 017b 40        		.uleb128 0x40
 7444 017c 0A        		.uleb128 0xa
 7445 017d 00        		.byte	0x0
 7446 017e 00        		.byte	0x0
 7447 017f 20        		.uleb128 0x20
 7448 0180 2E        		.uleb128 0x2e
 7449 0181 01        		.byte	0x1
 7450 0182 3F        		.uleb128 0x3f
 7451 0183 0C        		.uleb128 0xc
 7452 0184 03        		.uleb128 0x3
 7453 0185 0E        		.uleb128 0xe
 7454 0186 3A        		.uleb128 0x3a
 7455 0187 0B        		.uleb128 0xb
 7456 0188 3B        		.uleb128 0x3b
 7457 0189 05        		.uleb128 0x5
 7458 018a 27        		.uleb128 0x27
 7459 018b 0C        		.uleb128 0xc
 7460 018c 11        		.uleb128 0x11
 7461 018d 01        		.uleb128 0x1
 7462 018e 12        		.uleb128 0x12
 7463 018f 01        		.uleb128 0x1
 7464 0190 40        		.uleb128 0x40
 7465 0191 0A        		.uleb128 0xa
 7466 0192 01        		.uleb128 0x1
 7467 0193 13        		.uleb128 0x13
GAS LISTING /tmp/cc1O4Nc2.s 			page 132


 7468 0194 00        		.byte	0x0
 7469 0195 00        		.byte	0x0
 7470 0196 21        		.uleb128 0x21
 7471 0197 05        		.uleb128 0x5
 7472 0198 00        		.byte	0x0
 7473 0199 03        		.uleb128 0x3
 7474 019a 08        		.uleb128 0x8
 7475 019b 3A        		.uleb128 0x3a
 7476 019c 0B        		.uleb128 0xb
 7477 019d 3B        		.uleb128 0x3b
 7478 019e 05        		.uleb128 0x5
 7479 019f 49        		.uleb128 0x49
 7480 01a0 13        		.uleb128 0x13
 7481 01a1 02        		.uleb128 0x2
 7482 01a2 0A        		.uleb128 0xa
 7483 01a3 00        		.byte	0x0
 7484 01a4 00        		.byte	0x0
 7485 01a5 22        		.uleb128 0x22
 7486 01a6 05        		.uleb128 0x5
 7487 01a7 00        		.byte	0x0
 7488 01a8 03        		.uleb128 0x3
 7489 01a9 0E        		.uleb128 0xe
 7490 01aa 3A        		.uleb128 0x3a
 7491 01ab 0B        		.uleb128 0xb
 7492 01ac 3B        		.uleb128 0x3b
 7493 01ad 05        		.uleb128 0x5
 7494 01ae 49        		.uleb128 0x49
 7495 01af 13        		.uleb128 0x13
 7496 01b0 02        		.uleb128 0x2
 7497 01b1 0A        		.uleb128 0xa
 7498 01b2 00        		.byte	0x0
 7499 01b3 00        		.byte	0x0
 7500 01b4 23        		.uleb128 0x23
 7501 01b5 05        		.uleb128 0x5
 7502 01b6 00        		.byte	0x0
 7503 01b7 03        		.uleb128 0x3
 7504 01b8 0E        		.uleb128 0xe
 7505 01b9 3A        		.uleb128 0x3a
 7506 01ba 0B        		.uleb128 0xb
 7507 01bb 3B        		.uleb128 0x3b
 7508 01bc 05        		.uleb128 0x5
 7509 01bd 49        		.uleb128 0x49
 7510 01be 13        		.uleb128 0x13
 7511 01bf 02        		.uleb128 0x2
 7512 01c0 06        		.uleb128 0x6
 7513 01c1 00        		.byte	0x0
 7514 01c2 00        		.byte	0x0
 7515 01c3 24        		.uleb128 0x24
 7516 01c4 2E        		.uleb128 0x2e
 7517 01c5 01        		.byte	0x1
 7518 01c6 03        		.uleb128 0x3
 7519 01c7 0E        		.uleb128 0xe
 7520 01c8 3A        		.uleb128 0x3a
 7521 01c9 0B        		.uleb128 0xb
 7522 01ca 3B        		.uleb128 0x3b
 7523 01cb 05        		.uleb128 0x5
 7524 01cc 27        		.uleb128 0x27
GAS LISTING /tmp/cc1O4Nc2.s 			page 133


 7525 01cd 0C        		.uleb128 0xc
 7526 01ce 49        		.uleb128 0x49
 7527 01cf 13        		.uleb128 0x13
 7528 01d0 11        		.uleb128 0x11
 7529 01d1 01        		.uleb128 0x1
 7530 01d2 12        		.uleb128 0x12
 7531 01d3 01        		.uleb128 0x1
 7532 01d4 40        		.uleb128 0x40
 7533 01d5 0A        		.uleb128 0xa
 7534 01d6 01        		.uleb128 0x1
 7535 01d7 13        		.uleb128 0x13
 7536 01d8 00        		.byte	0x0
 7537 01d9 00        		.byte	0x0
 7538 01da 25        		.uleb128 0x25
 7539 01db 05        		.uleb128 0x5
 7540 01dc 00        		.byte	0x0
 7541 01dd 03        		.uleb128 0x3
 7542 01de 08        		.uleb128 0x8
 7543 01df 3A        		.uleb128 0x3a
 7544 01e0 0B        		.uleb128 0xb
 7545 01e1 3B        		.uleb128 0x3b
 7546 01e2 05        		.uleb128 0x5
 7547 01e3 49        		.uleb128 0x49
 7548 01e4 13        		.uleb128 0x13
 7549 01e5 02        		.uleb128 0x2
 7550 01e6 06        		.uleb128 0x6
 7551 01e7 00        		.byte	0x0
 7552 01e8 00        		.byte	0x0
 7553 01e9 26        		.uleb128 0x26
 7554 01ea 34        		.uleb128 0x34
 7555 01eb 00        		.byte	0x0
 7556 01ec 03        		.uleb128 0x3
 7557 01ed 08        		.uleb128 0x8
 7558 01ee 3A        		.uleb128 0x3a
 7559 01ef 0B        		.uleb128 0xb
 7560 01f0 3B        		.uleb128 0x3b
 7561 01f1 05        		.uleb128 0x5
 7562 01f2 49        		.uleb128 0x49
 7563 01f3 13        		.uleb128 0x13
 7564 01f4 02        		.uleb128 0x2
 7565 01f5 0A        		.uleb128 0xa
 7566 01f6 00        		.byte	0x0
 7567 01f7 00        		.byte	0x0
 7568 01f8 27        		.uleb128 0x27
 7569 01f9 1D        		.uleb128 0x1d
 7570 01fa 01        		.byte	0x1
 7571 01fb 31        		.uleb128 0x31
 7572 01fc 13        		.uleb128 0x13
 7573 01fd 55        		.uleb128 0x55
 7574 01fe 06        		.uleb128 0x6
 7575 01ff 58        		.uleb128 0x58
 7576 0200 0B        		.uleb128 0xb
 7577 0201 59        		.uleb128 0x59
 7578 0202 05        		.uleb128 0x5
 7579 0203 01        		.uleb128 0x1
 7580 0204 13        		.uleb128 0x13
 7581 0205 00        		.byte	0x0
GAS LISTING /tmp/cc1O4Nc2.s 			page 134


 7582 0206 00        		.byte	0x0
 7583 0207 28        		.uleb128 0x28
 7584 0208 05        		.uleb128 0x5
 7585 0209 00        		.byte	0x0
 7586 020a 31        		.uleb128 0x31
 7587 020b 13        		.uleb128 0x13
 7588 020c 00        		.byte	0x0
 7589 020d 00        		.byte	0x0
 7590 020e 29        		.uleb128 0x29
 7591 020f 0B        		.uleb128 0xb
 7592 0210 01        		.byte	0x1
 7593 0211 55        		.uleb128 0x55
 7594 0212 06        		.uleb128 0x6
 7595 0213 00        		.byte	0x0
 7596 0214 00        		.byte	0x0
 7597 0215 2A        		.uleb128 0x2a
 7598 0216 34        		.uleb128 0x34
 7599 0217 00        		.byte	0x0
 7600 0218 31        		.uleb128 0x31
 7601 0219 13        		.uleb128 0x13
 7602 021a 02        		.uleb128 0x2
 7603 021b 06        		.uleb128 0x6
 7604 021c 00        		.byte	0x0
 7605 021d 00        		.byte	0x0
 7606 021e 2B        		.uleb128 0x2b
 7607 021f 34        		.uleb128 0x34
 7608 0220 00        		.byte	0x0
 7609 0221 31        		.uleb128 0x31
 7610 0222 13        		.uleb128 0x13
 7611 0223 00        		.byte	0x0
 7612 0224 00        		.byte	0x0
 7613 0225 2C        		.uleb128 0x2c
 7614 0226 1D        		.uleb128 0x1d
 7615 0227 01        		.byte	0x1
 7616 0228 31        		.uleb128 0x31
 7617 0229 13        		.uleb128 0x13
 7618 022a 55        		.uleb128 0x55
 7619 022b 06        		.uleb128 0x6
 7620 022c 58        		.uleb128 0x58
 7621 022d 0B        		.uleb128 0xb
 7622 022e 59        		.uleb128 0x59
 7623 022f 0B        		.uleb128 0xb
 7624 0230 00        		.byte	0x0
 7625 0231 00        		.byte	0x0
 7626 0232 2D        		.uleb128 0x2d
 7627 0233 05        		.uleb128 0x5
 7628 0234 00        		.byte	0x0
 7629 0235 31        		.uleb128 0x31
 7630 0236 13        		.uleb128 0x13
 7631 0237 02        		.uleb128 0x2
 7632 0238 06        		.uleb128 0x6
 7633 0239 00        		.byte	0x0
 7634 023a 00        		.byte	0x0
 7635 023b 2E        		.uleb128 0x2e
 7636 023c 1D        		.uleb128 0x1d
 7637 023d 01        		.byte	0x1
 7638 023e 31        		.uleb128 0x31
GAS LISTING /tmp/cc1O4Nc2.s 			page 135


 7639 023f 13        		.uleb128 0x13
 7640 0240 11        		.uleb128 0x11
 7641 0241 01        		.uleb128 0x1
 7642 0242 12        		.uleb128 0x12
 7643 0243 01        		.uleb128 0x1
 7644 0244 58        		.uleb128 0x58
 7645 0245 0B        		.uleb128 0xb
 7646 0246 59        		.uleb128 0x59
 7647 0247 05        		.uleb128 0x5
 7648 0248 00        		.byte	0x0
 7649 0249 00        		.byte	0x0
 7650 024a 2F        		.uleb128 0x2f
 7651 024b 0B        		.uleb128 0xb
 7652 024c 01        		.byte	0x1
 7653 024d 11        		.uleb128 0x11
 7654 024e 01        		.uleb128 0x1
 7655 024f 12        		.uleb128 0x12
 7656 0250 01        		.uleb128 0x1
 7657 0251 00        		.byte	0x0
 7658 0252 00        		.byte	0x0
 7659 0253 30        		.uleb128 0x30
 7660 0254 1D        		.uleb128 0x1d
 7661 0255 01        		.byte	0x1
 7662 0256 31        		.uleb128 0x31
 7663 0257 13        		.uleb128 0x13
 7664 0258 11        		.uleb128 0x11
 7665 0259 01        		.uleb128 0x1
 7666 025a 12        		.uleb128 0x12
 7667 025b 01        		.uleb128 0x1
 7668 025c 58        		.uleb128 0x58
 7669 025d 0B        		.uleb128 0xb
 7670 025e 59        		.uleb128 0x59
 7671 025f 0B        		.uleb128 0xb
 7672 0260 00        		.byte	0x0
 7673 0261 00        		.byte	0x0
 7674 0262 31        		.uleb128 0x31
 7675 0263 1D        		.uleb128 0x1d
 7676 0264 01        		.byte	0x1
 7677 0265 31        		.uleb128 0x31
 7678 0266 13        		.uleb128 0x13
 7679 0267 11        		.uleb128 0x11
 7680 0268 01        		.uleb128 0x1
 7681 0269 12        		.uleb128 0x12
 7682 026a 01        		.uleb128 0x1
 7683 026b 58        		.uleb128 0x58
 7684 026c 0B        		.uleb128 0xb
 7685 026d 59        		.uleb128 0x59
 7686 026e 05        		.uleb128 0x5
 7687 026f 01        		.uleb128 0x1
 7688 0270 13        		.uleb128 0x13
 7689 0271 00        		.byte	0x0
 7690 0272 00        		.byte	0x0
 7691 0273 32        		.uleb128 0x32
 7692 0274 34        		.uleb128 0x34
 7693 0275 00        		.byte	0x0
 7694 0276 31        		.uleb128 0x31
 7695 0277 13        		.uleb128 0x13
GAS LISTING /tmp/cc1O4Nc2.s 			page 136


 7696 0278 02        		.uleb128 0x2
 7697 0279 0A        		.uleb128 0xa
 7698 027a 00        		.byte	0x0
 7699 027b 00        		.byte	0x0
 7700 027c 33        		.uleb128 0x33
 7701 027d 34        		.uleb128 0x34
 7702 027e 00        		.byte	0x0
 7703 027f 03        		.uleb128 0x3
 7704 0280 0E        		.uleb128 0xe
 7705 0281 3A        		.uleb128 0x3a
 7706 0282 0B        		.uleb128 0xb
 7707 0283 3B        		.uleb128 0x3b
 7708 0284 05        		.uleb128 0x5
 7709 0285 49        		.uleb128 0x49
 7710 0286 13        		.uleb128 0x13
 7711 0287 02        		.uleb128 0x2
 7712 0288 06        		.uleb128 0x6
 7713 0289 00        		.byte	0x0
 7714 028a 00        		.byte	0x0
 7715 028b 34        		.uleb128 0x34
 7716 028c 2E        		.uleb128 0x2e
 7717 028d 00        		.byte	0x0
 7718 028e 3F        		.uleb128 0x3f
 7719 028f 0C        		.uleb128 0xc
 7720 0290 03        		.uleb128 0x3
 7721 0291 0E        		.uleb128 0xe
 7722 0292 3A        		.uleb128 0x3a
 7723 0293 0B        		.uleb128 0xb
 7724 0294 3B        		.uleb128 0x3b
 7725 0295 0B        		.uleb128 0xb
 7726 0296 27        		.uleb128 0x27
 7727 0297 0C        		.uleb128 0xc
 7728 0298 49        		.uleb128 0x49
 7729 0299 13        		.uleb128 0x13
 7730 029a 11        		.uleb128 0x11
 7731 029b 01        		.uleb128 0x1
 7732 029c 12        		.uleb128 0x12
 7733 029d 01        		.uleb128 0x1
 7734 029e 40        		.uleb128 0x40
 7735 029f 0A        		.uleb128 0xa
 7736 02a0 00        		.byte	0x0
 7737 02a1 00        		.byte	0x0
 7738 02a2 35        		.uleb128 0x35
 7739 02a3 34        		.uleb128 0x34
 7740 02a4 00        		.byte	0x0
 7741 02a5 03        		.uleb128 0x3
 7742 02a6 0E        		.uleb128 0xe
 7743 02a7 3A        		.uleb128 0x3a
 7744 02a8 0B        		.uleb128 0xb
 7745 02a9 3B        		.uleb128 0x3b
 7746 02aa 0B        		.uleb128 0xb
 7747 02ab 49        		.uleb128 0x49
 7748 02ac 13        		.uleb128 0x13
 7749 02ad 02        		.uleb128 0x2
 7750 02ae 0A        		.uleb128 0xa
 7751 02af 00        		.byte	0x0
 7752 02b0 00        		.byte	0x0
GAS LISTING /tmp/cc1O4Nc2.s 			page 137


 7753 02b1 36        		.uleb128 0x36
 7754 02b2 01        		.uleb128 0x1
 7755 02b3 01        		.byte	0x1
 7756 02b4 49        		.uleb128 0x49
 7757 02b5 13        		.uleb128 0x13
 7758 02b6 01        		.uleb128 0x1
 7759 02b7 13        		.uleb128 0x13
 7760 02b8 00        		.byte	0x0
 7761 02b9 00        		.byte	0x0
 7762 02ba 37        		.uleb128 0x37
 7763 02bb 21        		.uleb128 0x21
 7764 02bc 00        		.byte	0x0
 7765 02bd 00        		.byte	0x0
 7766 02be 00        		.byte	0x0
 7767 02bf 38        		.uleb128 0x38
 7768 02c0 34        		.uleb128 0x34
 7769 02c1 00        		.byte	0x0
 7770 02c2 03        		.uleb128 0x3
 7771 02c3 0E        		.uleb128 0xe
 7772 02c4 3A        		.uleb128 0x3a
 7773 02c5 0B        		.uleb128 0xb
 7774 02c6 3B        		.uleb128 0x3b
 7775 02c7 05        		.uleb128 0x5
 7776 02c8 49        		.uleb128 0x49
 7777 02c9 13        		.uleb128 0x13
 7778 02ca 3F        		.uleb128 0x3f
 7779 02cb 0C        		.uleb128 0xc
 7780 02cc 3C        		.uleb128 0x3c
 7781 02cd 0C        		.uleb128 0xc
 7782 02ce 00        		.byte	0x0
 7783 02cf 00        		.byte	0x0
 7784 02d0 39        		.uleb128 0x39
 7785 02d1 34        		.uleb128 0x34
 7786 02d2 00        		.byte	0x0
 7787 02d3 03        		.uleb128 0x3
 7788 02d4 0E        		.uleb128 0xe
 7789 02d5 3A        		.uleb128 0x3a
 7790 02d6 0B        		.uleb128 0xb
 7791 02d7 3B        		.uleb128 0x3b
 7792 02d8 0B        		.uleb128 0xb
 7793 02d9 49        		.uleb128 0x49
 7794 02da 13        		.uleb128 0x13
 7795 02db 3F        		.uleb128 0x3f
 7796 02dc 0C        		.uleb128 0xc
 7797 02dd 02        		.uleb128 0x2
 7798 02de 0A        		.uleb128 0xa
 7799 02df 00        		.byte	0x0
 7800 02e0 00        		.byte	0x0
 7801 02e1 3A        		.uleb128 0x3a
 7802 02e2 21        		.uleb128 0x21
 7803 02e3 00        		.byte	0x0
 7804 02e4 49        		.uleb128 0x49
 7805 02e5 13        		.uleb128 0x13
 7806 02e6 2F        		.uleb128 0x2f
 7807 02e7 0B        		.uleb128 0xb
 7808 02e8 00        		.byte	0x0
 7809 02e9 00        		.byte	0x0
GAS LISTING /tmp/cc1O4Nc2.s 			page 138


 7810 02ea 00        		.byte	0x0
 7811               		.section	.debug_pubnames,"",@progbits
 7812 0000 1C03 0000 		.long	0x31c
 7813 0004 0200      		.word	0x2
 7814 0006 0000 0000 		.long	.Ldebug_info0
 7815 000a 471F 0000 		.long	0x1f47
 7816 000e 1D17 0000 		.long	0x171d
 7817 0012 5F5F 7665 		.string	"__vector_110"
 7817      6374 6F72 
 7817      5F31 3130 
 7817      00
 7818 001f 3217 0000 		.long	0x1732
 7819 0023 5F5F 7665 		.string	"__vector_111"
 7819      6374 6F72 
 7819      5F31 3131 
 7819      00
 7820 0030 4717 0000 		.long	0x1747
 7821 0034 5F5F 7665 		.string	"__vector_112"
 7821      6374 6F72 
 7821      5F31 3132 
 7821      00
 7822 0041 5C17 0000 		.long	0x175c
 7823 0045 5F5F 7665 		.string	"__vector_113"
 7823      6374 6F72 
 7823      5F31 3133 
 7823      00
 7824 0052 7117 0000 		.long	0x1771
 7825 0056 5F5F 7665 		.string	"__vector_108"
 7825      6374 6F72 
 7825      5F31 3038 
 7825      00
 7826 0063 8617 0000 		.long	0x1786
 7827 0067 5F5F 7665 		.string	"__vector_49"
 7827      6374 6F72 
 7827      5F34 3900 
 7828 0073 9B17 0000 		.long	0x179b
 7829 0077 5F5F 7665 		.string	"__vector_50"
 7829      6374 6F72 
 7829      5F35 3000 
 7830 0083 B017 0000 		.long	0x17b0
 7831 0087 5F5F 7665 		.string	"__vector_51"
 7831      6374 6F72 
 7831      5F35 3100 
 7832 0093 C517 0000 		.long	0x17c5
 7833 0097 5F5F 7665 		.string	"__vector_52"
 7833      6374 6F72 
 7833      5F35 3200 
 7834 00a3 DA17 0000 		.long	0x17da
 7835 00a7 5F5F 7665 		.string	"__vector_47"
 7835      6374 6F72 
 7835      5F34 3700 
 7836 00b3 EF17 0000 		.long	0x17ef
 7837 00b7 636F 6E66 		.string	"configMotTimer0"
 7837      6967 4D6F 
 7837      7454 696D 
 7837      6572 3000 
 7838 00c7 2618 0000 		.long	0x1826
GAS LISTING /tmp/cc1O4Nc2.s 			page 139


 7839 00cb 636F 6E66 		.string	"configMotTimer1"
 7839      6967 4D6F 
 7839      7454 696D 
 7839      6572 3100 
 7840 00db 5D18 0000 		.long	0x185d
 7841 00df 5F5F 7665 		.string	"__vector_22"
 7841      6374 6F72 
 7841      5F32 3200 
 7842 00eb 7218 0000 		.long	0x1872
 7843 00ef 5F5F 7665 		.string	"__vector_55"
 7843      6374 6F72 
 7843      5F35 3500 
 7844 00fb 8718 0000 		.long	0x1887
 7845 00ff 5F5F 7665 		.string	"__vector_79"
 7845      6374 6F72 
 7845      5F37 3900 
 7846 010b 9C18 0000 		.long	0x189c
 7847 010f 7365 744D 		.string	"setMotor1State"
 7847      6F74 6F72 
 7847      3153 7461 
 7847      7465 00
 7848 011e C418 0000 		.long	0x18c4
 7849 0122 7365 744D 		.string	"setMotor2State"
 7849      6F74 6F72 
 7849      3253 7461 
 7849      7465 00
 7850 0131 EE18 0000 		.long	0x18ee
 7851 0135 7365 744D 		.string	"setMotor3State"
 7851      6F74 6F72 
 7851      3353 7461 
 7851      7465 00
 7852 0144 1619 0000 		.long	0x1916
 7853 0148 7365 744D 		.string	"setMotor4State"
 7853      6F74 6F72 
 7853      3453 7461 
 7853      7465 00
 7854 0157 7919 0000 		.long	0x1979
 7855 015b 5F5F 7665 		.string	"__vector_24"
 7855      6374 6F72 
 7855      5F32 3400 
 7856 0167 8E19 0000 		.long	0x198e
 7857 016b 7072 6F63 		.string	"processSpiRxBuff"
 7857      6573 7353 
 7857      7069 5278 
 7857      4275 6666 
 7857      00
 7858 017c 3F1A 0000 		.long	0x1a3f
 7859 0180 7374 6172 		.string	"startup"
 7859      7475 7000 
 7860 0188 651C 0000 		.long	0x1c65
 7861 018c 636F 6E66 		.string	"configDelayTimer"
 7861      6967 4465 
 7861      6C61 7954 
 7861      696D 6572 
 7861      00
 7862 019d 8E1C 0000 		.long	0x1c8e
 7863 01a1 5F5F 7665 		.string	"__vector_72"
GAS LISTING /tmp/cc1O4Nc2.s 			page 140


 7863      6374 6F72 
 7863      5F37 3200 
 7864 01ad B81C 0000 		.long	0x1cb8
 7865 01b1 5F5F 7665 		.string	"__vector_83"
 7865      6374 6F72 
 7865      5F38 3300 
 7866 01bd CD1C 0000 		.long	0x1ccd
 7867 01c1 696E 6974 		.string	"initAdc"
 7867      4164 6300 
 7868 01c9 FD1C 0000 		.long	0x1cfd
 7869 01cd 636F 6E66 		.string	"configHalfPWMTimer"
 7869      6967 4861 
 7869      6C66 5057 
 7869      4D54 696D 
 7869      6572 00
 7870 01e0 4C1D 0000 		.long	0x1d4c
 7871 01e4 636F 6E66 		.string	"configPWM"
 7871      6967 5057 
 7871      4D00 
 7872 01ee 951D 0000 		.long	0x1d95
 7873 01f2 636F 6E66 		.string	"configClock"
 7873      6967 436C 
 7873      6F63 6B00 
 7874 01fe AA1D 0000 		.long	0x1daa
 7875 0202 6D61 696E 		.string	"main"
 7875      00
 7876 0207 EC1D 0000 		.long	0x1dec
 7877 020b 6D6F 746F 		.string	"motor1State"
 7877      7231 5374 
 7877      6174 6500 
 7878 0217 FE1D 0000 		.long	0x1dfe
 7879 021b 6D6F 746F 		.string	"motor2State"
 7879      7232 5374 
 7879      6174 6500 
 7880 0227 101E 0000 		.long	0x1e10
 7881 022b 6D6F 746F 		.string	"motor3State"
 7881      7233 5374 
 7881      6174 6500 
 7882 0237 221E 0000 		.long	0x1e22
 7883 023b 6D6F 746F 		.string	"motor4State"
 7883      7234 5374 
 7883      6174 6500 
 7884 0247 441E 0000 		.long	0x1e44
 7885 024b 7374 6174 		.string	"stateSlope"
 7885      6553 6C6F 
 7885      7065 00
 7886 0256 5B1E 0000 		.long	0x1e5b
 7887 025a 6D6F 746F 		.string	"motor2StateSenseIndex"
 7887      7232 5374 
 7887      6174 6553 
 7887      656E 7365 
 7887      496E 6465 
 7888 0270 721E 0000 		.long	0x1e72
 7889 0274 6D6F 746F 		.string	"motor1Thresh"
 7889      7231 5468 
 7889      7265 7368 
 7889      00
GAS LISTING /tmp/cc1O4Nc2.s 			page 141


 7890 0281 841E 0000 		.long	0x1e84
 7891 0285 6D6F 746F 		.string	"motor2Thresh"
 7891      7232 5468 
 7891      7265 7368 
 7891      00
 7892 0292 961E 0000 		.long	0x1e96
 7893 0296 6D6F 746F 		.string	"motor3Thresh"
 7893      7233 5468 
 7893      7265 7368 
 7893      00
 7894 02a3 A81E 0000 		.long	0x1ea8
 7895 02a7 6D6F 746F 		.string	"motor4Thresh"
 7895      7234 5468 
 7895      7265 7368 
 7895      00
 7896 02b4 BA1E 0000 		.long	0x1eba
 7897 02b8 6175 746F 		.string	"autoCommutationFlag"
 7897      436F 6D6D 
 7897      7574 6174 
 7897      696F 6E46 
 7897      6C61 6700 
 7898 02cc CC1E 0000 		.long	0x1ecc
 7899 02d0 7370 6953 		.string	"spiSlaveC"
 7899      6C61 7665 
 7899      4300 
 7900 02da EE1E 0000 		.long	0x1eee
 7901 02de 7370 6952 		.string	"spiRxBuff"
 7901      7842 7566 
 7901      6600 
 7902 02e8 001F 0000 		.long	0x1f00
 7903 02ec 7370 6952 		.string	"spiRxBuffHead"
 7903      7842 7566 
 7903      6648 6561 
 7903      6400 
 7904 02fa 221F 0000 		.long	0x1f22
 7905 02fe 7374 6172 		.string	"startupPwms"
 7905      7475 7050 
 7905      776D 7300 
 7906 030a 341F 0000 		.long	0x1f34
 7907 030e 7374 6172 		.string	"startupDelays"
 7907      7475 7044 
 7907      656C 6179 
 7907      7300 
 7908 031c 0000 0000 		.long	0x0
 7909               		.section	.debug_aranges,"",@progbits
 7910 0000 1C00 0000 		.long	0x1c
 7911 0004 0200      		.word	0x2
 7912 0006 0000 0000 		.long	.Ldebug_info0
 7913 000a 04        		.byte	0x4
 7914 000b 00        		.byte	0x0
 7915 000c 0000      		.word	0x0
 7916 000e 0000      		.word	0x0
 7917 0010 0000 0000 		.long	.Ltext0
 7918 0014 F00B 0000 		.long	.Letext0-.Ltext0
 7919 0018 0000 0000 		.long	0x0
 7920 001c 0000 0000 		.long	0x0
 7921               		.section	.debug_ranges,"",@progbits
GAS LISTING /tmp/cc1O4Nc2.s 			page 142


 7922               	.Ldebug_ranges0:
 7923 0000 1C04 0000 		.long	.LBB60-.Ltext0
 7924 0004 2004 0000 		.long	.LBE60-.Ltext0
 7925 0008 2A04 0000 		.long	.LBB67-.Ltext0
 7926 000c 3604 0000 		.long	.LBE67-.Ltext0
 7927 0010 0000 0000 		.long	0x0
 7928 0014 0000 0000 		.long	0x0
 7929 0018 1C04 0000 		.long	.LBB61-.Ltext0
 7930 001c 2004 0000 		.long	.LBE61-.Ltext0
 7931 0020 2A04 0000 		.long	.LBB66-.Ltext0
 7932 0024 3604 0000 		.long	.LBE66-.Ltext0
 7933 0028 0000 0000 		.long	0x0
 7934 002c 0000 0000 		.long	0x0
 7935 0030 1C04 0000 		.long	.LBB62-.Ltext0
 7936 0034 2004 0000 		.long	.LBE62-.Ltext0
 7937 0038 2A04 0000 		.long	.LBB65-.Ltext0
 7938 003c 3004 0000 		.long	.LBE65-.Ltext0
 7939 0040 0000 0000 		.long	0x0
 7940 0044 0000 0000 		.long	0x0
 7941               		.section	.debug_line
 7942 0000 E609 0000 		.long	.LELT0-.LSLT0
 7943               	.LSLT0:
 7944 0004 0200      		.word	0x2
 7945 0006 2D01 0000 		.long	.LELTP0-.LASLTP0
 7946               	.LASLTP0:
 7947 000a 01        		.byte	0x1
 7948 000b 01        		.byte	0x1
 7949 000c F6        		.byte	0xf6
 7950 000d F5        		.byte	0xf5
 7951 000e 0A        		.byte	0xa
 7952 000f 00        		.byte	0x0
 7953 0010 01        		.byte	0x1
 7954 0011 01        		.byte	0x1
 7955 0012 01        		.byte	0x1
 7956 0013 01        		.byte	0x1
 7957 0014 00        		.byte	0x0
 7958 0015 00        		.byte	0x0
 7959 0016 00        		.byte	0x0
 7960 0017 01        		.byte	0x1
 7961 0018 2F75 7372 		.ascii	"/usr/local/avr/lib/gcc/avr/4.3.4/../../../../avr/include"
 7961      2F6C 6F63 
 7961      616C 2F61 
 7961      7672 2F6C 
 7961      6962 2F67 
 7962 0050 00        		.byte	0
 7963 0051 2F75 7372 		.ascii	"/usr/local/avr/lib/gcc/avr/4.3.4/../../../../avr/include/avr"
 7963      2F6C 6F63 
 7963      616C 2F61 
 7963      7672 2F6C 
 7963      6962 2F67 
 7964 008d 00        		.byte	0
 7965 008e 2F75 7372 		.ascii	"/usr/local/avr/lib/gcc/avr/4.3.4/../../../../avr/include/uti"
 7965      2F6C 6F63 
 7965      616C 2F61 
 7965      7672 2F6C 
 7965      6962 2F67 
 7966 00ca 6C        		.ascii	"l"
GAS LISTING /tmp/cc1O4Nc2.s 			page 143


 7967 00cb 00        		.byte	0
 7968 00cc 00        		.byte	0x0
 7969 00cd 6D61 696E 		.string	"main.c"
 7969      2E63 00
 7970 00d4 00        		.uleb128 0x0
 7971 00d5 00        		.uleb128 0x0
 7972 00d6 00        		.uleb128 0x0
 7973 00d7 7574 696C 		.string	"util/delay_basic.h"
 7973      2F64 656C 
 7973      6179 5F62 
 7973      6173 6963 
 7973      2E68 00
 7974 00ea 01        		.uleb128 0x1
 7975 00eb 00        		.uleb128 0x0
 7976 00ec 00        		.uleb128 0x0
 7977 00ed 7574 696C 		.string	"util/delay.h"
 7977      2F64 656C 
 7977      6179 2E68 
 7977      00
 7978 00fa 01        		.uleb128 0x1
 7979 00fb 00        		.uleb128 0x0
 7980 00fc 00        		.uleb128 0x0
 7981 00fd 7374 6469 		.string	"stdint.h"
 7981      6E74 2E68 
 7981      00
 7982 0106 01        		.uleb128 0x1
 7983 0107 00        		.uleb128 0x0
 7984 0108 00        		.uleb128 0x0
 7985 0109 7374 6469 		.string	"stdio.h"
 7985      6F2E 6800 
 7986 0111 01        		.uleb128 0x1
 7987 0112 00        		.uleb128 0x0
 7988 0113 00        		.uleb128 0x0
 7989 0114 6176 722F 		.string	"avr/iox128a3.h"
 7989      696F 7831 
 7989      3238 6133 
 7989      2E68 00
 7990 0123 01        		.uleb128 0x1
 7991 0124 00        		.uleb128 0x0
 7992 0125 00        		.uleb128 0x0
 7993 0126 7370 695F 		.string	"spi_driver.h"
 7993      6472 6976 
 7993      6572 2E68 
 7993      00
 7994 0133 00        		.uleb128 0x0
 7995 0134 00        		.uleb128 0x0
 7996 0135 00        		.uleb128 0x0
 7997 0136 00        		.byte	0x0
 7998               	.LELTP0:
 7999 0137 00        		.byte	0x0
 8000 0138 05        		.uleb128 0x5
 8001 0139 02        		.byte	0x2
 8002 013a 0000 0000 		.long	.LM1
 8003 013e 03        		.byte	0x3
 8004 013f E802      		.sleb128 360
 8005 0141 01        		.byte	0x1
 8006 0142 00        		.byte	0x0
GAS LISTING /tmp/cc1O4Nc2.s 			page 144


 8007 0143 05        		.uleb128 0x5
 8008 0144 02        		.byte	0x2
 8009 0145 0000 0000 		.long	.LM2
 8010 0149 18        		.byte	0x18
 8011 014a 00        		.byte	0x0
 8012 014b 05        		.uleb128 0x5
 8013 014c 02        		.byte	0x2
 8014 014d 0000 0000 		.long	.LM3
 8015 0151 15        		.byte	0x15
 8016 0152 00        		.byte	0x0
 8017 0153 05        		.uleb128 0x5
 8018 0154 02        		.byte	0x2
 8019 0155 0000 0000 		.long	.LM4
 8020 0159 15        		.byte	0x15
 8021 015a 00        		.byte	0x0
 8022 015b 05        		.uleb128 0x5
 8023 015c 02        		.byte	0x2
 8024 015d 0000 0000 		.long	.LM5
 8025 0161 16        		.byte	0x16
 8026 0162 00        		.byte	0x0
 8027 0163 05        		.uleb128 0x5
 8028 0164 02        		.byte	0x2
 8029 0165 0000 0000 		.long	.LM6
 8030 0169 17        		.byte	0x17
 8031 016a 00        		.byte	0x0
 8032 016b 05        		.uleb128 0x5
 8033 016c 02        		.byte	0x2
 8034 016d 0000 0000 		.long	.LM7
 8035 0171 15        		.byte	0x15
 8036 0172 00        		.byte	0x0
 8037 0173 05        		.uleb128 0x5
 8038 0174 02        		.byte	0x2
 8039 0175 0000 0000 		.long	.LM8
 8040 0179 16        		.byte	0x16
 8041 017a 00        		.byte	0x0
 8042 017b 05        		.uleb128 0x5
 8043 017c 02        		.byte	0x2
 8044 017d 0000 0000 		.long	.LM9
 8045 0181 15        		.byte	0x15
 8046 0182 00        		.byte	0x0
 8047 0183 05        		.uleb128 0x5
 8048 0184 02        		.byte	0x2
 8049 0185 0000 0000 		.long	.LM10
 8050 0189 15        		.byte	0x15
 8051 018a 00        		.byte	0x0
 8052 018b 05        		.uleb128 0x5
 8053 018c 02        		.byte	0x2
 8054 018d 0000 0000 		.long	.LM11
 8055 0191 16        		.byte	0x16
 8056 0192 00        		.byte	0x0
 8057 0193 05        		.uleb128 0x5
 8058 0194 02        		.byte	0x2
 8059 0195 0000 0000 		.long	.LM12
 8060 0199 17        		.byte	0x17
 8061 019a 00        		.byte	0x0
 8062 019b 05        		.uleb128 0x5
 8063 019c 02        		.byte	0x2
GAS LISTING /tmp/cc1O4Nc2.s 			page 145


 8064 019d 0000 0000 		.long	.LM13
 8065 01a1 15        		.byte	0x15
 8066 01a2 00        		.byte	0x0
 8067 01a3 05        		.uleb128 0x5
 8068 01a4 02        		.byte	0x2
 8069 01a5 0000 0000 		.long	.LM14
 8070 01a9 16        		.byte	0x16
 8071 01aa 00        		.byte	0x0
 8072 01ab 05        		.uleb128 0x5
 8073 01ac 02        		.byte	0x2
 8074 01ad 0000 0000 		.long	.LM15
 8075 01b1 15        		.byte	0x15
 8076 01b2 00        		.byte	0x0
 8077 01b3 05        		.uleb128 0x5
 8078 01b4 02        		.byte	0x2
 8079 01b5 0000 0000 		.long	.LM16
 8080 01b9 15        		.byte	0x15
 8081 01ba 00        		.byte	0x0
 8082 01bb 05        		.uleb128 0x5
 8083 01bc 02        		.byte	0x2
 8084 01bd 0000 0000 		.long	.LM17
 8085 01c1 16        		.byte	0x16
 8086 01c2 00        		.byte	0x0
 8087 01c3 05        		.uleb128 0x5
 8088 01c4 02        		.byte	0x2
 8089 01c5 0000 0000 		.long	.LM18
 8090 01c9 17        		.byte	0x17
 8091 01ca 00        		.byte	0x0
 8092 01cb 05        		.uleb128 0x5
 8093 01cc 02        		.byte	0x2
 8094 01cd 0000 0000 		.long	.LM19
 8095 01d1 15        		.byte	0x15
 8096 01d2 00        		.byte	0x0
 8097 01d3 05        		.uleb128 0x5
 8098 01d4 02        		.byte	0x2
 8099 01d5 0000 0000 		.long	.LM20
 8100 01d9 15        		.byte	0x15
 8101 01da 00        		.byte	0x0
 8102 01db 05        		.uleb128 0x5
 8103 01dc 02        		.byte	0x2
 8104 01dd 0000 0000 		.long	.LM21
 8105 01e1 17        		.byte	0x17
 8106 01e2 00        		.byte	0x0
 8107 01e3 05        		.uleb128 0x5
 8108 01e4 02        		.byte	0x2
 8109 01e5 0000 0000 		.long	.LM22
 8110 01e9 15        		.byte	0x15
 8111 01ea 00        		.byte	0x0
 8112 01eb 05        		.uleb128 0x5
 8113 01ec 02        		.byte	0x2
 8114 01ed 0000 0000 		.long	.LM23
 8115 01f1 15        		.byte	0x15
 8116 01f2 00        		.byte	0x0
 8117 01f3 05        		.uleb128 0x5
 8118 01f4 02        		.byte	0x2
 8119 01f5 0000 0000 		.long	.LM24
 8120 01f9 15        		.byte	0x15
GAS LISTING /tmp/cc1O4Nc2.s 			page 146


 8121 01fa 00        		.byte	0x0
 8122 01fb 05        		.uleb128 0x5
 8123 01fc 02        		.byte	0x2
 8124 01fd 0000 0000 		.long	.LM25
 8125 0201 15        		.byte	0x15
 8126 0202 00        		.byte	0x0
 8127 0203 05        		.uleb128 0x5
 8128 0204 02        		.byte	0x2
 8129 0205 0000 0000 		.long	.LM26
 8130 0209 15        		.byte	0x15
 8131 020a 00        		.byte	0x0
 8132 020b 05        		.uleb128 0x5
 8133 020c 02        		.byte	0x2
 8134 020d 0000 0000 		.long	.LM27
 8135 0211 15        		.byte	0x15
 8136 0212 00        		.byte	0x0
 8137 0213 05        		.uleb128 0x5
 8138 0214 02        		.byte	0x2
 8139 0215 0000 0000 		.long	.LM28
 8140 0219 15        		.byte	0x15
 8141 021a 00        		.byte	0x0
 8142 021b 05        		.uleb128 0x5
 8143 021c 02        		.byte	0x2
 8144 021d 0000 0000 		.long	.LM29
 8145 0221 31        		.byte	0x31
 8146 0222 00        		.byte	0x0
 8147 0223 05        		.uleb128 0x5
 8148 0224 02        		.byte	0x2
 8149 0225 0000 0000 		.long	.LM30
 8150 0229 17        		.byte	0x17
 8151 022a 00        		.byte	0x0
 8152 022b 05        		.uleb128 0x5
 8153 022c 02        		.byte	0x2
 8154 022d 0000 0000 		.long	.LM31
 8155 0231 16        		.byte	0x16
 8156 0232 00        		.byte	0x0
 8157 0233 05        		.uleb128 0x5
 8158 0234 02        		.byte	0x2
 8159 0235 0000 0000 		.long	.LM32
 8160 0239 17        		.byte	0x17
 8161 023a 00        		.byte	0x0
 8162 023b 05        		.uleb128 0x5
 8163 023c 02        		.byte	0x2
 8164 023d 0000 0000 		.long	.LM33
 8165 0241 17        		.byte	0x17
 8166 0242 00        		.byte	0x0
 8167 0243 05        		.uleb128 0x5
 8168 0244 02        		.byte	0x2
 8169 0245 0000 0000 		.long	.LM34
 8170 0249 15        		.byte	0x15
 8171 024a 00        		.byte	0x0
 8172 024b 05        		.uleb128 0x5
 8173 024c 02        		.byte	0x2
 8174 024d 0000 0000 		.long	.LM35
 8175 0251 18        		.byte	0x18
 8176 0252 00        		.byte	0x0
 8177 0253 05        		.uleb128 0x5
GAS LISTING /tmp/cc1O4Nc2.s 			page 147


 8178 0254 02        		.byte	0x2
 8179 0255 0000 0000 		.long	.LM36
 8180 0259 16        		.byte	0x16
 8181 025a 00        		.byte	0x0
 8182 025b 05        		.uleb128 0x5
 8183 025c 02        		.byte	0x2
 8184 025d 0000 0000 		.long	.LM37
 8185 0261 17        		.byte	0x17
 8186 0262 00        		.byte	0x0
 8187 0263 05        		.uleb128 0x5
 8188 0264 02        		.byte	0x2
 8189 0265 0000 0000 		.long	.LM38
 8190 0269 16        		.byte	0x16
 8191 026a 00        		.byte	0x0
 8192 026b 05        		.uleb128 0x5
 8193 026c 02        		.byte	0x2
 8194 026d 0000 0000 		.long	.LM39
 8195 0271 17        		.byte	0x17
 8196 0272 00        		.byte	0x0
 8197 0273 05        		.uleb128 0x5
 8198 0274 02        		.byte	0x2
 8199 0275 0000 0000 		.long	.LM40
 8200 0279 16        		.byte	0x16
 8201 027a 00        		.byte	0x0
 8202 027b 05        		.uleb128 0x5
 8203 027c 02        		.byte	0x2
 8204 027d 0000 0000 		.long	.LM41
 8205 0281 16        		.byte	0x16
 8206 0282 00        		.byte	0x0
 8207 0283 05        		.uleb128 0x5
 8208 0284 02        		.byte	0x2
 8209 0285 0000 0000 		.long	.LM42
 8210 0289 1A        		.byte	0x1a
 8211 028a 00        		.byte	0x0
 8212 028b 05        		.uleb128 0x5
 8213 028c 02        		.byte	0x2
 8214 028d 0000 0000 		.long	.LM43
 8215 0291 16        		.byte	0x16
 8216 0292 00        		.byte	0x0
 8217 0293 05        		.uleb128 0x5
 8218 0294 02        		.byte	0x2
 8219 0295 0000 0000 		.long	.LM44
 8220 0299 16        		.byte	0x16
 8221 029a 00        		.byte	0x0
 8222 029b 05        		.uleb128 0x5
 8223 029c 02        		.byte	0x2
 8224 029d 0000 0000 		.long	.LM45
 8225 02a1 16        		.byte	0x16
 8226 02a2 00        		.byte	0x0
 8227 02a3 05        		.uleb128 0x5
 8228 02a4 02        		.byte	0x2
 8229 02a5 0000 0000 		.long	.LM46
 8230 02a9 16        		.byte	0x16
 8231 02aa 00        		.byte	0x0
 8232 02ab 05        		.uleb128 0x5
 8233 02ac 02        		.byte	0x2
 8234 02ad 0000 0000 		.long	.LM47
GAS LISTING /tmp/cc1O4Nc2.s 			page 148


 8235 02b1 16        		.byte	0x16
 8236 02b2 00        		.byte	0x0
 8237 02b3 05        		.uleb128 0x5
 8238 02b4 02        		.byte	0x2
 8239 02b5 0000 0000 		.long	.LM48
 8240 02b9 26        		.byte	0x26
 8241 02ba 00        		.byte	0x0
 8242 02bb 05        		.uleb128 0x5
 8243 02bc 02        		.byte	0x2
 8244 02bd 0000 0000 		.long	.LM49
 8245 02c1 16        		.byte	0x16
 8246 02c2 00        		.byte	0x0
 8247 02c3 05        		.uleb128 0x5
 8248 02c4 02        		.byte	0x2
 8249 02c5 0000 0000 		.long	.LM50
 8250 02c9 16        		.byte	0x16
 8251 02ca 00        		.byte	0x0
 8252 02cb 05        		.uleb128 0x5
 8253 02cc 02        		.byte	0x2
 8254 02cd 0000 0000 		.long	.LM51
 8255 02d1 16        		.byte	0x16
 8256 02d2 00        		.byte	0x0
 8257 02d3 05        		.uleb128 0x5
 8258 02d4 02        		.byte	0x2
 8259 02d5 0000 0000 		.long	.LM52
 8260 02d9 A0        		.byte	0xa0
 8261 02da 00        		.byte	0x0
 8262 02db 05        		.uleb128 0x5
 8263 02dc 02        		.byte	0x2
 8264 02dd 0000 0000 		.long	.LM53
 8265 02e1 16        		.byte	0x16
 8266 02e2 00        		.byte	0x0
 8267 02e3 05        		.uleb128 0x5
 8268 02e4 02        		.byte	0x2
 8269 02e5 0000 0000 		.long	.LM54
 8270 02e9 16        		.byte	0x16
 8271 02ea 00        		.byte	0x0
 8272 02eb 05        		.uleb128 0x5
 8273 02ec 02        		.byte	0x2
 8274 02ed 0000 0000 		.long	.LM55
 8275 02f1 15        		.byte	0x15
 8276 02f2 00        		.byte	0x0
 8277 02f3 05        		.uleb128 0x5
 8278 02f4 02        		.byte	0x2
 8279 02f5 0000 0000 		.long	.LM56
 8280 02f9 16        		.byte	0x16
 8281 02fa 00        		.byte	0x0
 8282 02fb 05        		.uleb128 0x5
 8283 02fc 02        		.byte	0x2
 8284 02fd 0000 0000 		.long	.LM57
 8285 0301 16        		.byte	0x16
 8286 0302 00        		.byte	0x0
 8287 0303 05        		.uleb128 0x5
 8288 0304 02        		.byte	0x2
 8289 0305 0000 0000 		.long	.LM58
 8290 0309 16        		.byte	0x16
 8291 030a 00        		.byte	0x0
GAS LISTING /tmp/cc1O4Nc2.s 			page 149


 8292 030b 05        		.uleb128 0x5
 8293 030c 02        		.byte	0x2
 8294 030d 0000 0000 		.long	.LM59
 8295 0311 16        		.byte	0x16
 8296 0312 00        		.byte	0x0
 8297 0313 05        		.uleb128 0x5
 8298 0314 02        		.byte	0x2
 8299 0315 0000 0000 		.long	.LM60
 8300 0319 16        		.byte	0x16
 8301 031a 00        		.byte	0x0
 8302 031b 05        		.uleb128 0x5
 8303 031c 02        		.byte	0x2
 8304 031d 0000 0000 		.long	.LM61
 8305 0321 0B        		.byte	0xb
 8306 0322 00        		.byte	0x0
 8307 0323 05        		.uleb128 0x5
 8308 0324 02        		.byte	0x2
 8309 0325 0000 0000 		.long	.LM62
 8310 0329 16        		.byte	0x16
 8311 032a 00        		.byte	0x0
 8312 032b 05        		.uleb128 0x5
 8313 032c 02        		.byte	0x2
 8314 032d 0000 0000 		.long	.LM63
 8315 0331 1A        		.byte	0x1a
 8316 0332 00        		.byte	0x0
 8317 0333 05        		.uleb128 0x5
 8318 0334 02        		.byte	0x2
 8319 0335 0000 0000 		.long	.LM64
 8320 0339 16        		.byte	0x16
 8321 033a 00        		.byte	0x0
 8322 033b 05        		.uleb128 0x5
 8323 033c 02        		.byte	0x2
 8324 033d 0000 0000 		.long	.LM65
 8325 0341 0E        		.byte	0xe
 8326 0342 00        		.byte	0x0
 8327 0343 05        		.uleb128 0x5
 8328 0344 02        		.byte	0x2
 8329 0345 0000 0000 		.long	.LM66
 8330 0349 16        		.byte	0x16
 8331 034a 00        		.byte	0x0
 8332 034b 05        		.uleb128 0x5
 8333 034c 02        		.byte	0x2
 8334 034d 0000 0000 		.long	.LM67
 8335 0351 1C        		.byte	0x1c
 8336 0352 00        		.byte	0x0
 8337 0353 05        		.uleb128 0x5
 8338 0354 02        		.byte	0x2
 8339 0355 0000 0000 		.long	.LM68
 8340 0359 16        		.byte	0x16
 8341 035a 00        		.byte	0x0
 8342 035b 05        		.uleb128 0x5
 8343 035c 02        		.byte	0x2
 8344 035d 0000 0000 		.long	.LM69
 8345 0361 16        		.byte	0x16
 8346 0362 00        		.byte	0x0
 8347 0363 05        		.uleb128 0x5
 8348 0364 02        		.byte	0x2
GAS LISTING /tmp/cc1O4Nc2.s 			page 150


 8349 0365 0000 0000 		.long	.LM70
 8350 0369 16        		.byte	0x16
 8351 036a 00        		.byte	0x0
 8352 036b 05        		.uleb128 0x5
 8353 036c 02        		.byte	0x2
 8354 036d 0000 0000 		.long	.LM71
 8355 0371 16        		.byte	0x16
 8356 0372 00        		.byte	0x0
 8357 0373 05        		.uleb128 0x5
 8358 0374 02        		.byte	0x2
 8359 0375 0000 0000 		.long	.LM72
 8360 0379 15        		.byte	0x15
 8361 037a 00        		.byte	0x0
 8362 037b 05        		.uleb128 0x5
 8363 037c 02        		.byte	0x2
 8364 037d 0000 0000 		.long	.LM73
 8365 0381 18        		.byte	0x18
 8366 0382 00        		.byte	0x0
 8367 0383 05        		.uleb128 0x5
 8368 0384 02        		.byte	0x2
 8369 0385 0000 0000 		.long	.LM74
 8370 0389 17        		.byte	0x17
 8371 038a 00        		.byte	0x0
 8372 038b 05        		.uleb128 0x5
 8373 038c 02        		.byte	0x2
 8374 038d 0000 0000 		.long	.LM75
 8375 0391 17        		.byte	0x17
 8376 0392 00        		.byte	0x0
 8377 0393 05        		.uleb128 0x5
 8378 0394 02        		.byte	0x2
 8379 0395 0000 0000 		.long	.LM76
 8380 0399 0B        		.byte	0xb
 8381 039a 00        		.byte	0x0
 8382 039b 05        		.uleb128 0x5
 8383 039c 02        		.byte	0x2
 8384 039d 0000 0000 		.long	.LM77
 8385 03a1 32        		.byte	0x32
 8386 03a2 00        		.byte	0x0
 8387 03a3 05        		.uleb128 0x5
 8388 03a4 02        		.byte	0x2
 8389 03a5 0000 0000 		.long	.LM78
 8390 03a9 15        		.byte	0x15
 8391 03aa 00        		.byte	0x0
 8392 03ab 05        		.uleb128 0x5
 8393 03ac 02        		.byte	0x2
 8394 03ad 0000 0000 		.long	.LM79
 8395 03b1 1C        		.byte	0x1c
 8396 03b2 00        		.byte	0x0
 8397 03b3 05        		.uleb128 0x5
 8398 03b4 02        		.byte	0x2
 8399 03b5 0000 0000 		.long	.LM80
 8400 03b9 16        		.byte	0x16
 8401 03ba 00        		.byte	0x0
 8402 03bb 05        		.uleb128 0x5
 8403 03bc 02        		.byte	0x2
 8404 03bd 0000 0000 		.long	.LM81
 8405 03c1 16        		.byte	0x16
GAS LISTING /tmp/cc1O4Nc2.s 			page 151


 8406 03c2 00        		.byte	0x0
 8407 03c3 05        		.uleb128 0x5
 8408 03c4 02        		.byte	0x2
 8409 03c5 0000 0000 		.long	.LM82
 8410 03c9 15        		.byte	0x15
 8411 03ca 00        		.byte	0x0
 8412 03cb 05        		.uleb128 0x5
 8413 03cc 02        		.byte	0x2
 8414 03cd 0000 0000 		.long	.LM83
 8415 03d1 04        		.byte	0x4
 8416 03d2 02        		.uleb128 0x2
 8417 03d3 03        		.byte	0x3
 8418 03d4 9C7B      		.sleb128 -612
 8419 03d6 01        		.byte	0x1
 8420 03d7 00        		.byte	0x0
 8421 03d8 05        		.uleb128 0x5
 8422 03d9 02        		.byte	0x2
 8423 03da 0000 0000 		.long	.LM84
 8424 03de 04        		.byte	0x4
 8425 03df 01        		.uleb128 0x1
 8426 03e0 03        		.byte	0x3
 8427 03e1 E404      		.sleb128 612
 8428 03e3 01        		.byte	0x1
 8429 03e4 00        		.byte	0x0
 8430 03e5 05        		.uleb128 0x5
 8431 03e6 02        		.byte	0x2
 8432 03e7 0000 0000 		.long	.LM85
 8433 03eb 04        		.byte	0x4
 8434 03ec 02        		.uleb128 0x2
 8435 03ed 03        		.byte	0x3
 8436 03ee 9C7B      		.sleb128 -612
 8437 03f0 01        		.byte	0x1
 8438 03f1 00        		.byte	0x0
 8439 03f2 05        		.uleb128 0x5
 8440 03f3 02        		.byte	0x2
 8441 03f4 0000 0000 		.long	.LM86
 8442 03f8 04        		.byte	0x4
 8443 03f9 03        		.uleb128 0x3
 8444 03fa 27        		.byte	0x27
 8445 03fb 00        		.byte	0x0
 8446 03fc 05        		.uleb128 0x5
 8447 03fd 02        		.byte	0x2
 8448 03fe 0000 0000 		.long	.LM87
 8449 0402 10        		.byte	0x10
 8450 0403 00        		.byte	0x0
 8451 0404 05        		.uleb128 0x5
 8452 0405 02        		.byte	0x2
 8453 0406 0000 0000 		.long	.LM88
 8454 040a 04        		.byte	0x4
 8455 040b 01        		.uleb128 0x1
 8456 040c 03        		.byte	0x3
 8457 040d D704      		.sleb128 599
 8458 040f 01        		.byte	0x1
 8459 0410 00        		.byte	0x0
 8460 0411 05        		.uleb128 0x5
 8461 0412 02        		.byte	0x2
 8462 0413 0000 0000 		.long	.LM89
GAS LISTING /tmp/cc1O4Nc2.s 			page 152


 8463 0417 04        		.byte	0x4
 8464 0418 02        		.uleb128 0x2
 8465 0419 03        		.byte	0x3
 8466 041a 9A7B      		.sleb128 -614
 8467 041c 01        		.byte	0x1
 8468 041d 00        		.byte	0x0
 8469 041e 05        		.uleb128 0x5
 8470 041f 02        		.byte	0x2
 8471 0420 0000 0000 		.long	.LM90
 8472 0424 04        		.byte	0x4
 8473 0425 03        		.uleb128 0x3
 8474 0426 27        		.byte	0x27
 8475 0427 00        		.byte	0x0
 8476 0428 05        		.uleb128 0x5
 8477 0429 02        		.byte	0x2
 8478 042a 0000 0000 		.long	.LM91
 8479 042e 10        		.byte	0x10
 8480 042f 00        		.byte	0x0
 8481 0430 05        		.uleb128 0x5
 8482 0431 02        		.byte	0x2
 8483 0432 0000 0000 		.long	.LM92
 8484 0436 04        		.byte	0x4
 8485 0437 01        		.uleb128 0x1
 8486 0438 03        		.byte	0x3
 8487 0439 D404      		.sleb128 596
 8488 043b 01        		.byte	0x1
 8489 043c 00        		.byte	0x0
 8490 043d 05        		.uleb128 0x5
 8491 043e 02        		.byte	0x2
 8492 043f 0000 0000 		.long	.LM93
 8493 0443 1A        		.byte	0x1a
 8494 0444 00        		.byte	0x0
 8495 0445 05        		.uleb128 0x5
 8496 0446 02        		.byte	0x2
 8497 0447 0000 0000 		.long	.LM94
 8498 044b 03        		.byte	0x3
 8499 044c F17E      		.sleb128 -143
 8500 044e 01        		.byte	0x1
 8501 044f 00        		.byte	0x0
 8502 0450 05        		.uleb128 0x5
 8503 0451 02        		.byte	0x2
 8504 0452 0000 0000 		.long	.LM95
 8505 0456 16        		.byte	0x16
 8506 0457 00        		.byte	0x0
 8507 0458 05        		.uleb128 0x5
 8508 0459 02        		.byte	0x2
 8509 045a 0000 0000 		.long	.LM96
 8510 045e 15        		.byte	0x15
 8511 045f 00        		.byte	0x0
 8512 0460 05        		.uleb128 0x5
 8513 0461 02        		.byte	0x2
 8514 0462 0000 0000 		.long	.LM97
 8515 0466 15        		.byte	0x15
 8516 0467 00        		.byte	0x0
 8517 0468 05        		.uleb128 0x5
 8518 0469 02        		.byte	0x2
 8519 046a 0000 0000 		.long	.LM98
GAS LISTING /tmp/cc1O4Nc2.s 			page 153


 8520 046e 16        		.byte	0x16
 8521 046f 00        		.byte	0x0
 8522 0470 05        		.uleb128 0x5
 8523 0471 02        		.byte	0x2
 8524 0472 0000 0000 		.long	.LM99
 8525 0476 15        		.byte	0x15
 8526 0477 00        		.byte	0x0
 8527 0478 05        		.uleb128 0x5
 8528 0479 02        		.byte	0x2
 8529 047a 0000 0000 		.long	.LM100
 8530 047e 15        		.byte	0x15
 8531 047f 00        		.byte	0x0
 8532 0480 05        		.uleb128 0x5
 8533 0481 02        		.byte	0x2
 8534 0482 0000 0000 		.long	.LM101
 8535 0486 15        		.byte	0x15
 8536 0487 00        		.byte	0x0
 8537 0488 05        		.uleb128 0x5
 8538 0489 02        		.byte	0x2
 8539 048a 0000 0000 		.long	.LM102
 8540 048e 16        		.byte	0x16
 8541 048f 00        		.byte	0x0
 8542 0490 05        		.uleb128 0x5
 8543 0491 02        		.byte	0x2
 8544 0492 0000 0000 		.long	.LM103
 8545 0496 15        		.byte	0x15
 8546 0497 00        		.byte	0x0
 8547 0498 05        		.uleb128 0x5
 8548 0499 02        		.byte	0x2
 8549 049a 0000 0000 		.long	.LM104
 8550 049e 15        		.byte	0x15
 8551 049f 00        		.byte	0x0
 8552 04a0 05        		.uleb128 0x5
 8553 04a1 02        		.byte	0x2
 8554 04a2 0000 0000 		.long	.LM105
 8555 04a6 15        		.byte	0x15
 8556 04a7 00        		.byte	0x0
 8557 04a8 05        		.uleb128 0x5
 8558 04a9 02        		.byte	0x2
 8559 04aa 0000 0000 		.long	.LM106
 8560 04ae 16        		.byte	0x16
 8561 04af 00        		.byte	0x0
 8562 04b0 05        		.uleb128 0x5
 8563 04b1 02        		.byte	0x2
 8564 04b2 0000 0000 		.long	.LM107
 8565 04b6 15        		.byte	0x15
 8566 04b7 00        		.byte	0x0
 8567 04b8 05        		.uleb128 0x5
 8568 04b9 02        		.byte	0x2
 8569 04ba 0000 0000 		.long	.LM108
 8570 04be 15        		.byte	0x15
 8571 04bf 00        		.byte	0x0
 8572 04c0 05        		.uleb128 0x5
 8573 04c1 02        		.byte	0x2
 8574 04c2 0000 0000 		.long	.LM109
 8575 04c6 15        		.byte	0x15
 8576 04c7 00        		.byte	0x0
GAS LISTING /tmp/cc1O4Nc2.s 			page 154


 8577 04c8 05        		.uleb128 0x5
 8578 04c9 02        		.byte	0x2
 8579 04ca 0000 0000 		.long	.LM110
 8580 04ce 16        		.byte	0x16
 8581 04cf 00        		.byte	0x0
 8582 04d0 05        		.uleb128 0x5
 8583 04d1 02        		.byte	0x2
 8584 04d2 0000 0000 		.long	.LM111
 8585 04d6 15        		.byte	0x15
 8586 04d7 00        		.byte	0x0
 8587 04d8 05        		.uleb128 0x5
 8588 04d9 02        		.byte	0x2
 8589 04da 0000 0000 		.long	.LM112
 8590 04de 15        		.byte	0x15
 8591 04df 00        		.byte	0x0
 8592 04e0 05        		.uleb128 0x5
 8593 04e1 02        		.byte	0x2
 8594 04e2 0000 0000 		.long	.LM113
 8595 04e6 15        		.byte	0x15
 8596 04e7 00        		.byte	0x0
 8597 04e8 05        		.uleb128 0x5
 8598 04e9 02        		.byte	0x2
 8599 04ea 0000 0000 		.long	.LM114
 8600 04ee 16        		.byte	0x16
 8601 04ef 00        		.byte	0x0
 8602 04f0 05        		.uleb128 0x5
 8603 04f1 02        		.byte	0x2
 8604 04f2 0000 0000 		.long	.LM115
 8605 04f6 15        		.byte	0x15
 8606 04f7 00        		.byte	0x0
 8607 04f8 05        		.uleb128 0x5
 8608 04f9 02        		.byte	0x2
 8609 04fa 0000 0000 		.long	.LM116
 8610 04fe 15        		.byte	0x15
 8611 04ff 00        		.byte	0x0
 8612 0500 05        		.uleb128 0x5
 8613 0501 02        		.byte	0x2
 8614 0502 0000 0000 		.long	.LM117
 8615 0506 15        		.byte	0x15
 8616 0507 00        		.byte	0x0
 8617 0508 05        		.uleb128 0x5
 8618 0509 02        		.byte	0x2
 8619 050a 0000 0000 		.long	.LM118
 8620 050e 16        		.byte	0x16
 8621 050f 00        		.byte	0x0
 8622 0510 05        		.uleb128 0x5
 8623 0511 02        		.byte	0x2
 8624 0512 0000 0000 		.long	.LM119
 8625 0516 15        		.byte	0x15
 8626 0517 00        		.byte	0x0
 8627 0518 05        		.uleb128 0x5
 8628 0519 02        		.byte	0x2
 8629 051a 0000 0000 		.long	.LM120
 8630 051e 16        		.byte	0x16
 8631 051f 00        		.byte	0x0
 8632 0520 05        		.uleb128 0x5
 8633 0521 02        		.byte	0x2
GAS LISTING /tmp/cc1O4Nc2.s 			page 155


 8634 0522 0000 0000 		.long	.LM121
 8635 0526 15        		.byte	0x15
 8636 0527 00        		.byte	0x0
 8637 0528 05        		.uleb128 0x5
 8638 0529 02        		.byte	0x2
 8639 052a 0000 0000 		.long	.LM122
 8640 052e 18        		.byte	0x18
 8641 052f 00        		.byte	0x0
 8642 0530 05        		.uleb128 0x5
 8643 0531 02        		.byte	0x2
 8644 0532 0000 0000 		.long	.LM123
 8645 0536 15        		.byte	0x15
 8646 0537 00        		.byte	0x0
 8647 0538 05        		.uleb128 0x5
 8648 0539 02        		.byte	0x2
 8649 053a 0000 0000 		.long	.LM124
 8650 053e 15        		.byte	0x15
 8651 053f 00        		.byte	0x0
 8652 0540 05        		.uleb128 0x5
 8653 0541 02        		.byte	0x2
 8654 0542 0000 0000 		.long	.LM125
 8655 0546 16        		.byte	0x16
 8656 0547 00        		.byte	0x0
 8657 0548 05        		.uleb128 0x5
 8658 0549 02        		.byte	0x2
 8659 054a 0000 0000 		.long	.LM126
 8660 054e 15        		.byte	0x15
 8661 054f 00        		.byte	0x0
 8662 0550 05        		.uleb128 0x5
 8663 0551 02        		.byte	0x2
 8664 0552 0000 0000 		.long	.LM127
 8665 0556 16        		.byte	0x16
 8666 0557 00        		.byte	0x0
 8667 0558 05        		.uleb128 0x5
 8668 0559 02        		.byte	0x2
 8669 055a 0000 0000 		.long	.LM128
 8670 055e 04        		.byte	0x4
 8671 055f 02        		.uleb128 0x2
 8672 0560 03        		.byte	0x3
 8673 0561 F87B      		.sleb128 -520
 8674 0563 01        		.byte	0x1
 8675 0564 00        		.byte	0x0
 8676 0565 05        		.uleb128 0x5
 8677 0566 02        		.byte	0x2
 8678 0567 0000 0000 		.long	.LM129
 8679 056b 04        		.byte	0x4
 8680 056c 03        		.uleb128 0x3
 8681 056d 27        		.byte	0x27
 8682 056e 00        		.byte	0x0
 8683 056f 05        		.uleb128 0x5
 8684 0570 02        		.byte	0x2
 8685 0571 0000 0000 		.long	.LM130
 8686 0575 10        		.byte	0x10
 8687 0576 00        		.byte	0x0
 8688 0577 05        		.uleb128 0x5
 8689 0578 02        		.byte	0x2
 8690 0579 0000 0000 		.long	.LM131
GAS LISTING /tmp/cc1O4Nc2.s 			page 156


 8691 057d 04        		.byte	0x4
 8692 057e 01        		.uleb128 0x1
 8693 057f 03        		.byte	0x3
 8694 0580 FB03      		.sleb128 507
 8695 0582 01        		.byte	0x1
 8696 0583 00        		.byte	0x0
 8697 0584 05        		.uleb128 0x5
 8698 0585 02        		.byte	0x2
 8699 0586 0000 0000 		.long	.LM132
 8700 058a 04        		.byte	0x4
 8701 058b 02        		.uleb128 0x2
 8702 058c 03        		.byte	0x3
 8703 058d F67B      		.sleb128 -522
 8704 058f 01        		.byte	0x1
 8705 0590 00        		.byte	0x0
 8706 0591 05        		.uleb128 0x5
 8707 0592 02        		.byte	0x2
 8708 0593 0000 0000 		.long	.LM133
 8709 0597 04        		.byte	0x4
 8710 0598 03        		.uleb128 0x3
 8711 0599 27        		.byte	0x27
 8712 059a 00        		.byte	0x0
 8713 059b 05        		.uleb128 0x5
 8714 059c 02        		.byte	0x2
 8715 059d 0000 0000 		.long	.LM134
 8716 05a1 10        		.byte	0x10
 8717 05a2 00        		.byte	0x0
 8718 05a3 05        		.uleb128 0x5
 8719 05a4 02        		.byte	0x2
 8720 05a5 0000 0000 		.long	.LM135
 8721 05a9 04        		.byte	0x4
 8722 05aa 01        		.uleb128 0x1
 8723 05ab 03        		.byte	0x3
 8724 05ac FD03      		.sleb128 509
 8725 05ae 01        		.byte	0x1
 8726 05af 00        		.byte	0x0
 8727 05b0 05        		.uleb128 0x5
 8728 05b1 02        		.byte	0x2
 8729 05b2 0000 0000 		.long	.LM136
 8730 05b6 04        		.byte	0x4
 8731 05b7 02        		.uleb128 0x2
 8732 05b8 03        		.byte	0x3
 8733 05b9 F47B      		.sleb128 -524
 8734 05bb 01        		.byte	0x1
 8735 05bc 00        		.byte	0x0
 8736 05bd 05        		.uleb128 0x5
 8737 05be 02        		.byte	0x2
 8738 05bf 0000 0000 		.long	.LM137
 8739 05c3 04        		.byte	0x4
 8740 05c4 03        		.uleb128 0x3
 8741 05c5 27        		.byte	0x27
 8742 05c6 00        		.byte	0x0
 8743 05c7 05        		.uleb128 0x5
 8744 05c8 02        		.byte	0x2
 8745 05c9 0000 0000 		.long	.LM138
 8746 05cd 10        		.byte	0x10
 8747 05ce 00        		.byte	0x0
GAS LISTING /tmp/cc1O4Nc2.s 			page 157


 8748 05cf 05        		.uleb128 0x5
 8749 05d0 02        		.byte	0x2
 8750 05d1 0000 0000 		.long	.LM139
 8751 05d5 04        		.byte	0x4
 8752 05d6 01        		.uleb128 0x1
 8753 05d7 03        		.byte	0x3
 8754 05d8 FF03      		.sleb128 511
 8755 05da 01        		.byte	0x1
 8756 05db 00        		.byte	0x0
 8757 05dc 05        		.uleb128 0x5
 8758 05dd 02        		.byte	0x2
 8759 05de 0000 0000 		.long	.LM140
 8760 05e2 04        		.byte	0x4
 8761 05e3 02        		.uleb128 0x2
 8762 05e4 03        		.byte	0x3
 8763 05e5 F27B      		.sleb128 -526
 8764 05e7 01        		.byte	0x1
 8765 05e8 00        		.byte	0x0
 8766 05e9 05        		.uleb128 0x5
 8767 05ea 02        		.byte	0x2
 8768 05eb 0000 0000 		.long	.LM141
 8769 05ef 04        		.byte	0x4
 8770 05f0 03        		.uleb128 0x3
 8771 05f1 27        		.byte	0x27
 8772 05f2 00        		.byte	0x0
 8773 05f3 05        		.uleb128 0x5
 8774 05f4 02        		.byte	0x2
 8775 05f5 0000 0000 		.long	.LM142
 8776 05f9 10        		.byte	0x10
 8777 05fa 00        		.byte	0x0
 8778 05fb 05        		.uleb128 0x5
 8779 05fc 02        		.byte	0x2
 8780 05fd 0000 0000 		.long	.LM143
 8781 0601 04        		.byte	0x4
 8782 0602 01        		.uleb128 0x1
 8783 0603 03        		.byte	0x3
 8784 0604 8104      		.sleb128 513
 8785 0606 01        		.byte	0x1
 8786 0607 00        		.byte	0x0
 8787 0608 05        		.uleb128 0x5
 8788 0609 02        		.byte	0x2
 8789 060a 0000 0000 		.long	.LM144
 8790 060e 04        		.byte	0x4
 8791 060f 02        		.uleb128 0x2
 8792 0610 03        		.byte	0x3
 8793 0611 F07B      		.sleb128 -528
 8794 0613 01        		.byte	0x1
 8795 0614 00        		.byte	0x0
 8796 0615 05        		.uleb128 0x5
 8797 0616 02        		.byte	0x2
 8798 0617 0000 0000 		.long	.LM145
 8799 061b 04        		.byte	0x4
 8800 061c 03        		.uleb128 0x3
 8801 061d 27        		.byte	0x27
 8802 061e 00        		.byte	0x0
 8803 061f 05        		.uleb128 0x5
 8804 0620 02        		.byte	0x2
GAS LISTING /tmp/cc1O4Nc2.s 			page 158


 8805 0621 0000 0000 		.long	.LM146
 8806 0625 10        		.byte	0x10
 8807 0626 00        		.byte	0x0
 8808 0627 05        		.uleb128 0x5
 8809 0628 02        		.byte	0x2
 8810 0629 0000 0000 		.long	.LM147
 8811 062d 04        		.byte	0x4
 8812 062e 01        		.uleb128 0x1
 8813 062f 03        		.byte	0x3
 8814 0630 8304      		.sleb128 515
 8815 0632 01        		.byte	0x1
 8816 0633 00        		.byte	0x0
 8817 0634 05        		.uleb128 0x5
 8818 0635 02        		.byte	0x2
 8819 0636 0000 0000 		.long	.LM148
 8820 063a 04        		.byte	0x4
 8821 063b 02        		.uleb128 0x2
 8822 063c 03        		.byte	0x3
 8823 063d EE7B      		.sleb128 -530
 8824 063f 01        		.byte	0x1
 8825 0640 00        		.byte	0x0
 8826 0641 05        		.uleb128 0x5
 8827 0642 02        		.byte	0x2
 8828 0643 0000 0000 		.long	.LM149
 8829 0647 04        		.byte	0x4
 8830 0648 03        		.uleb128 0x3
 8831 0649 27        		.byte	0x27
 8832 064a 00        		.byte	0x0
 8833 064b 05        		.uleb128 0x5
 8834 064c 02        		.byte	0x2
 8835 064d 0000 0000 		.long	.LM150
 8836 0651 10        		.byte	0x10
 8837 0652 00        		.byte	0x0
 8838 0653 05        		.uleb128 0x5
 8839 0654 02        		.byte	0x2
 8840 0655 0000 0000 		.long	.LM151
 8841 0659 04        		.byte	0x4
 8842 065a 01        		.uleb128 0x1
 8843 065b 03        		.byte	0x3
 8844 065c 8504      		.sleb128 517
 8845 065e 01        		.byte	0x1
 8846 065f 00        		.byte	0x0
 8847 0660 05        		.uleb128 0x5
 8848 0661 02        		.byte	0x2
 8849 0662 0000 0000 		.long	.LM152
 8850 0666 04        		.byte	0x4
 8851 0667 02        		.uleb128 0x2
 8852 0668 03        		.byte	0x3
 8853 0669 EC7B      		.sleb128 -532
 8854 066b 01        		.byte	0x1
 8855 066c 00        		.byte	0x0
 8856 066d 05        		.uleb128 0x5
 8857 066e 02        		.byte	0x2
 8858 066f 0000 0000 		.long	.LM153
 8859 0673 04        		.byte	0x4
 8860 0674 03        		.uleb128 0x3
 8861 0675 27        		.byte	0x27
GAS LISTING /tmp/cc1O4Nc2.s 			page 159


 8862 0676 00        		.byte	0x0
 8863 0677 05        		.uleb128 0x5
 8864 0678 02        		.byte	0x2
 8865 0679 0000 0000 		.long	.LM154
 8866 067d 10        		.byte	0x10
 8867 067e 00        		.byte	0x0
 8868 067f 05        		.uleb128 0x5
 8869 0680 02        		.byte	0x2
 8870 0681 0000 0000 		.long	.LM155
 8871 0685 04        		.byte	0x4
 8872 0686 01        		.uleb128 0x1
 8873 0687 03        		.byte	0x3
 8874 0688 8704      		.sleb128 519
 8875 068a 01        		.byte	0x1
 8876 068b 00        		.byte	0x0
 8877 068c 05        		.uleb128 0x5
 8878 068d 02        		.byte	0x2
 8879 068e 0000 0000 		.long	.LM156
 8880 0692 03        		.byte	0x3
 8881 0693 BE7F      		.sleb128 -66
 8882 0695 01        		.byte	0x1
 8883 0696 00        		.byte	0x0
 8884 0697 05        		.uleb128 0x5
 8885 0698 02        		.byte	0x2
 8886 0699 0000 0000 		.long	.LM157
 8887 069d 15        		.byte	0x15
 8888 069e 00        		.byte	0x0
 8889 069f 05        		.uleb128 0x5
 8890 06a0 02        		.byte	0x2
 8891 06a1 0000 0000 		.long	.LM158
 8892 06a5 15        		.byte	0x15
 8893 06a6 00        		.byte	0x0
 8894 06a7 05        		.uleb128 0x5
 8895 06a8 02        		.byte	0x2
 8896 06a9 0000 0000 		.long	.LM159
 8897 06ad 15        		.byte	0x15
 8898 06ae 00        		.byte	0x0
 8899 06af 05        		.uleb128 0x5
 8900 06b0 02        		.byte	0x2
 8901 06b1 0000 0000 		.long	.LM160
 8902 06b5 15        		.byte	0x15
 8903 06b6 00        		.byte	0x0
 8904 06b7 05        		.uleb128 0x5
 8905 06b8 02        		.byte	0x2
 8906 06b9 0000 0000 		.long	.LM161
 8907 06bd 03        		.byte	0x3
 8908 06be 5C        		.sleb128 -36
 8909 06bf 01        		.byte	0x1
 8910 06c0 00        		.byte	0x0
 8911 06c1 05        		.uleb128 0x5
 8912 06c2 02        		.byte	0x2
 8913 06c3 0000 0000 		.long	.LM162
 8914 06c7 15        		.byte	0x15
 8915 06c8 00        		.byte	0x0
 8916 06c9 05        		.uleb128 0x5
 8917 06ca 02        		.byte	0x2
 8918 06cb 0000 0000 		.long	.LM163
GAS LISTING /tmp/cc1O4Nc2.s 			page 160


 8919 06cf 18        		.byte	0x18
 8920 06d0 00        		.byte	0x0
 8921 06d1 05        		.uleb128 0x5
 8922 06d2 02        		.byte	0x2
 8923 06d3 0000 0000 		.long	.LM164
 8924 06d7 15        		.byte	0x15
 8925 06d8 00        		.byte	0x0
 8926 06d9 05        		.uleb128 0x5
 8927 06da 02        		.byte	0x2
 8928 06db 0000 0000 		.long	.LM165
 8929 06df 15        		.byte	0x15
 8930 06e0 00        		.byte	0x0
 8931 06e1 05        		.uleb128 0x5
 8932 06e2 02        		.byte	0x2
 8933 06e3 0000 0000 		.long	.LM166
 8934 06e7 1F        		.byte	0x1f
 8935 06e8 00        		.byte	0x0
 8936 06e9 05        		.uleb128 0x5
 8937 06ea 02        		.byte	0x2
 8938 06eb 0000 0000 		.long	.LM167
 8939 06ef 20        		.byte	0x20
 8940 06f0 00        		.byte	0x0
 8941 06f1 05        		.uleb128 0x5
 8942 06f2 02        		.byte	0x2
 8943 06f3 0000 0000 		.long	.LM168
 8944 06f7 03        		.byte	0x3
 8945 06f8 73        		.sleb128 -13
 8946 06f9 01        		.byte	0x1
 8947 06fa 00        		.byte	0x0
 8948 06fb 05        		.uleb128 0x5
 8949 06fc 02        		.byte	0x2
 8950 06fd 0000 0000 		.long	.LM169
 8951 0701 15        		.byte	0x15
 8952 0702 00        		.byte	0x0
 8953 0703 05        		.uleb128 0x5
 8954 0704 02        		.byte	0x2
 8955 0705 0000 0000 		.long	.LM170
 8956 0709 16        		.byte	0x16
 8957 070a 00        		.byte	0x0
 8958 070b 05        		.uleb128 0x5
 8959 070c 02        		.byte	0x2
 8960 070d 0000 0000 		.long	.LM171
 8961 0711 15        		.byte	0x15
 8962 0712 00        		.byte	0x0
 8963 0713 05        		.uleb128 0x5
 8964 0714 02        		.byte	0x2
 8965 0715 0000 0000 		.long	.LM172
 8966 0719 15        		.byte	0x15
 8967 071a 00        		.byte	0x0
 8968 071b 05        		.uleb128 0x5
 8969 071c 02        		.byte	0x2
 8970 071d 0000 0000 		.long	.LM173
 8971 0721 15        		.byte	0x15
 8972 0722 00        		.byte	0x0
 8973 0723 05        		.uleb128 0x5
 8974 0724 02        		.byte	0x2
 8975 0725 0000 0000 		.long	.LM174
GAS LISTING /tmp/cc1O4Nc2.s 			page 161


 8976 0729 03        		.byte	0x3
 8977 072a AD7F      		.sleb128 -83
 8978 072c 01        		.byte	0x1
 8979 072d 00        		.byte	0x0
 8980 072e 05        		.uleb128 0x5
 8981 072f 02        		.byte	0x2
 8982 0730 0000 0000 		.long	.LM175
 8983 0734 15        		.byte	0x15
 8984 0735 00        		.byte	0x0
 8985 0736 05        		.uleb128 0x5
 8986 0737 02        		.byte	0x2
 8987 0738 0000 0000 		.long	.LM176
 8988 073c 16        		.byte	0x16
 8989 073d 00        		.byte	0x0
 8990 073e 05        		.uleb128 0x5
 8991 073f 02        		.byte	0x2
 8992 0740 0000 0000 		.long	.LM177
 8993 0744 17        		.byte	0x17
 8994 0745 00        		.byte	0x0
 8995 0746 05        		.uleb128 0x5
 8996 0747 02        		.byte	0x2
 8997 0748 0000 0000 		.long	.LM178
 8998 074c 16        		.byte	0x16
 8999 074d 00        		.byte	0x0
 9000 074e 05        		.uleb128 0x5
 9001 074f 02        		.byte	0x2
 9002 0750 0000 0000 		.long	.LM179
 9003 0754 15        		.byte	0x15
 9004 0755 00        		.byte	0x0
 9005 0756 05        		.uleb128 0x5
 9006 0757 02        		.byte	0x2
 9007 0758 0000 0000 		.long	.LM180
 9008 075c 15        		.byte	0x15
 9009 075d 00        		.byte	0x0
 9010 075e 05        		.uleb128 0x5
 9011 075f 02        		.byte	0x2
 9012 0760 0000 0000 		.long	.LM181
 9013 0764 17        		.byte	0x17
 9014 0765 00        		.byte	0x0
 9015 0766 05        		.uleb128 0x5
 9016 0767 02        		.byte	0x2
 9017 0768 0000 0000 		.long	.LM182
 9018 076c 15        		.byte	0x15
 9019 076d 00        		.byte	0x0
 9020 076e 05        		.uleb128 0x5
 9021 076f 02        		.byte	0x2
 9022 0770 0000 0000 		.long	.LM183
 9023 0774 0A        		.byte	0xa
 9024 0775 00        		.byte	0x0
 9025 0776 05        		.uleb128 0x5
 9026 0777 02        		.byte	0x2
 9027 0778 0000 0000 		.long	.LM184
 9028 077c 2A        		.byte	0x2a
 9029 077d 00        		.byte	0x0
 9030 077e 05        		.uleb128 0x5
 9031 077f 02        		.byte	0x2
 9032 0780 0000 0000 		.long	.LM185
GAS LISTING /tmp/cc1O4Nc2.s 			page 162


 9033 0784 15        		.byte	0x15
 9034 0785 00        		.byte	0x0
 9035 0786 05        		.uleb128 0x5
 9036 0787 02        		.byte	0x2
 9037 0788 0000 0000 		.long	.LM186
 9038 078c 15        		.byte	0x15
 9039 078d 00        		.byte	0x0
 9040 078e 05        		.uleb128 0x5
 9041 078f 02        		.byte	0x2
 9042 0790 0000 0000 		.long	.LM187
 9043 0794 15        		.byte	0x15
 9044 0795 00        		.byte	0x0
 9045 0796 05        		.uleb128 0x5
 9046 0797 02        		.byte	0x2
 9047 0798 0000 0000 		.long	.LM188
 9048 079c 15        		.byte	0x15
 9049 079d 00        		.byte	0x0
 9050 079e 05        		.uleb128 0x5
 9051 079f 02        		.byte	0x2
 9052 07a0 0000 0000 		.long	.LM189
 9053 07a4 17        		.byte	0x17
 9054 07a5 00        		.byte	0x0
 9055 07a6 05        		.uleb128 0x5
 9056 07a7 02        		.byte	0x2
 9057 07a8 0000 0000 		.long	.LM190
 9058 07ac 18        		.byte	0x18
 9059 07ad 00        		.byte	0x0
 9060 07ae 05        		.uleb128 0x5
 9061 07af 02        		.byte	0x2
 9062 07b0 0000 0000 		.long	.LM191
 9063 07b4 18        		.byte	0x18
 9064 07b5 00        		.byte	0x0
 9065 07b6 05        		.uleb128 0x5
 9066 07b7 02        		.byte	0x2
 9067 07b8 0000 0000 		.long	.LM192
 9068 07bc 18        		.byte	0x18
 9069 07bd 00        		.byte	0x0
 9070 07be 05        		.uleb128 0x5
 9071 07bf 02        		.byte	0x2
 9072 07c0 0000 0000 		.long	.LM193
 9073 07c4 19        		.byte	0x19
 9074 07c5 00        		.byte	0x0
 9075 07c6 05        		.uleb128 0x5
 9076 07c7 02        		.byte	0x2
 9077 07c8 0000 0000 		.long	.LM194
 9078 07cc 15        		.byte	0x15
 9079 07cd 00        		.byte	0x0
 9080 07ce 05        		.uleb128 0x5
 9081 07cf 02        		.byte	0x2
 9082 07d0 0000 0000 		.long	.LM195
 9083 07d4 15        		.byte	0x15
 9084 07d5 00        		.byte	0x0
 9085 07d6 05        		.uleb128 0x5
 9086 07d7 02        		.byte	0x2
 9087 07d8 0000 0000 		.long	.LM196
 9088 07dc 15        		.byte	0x15
 9089 07dd 00        		.byte	0x0
GAS LISTING /tmp/cc1O4Nc2.s 			page 163


 9090 07de 05        		.uleb128 0x5
 9091 07df 02        		.byte	0x2
 9092 07e0 0000 0000 		.long	.LM197
 9093 07e4 16        		.byte	0x16
 9094 07e5 00        		.byte	0x0
 9095 07e6 05        		.uleb128 0x5
 9096 07e7 02        		.byte	0x2
 9097 07e8 0000 0000 		.long	.LM198
 9098 07ec 15        		.byte	0x15
 9099 07ed 00        		.byte	0x0
 9100 07ee 05        		.uleb128 0x5
 9101 07ef 02        		.byte	0x2
 9102 07f0 0000 0000 		.long	.LM199
 9103 07f4 15        		.byte	0x15
 9104 07f5 00        		.byte	0x0
 9105 07f6 05        		.uleb128 0x5
 9106 07f7 02        		.byte	0x2
 9107 07f8 0000 0000 		.long	.LM200
 9108 07fc 15        		.byte	0x15
 9109 07fd 00        		.byte	0x0
 9110 07fe 05        		.uleb128 0x5
 9111 07ff 02        		.byte	0x2
 9112 0800 0000 0000 		.long	.LM201
 9113 0804 03        		.byte	0x3
 9114 0805 807F      		.sleb128 -128
 9115 0807 01        		.byte	0x1
 9116 0808 00        		.byte	0x0
 9117 0809 05        		.uleb128 0x5
 9118 080a 02        		.byte	0x2
 9119 080b 0000 0000 		.long	.LM202
 9120 080f 15        		.byte	0x15
 9121 0810 00        		.byte	0x0
 9122 0811 05        		.uleb128 0x5
 9123 0812 02        		.byte	0x2
 9124 0813 0000 0000 		.long	.LM203
 9125 0817 15        		.byte	0x15
 9126 0818 00        		.byte	0x0
 9127 0819 05        		.uleb128 0x5
 9128 081a 02        		.byte	0x2
 9129 081b 0000 0000 		.long	.LM204
 9130 081f 15        		.byte	0x15
 9131 0820 00        		.byte	0x0
 9132 0821 05        		.uleb128 0x5
 9133 0822 02        		.byte	0x2
 9134 0823 0000 0000 		.long	.LM205
 9135 0827 15        		.byte	0x15
 9136 0828 00        		.byte	0x0
 9137 0829 05        		.uleb128 0x5
 9138 082a 02        		.byte	0x2
 9139 082b 0000 0000 		.long	.LM206
 9140 082f 15        		.byte	0x15
 9141 0830 00        		.byte	0x0
 9142 0831 05        		.uleb128 0x5
 9143 0832 02        		.byte	0x2
 9144 0833 0000 0000 		.long	.LM207
 9145 0837 15        		.byte	0x15
 9146 0838 00        		.byte	0x0
GAS LISTING /tmp/cc1O4Nc2.s 			page 164


 9147 0839 05        		.uleb128 0x5
 9148 083a 02        		.byte	0x2
 9149 083b 0000 0000 		.long	.LM208
 9150 083f 17        		.byte	0x17
 9151 0840 00        		.byte	0x0
 9152 0841 05        		.uleb128 0x5
 9153 0842 02        		.byte	0x2
 9154 0843 0000 0000 		.long	.LM209
 9155 0847 18        		.byte	0x18
 9156 0848 00        		.byte	0x0
 9157 0849 05        		.uleb128 0x5
 9158 084a 02        		.byte	0x2
 9159 084b 0000 0000 		.long	.LM210
 9160 084f 16        		.byte	0x16
 9161 0850 00        		.byte	0x0
 9162 0851 05        		.uleb128 0x5
 9163 0852 02        		.byte	0x2
 9164 0853 0000 0000 		.long	.LM211
 9165 0857 16        		.byte	0x16
 9166 0858 00        		.byte	0x0
 9167 0859 05        		.uleb128 0x5
 9168 085a 02        		.byte	0x2
 9169 085b 0000 0000 		.long	.LM212
 9170 085f 15        		.byte	0x15
 9171 0860 00        		.byte	0x0
 9172 0861 05        		.uleb128 0x5
 9173 0862 02        		.byte	0x2
 9174 0863 0000 0000 		.long	.LM213
 9175 0867 16        		.byte	0x16
 9176 0868 00        		.byte	0x0
 9177 0869 05        		.uleb128 0x5
 9178 086a 02        		.byte	0x2
 9179 086b 0000 0000 		.long	.LM214
 9180 086f 03        		.byte	0x3
 9181 0870 A27F      		.sleb128 -94
 9182 0872 01        		.byte	0x1
 9183 0873 00        		.byte	0x0
 9184 0874 05        		.uleb128 0x5
 9185 0875 02        		.byte	0x2
 9186 0876 0000 0000 		.long	.LM215
 9187 087a 15        		.byte	0x15
 9188 087b 00        		.byte	0x0
 9189 087c 05        		.uleb128 0x5
 9190 087d 02        		.byte	0x2
 9191 087e 0000 0000 		.long	.LM216
 9192 0882 15        		.byte	0x15
 9193 0883 00        		.byte	0x0
 9194 0884 05        		.uleb128 0x5
 9195 0885 02        		.byte	0x2
 9196 0886 0000 0000 		.long	.LM217
 9197 088a 15        		.byte	0x15
 9198 088b 00        		.byte	0x0
 9199 088c 05        		.uleb128 0x5
 9200 088d 02        		.byte	0x2
 9201 088e 0000 0000 		.long	.LM218
 9202 0892 15        		.byte	0x15
 9203 0893 00        		.byte	0x0
GAS LISTING /tmp/cc1O4Nc2.s 			page 165


 9204 0894 05        		.uleb128 0x5
 9205 0895 02        		.byte	0x2
 9206 0896 0000 0000 		.long	.LM219
 9207 089a 15        		.byte	0x15
 9208 089b 00        		.byte	0x0
 9209 089c 05        		.uleb128 0x5
 9210 089d 02        		.byte	0x2
 9211 089e 0000 0000 		.long	.LM220
 9212 08a2 15        		.byte	0x15
 9213 08a3 00        		.byte	0x0
 9214 08a4 05        		.uleb128 0x5
 9215 08a5 02        		.byte	0x2
 9216 08a6 0000 0000 		.long	.LM221
 9217 08aa 17        		.byte	0x17
 9218 08ab 00        		.byte	0x0
 9219 08ac 05        		.uleb128 0x5
 9220 08ad 02        		.byte	0x2
 9221 08ae 0000 0000 		.long	.LM222
 9222 08b2 18        		.byte	0x18
 9223 08b3 00        		.byte	0x0
 9224 08b4 05        		.uleb128 0x5
 9225 08b5 02        		.byte	0x2
 9226 08b6 0000 0000 		.long	.LM223
 9227 08ba 16        		.byte	0x16
 9228 08bb 00        		.byte	0x0
 9229 08bc 05        		.uleb128 0x5
 9230 08bd 02        		.byte	0x2
 9231 08be 0000 0000 		.long	.LM224
 9232 08c2 16        		.byte	0x16
 9233 08c3 00        		.byte	0x0
 9234 08c4 05        		.uleb128 0x5
 9235 08c5 02        		.byte	0x2
 9236 08c6 0000 0000 		.long	.LM225
 9237 08ca 15        		.byte	0x15
 9238 08cb 00        		.byte	0x0
 9239 08cc 05        		.uleb128 0x5
 9240 08cd 02        		.byte	0x2
 9241 08ce 0000 0000 		.long	.LM226
 9242 08d2 15        		.byte	0x15
 9243 08d3 00        		.byte	0x0
 9244 08d4 05        		.uleb128 0x5
 9245 08d5 02        		.byte	0x2
 9246 08d6 0000 0000 		.long	.LM227
 9247 08da 03        		.byte	0x3
 9248 08db 53        		.sleb128 -45
 9249 08dc 01        		.byte	0x1
 9250 08dd 00        		.byte	0x0
 9251 08de 05        		.uleb128 0x5
 9252 08df 02        		.byte	0x2
 9253 08e0 0000 0000 		.long	.LM228
 9254 08e4 16        		.byte	0x16
 9255 08e5 00        		.byte	0x0
 9256 08e6 05        		.uleb128 0x5
 9257 08e7 02        		.byte	0x2
 9258 08e8 0000 0000 		.long	.LM229
 9259 08ec 15        		.byte	0x15
 9260 08ed 00        		.byte	0x0
GAS LISTING /tmp/cc1O4Nc2.s 			page 166


 9261 08ee 05        		.uleb128 0x5
 9262 08ef 02        		.byte	0x2
 9263 08f0 0000 0000 		.long	.LM230
 9264 08f4 17        		.byte	0x17
 9265 08f5 00        		.byte	0x0
 9266 08f6 05        		.uleb128 0x5
 9267 08f7 02        		.byte	0x2
 9268 08f8 0000 0000 		.long	.LM231
 9269 08fc 17        		.byte	0x17
 9270 08fd 00        		.byte	0x0
 9271 08fe 05        		.uleb128 0x5
 9272 08ff 02        		.byte	0x2
 9273 0900 0000 0000 		.long	.LM232
 9274 0904 15        		.byte	0x15
 9275 0905 00        		.byte	0x0
 9276 0906 05        		.uleb128 0x5
 9277 0907 02        		.byte	0x2
 9278 0908 0000 0000 		.long	.LM233
 9279 090c 17        		.byte	0x17
 9280 090d 00        		.byte	0x0
 9281 090e 05        		.uleb128 0x5
 9282 090f 02        		.byte	0x2
 9283 0910 0000 0000 		.long	.LM234
 9284 0914 15        		.byte	0x15
 9285 0915 00        		.byte	0x0
 9286 0916 05        		.uleb128 0x5
 9287 0917 02        		.byte	0x2
 9288 0918 0000 0000 		.long	.LM235
 9289 091c 17        		.byte	0x17
 9290 091d 00        		.byte	0x0
 9291 091e 05        		.uleb128 0x5
 9292 091f 02        		.byte	0x2
 9293 0920 0000 0000 		.long	.LM236
 9294 0924 18        		.byte	0x18
 9295 0925 00        		.byte	0x0
 9296 0926 05        		.uleb128 0x5
 9297 0927 02        		.byte	0x2
 9298 0928 0000 0000 		.long	.LM237
 9299 092c 03        		.byte	0x3
 9300 092d AF7F      		.sleb128 -81
 9301 092f 01        		.byte	0x1
 9302 0930 00        		.byte	0x0
 9303 0931 05        		.uleb128 0x5
 9304 0932 02        		.byte	0x2
 9305 0933 0000 0000 		.long	.LM238
 9306 0937 16        		.byte	0x16
 9307 0938 00        		.byte	0x0
 9308 0939 05        		.uleb128 0x5
 9309 093a 02        		.byte	0x2
 9310 093b 0000 0000 		.long	.LM239
 9311 093f 16        		.byte	0x16
 9312 0940 00        		.byte	0x0
 9313 0941 05        		.uleb128 0x5
 9314 0942 02        		.byte	0x2
 9315 0943 0000 0000 		.long	.LM240
 9316 0947 18        		.byte	0x18
 9317 0948 00        		.byte	0x0
GAS LISTING /tmp/cc1O4Nc2.s 			page 167


 9318 0949 05        		.uleb128 0x5
 9319 094a 02        		.byte	0x2
 9320 094b 0000 0000 		.long	.LM241
 9321 094f 1A        		.byte	0x1a
 9322 0950 00        		.byte	0x0
 9323 0951 05        		.uleb128 0x5
 9324 0952 02        		.byte	0x2
 9325 0953 0000 0000 		.long	.LM242
 9326 0957 17        		.byte	0x17
 9327 0958 00        		.byte	0x0
 9328 0959 05        		.uleb128 0x5
 9329 095a 02        		.byte	0x2
 9330 095b 0000 0000 		.long	.LM243
 9331 095f 1B        		.byte	0x1b
 9332 0960 00        		.byte	0x0
 9333 0961 05        		.uleb128 0x5
 9334 0962 02        		.byte	0x2
 9335 0963 0000 0000 		.long	.LM244
 9336 0967 18        		.byte	0x18
 9337 0968 00        		.byte	0x0
 9338 0969 05        		.uleb128 0x5
 9339 096a 02        		.byte	0x2
 9340 096b 0000 0000 		.long	.LM245
 9341 096f 15        		.byte	0x15
 9342 0970 00        		.byte	0x0
 9343 0971 05        		.uleb128 0x5
 9344 0972 02        		.byte	0x2
 9345 0973 0000 0000 		.long	.LM246
 9346 0977 15        		.byte	0x15
 9347 0978 00        		.byte	0x0
 9348 0979 05        		.uleb128 0x5
 9349 097a 02        		.byte	0x2
 9350 097b 0000 0000 		.long	.LM247
 9351 097f 15        		.byte	0x15
 9352 0980 00        		.byte	0x0
 9353 0981 05        		.uleb128 0x5
 9354 0982 02        		.byte	0x2
 9355 0983 0000 0000 		.long	.LM248
 9356 0987 16        		.byte	0x16
 9357 0988 00        		.byte	0x0
 9358 0989 05        		.uleb128 0x5
 9359 098a 02        		.byte	0x2
 9360 098b 0000 0000 		.long	.LM249
 9361 098f 15        		.byte	0x15
 9362 0990 00        		.byte	0x0
 9363 0991 05        		.uleb128 0x5
 9364 0992 02        		.byte	0x2
 9365 0993 0000 0000 		.long	.LM250
 9366 0997 15        		.byte	0x15
 9367 0998 00        		.byte	0x0
 9368 0999 05        		.uleb128 0x5
 9369 099a 02        		.byte	0x2
 9370 099b 0000 0000 		.long	.LM251
 9371 099f 15        		.byte	0x15
 9372 09a0 00        		.byte	0x0
 9373 09a1 05        		.uleb128 0x5
 9374 09a2 02        		.byte	0x2
GAS LISTING /tmp/cc1O4Nc2.s 			page 168


 9375 09a3 0000 0000 		.long	.LM252
 9376 09a7 16        		.byte	0x16
 9377 09a8 00        		.byte	0x0
 9378 09a9 05        		.uleb128 0x5
 9379 09aa 02        		.byte	0x2
 9380 09ab 0000 0000 		.long	.LM253
 9381 09af 15        		.byte	0x15
 9382 09b0 00        		.byte	0x0
 9383 09b1 05        		.uleb128 0x5
 9384 09b2 02        		.byte	0x2
 9385 09b3 0000 0000 		.long	.LM254
 9386 09b7 16        		.byte	0x16
 9387 09b8 00        		.byte	0x0
 9388 09b9 05        		.uleb128 0x5
 9389 09ba 02        		.byte	0x2
 9390 09bb 0000 0000 		.long	.LM255
 9391 09bf 15        		.byte	0x15
 9392 09c0 00        		.byte	0x0
 9393 09c1 05        		.uleb128 0x5
 9394 09c2 02        		.byte	0x2
 9395 09c3 0000 0000 		.long	.LM256
 9396 09c7 16        		.byte	0x16
 9397 09c8 00        		.byte	0x0
 9398 09c9 05        		.uleb128 0x5
 9399 09ca 02        		.byte	0x2
 9400 09cb 0000 0000 		.long	.LM257
 9401 09cf 16        		.byte	0x16
 9402 09d0 00        		.byte	0x0
 9403 09d1 05        		.uleb128 0x5
 9404 09d2 02        		.byte	0x2
 9405 09d3 0000 0000 		.long	.LM258
 9406 09d7 15        		.byte	0x15
 9407 09d8 00        		.byte	0x0
 9408 09d9 05        		.uleb128 0x5
 9409 09da 02        		.byte	0x2
 9410 09db 0000 0000 		.long	.LM259
 9411 09df 19        		.byte	0x19
 9412 09e0 00        		.byte	0x0
 9413 09e1 05        		.uleb128 0x5
 9414 09e2 02        		.byte	0x2
 9415 09e3 0000 0000 		.long	.Letext0
 9416 09e7 00        		.byte	0x0
 9417 09e8 01        		.uleb128 0x1
 9418 09e9 01        		.byte	0x1
 9419               	.LELT0:
 9420 09ea 1600 0000 		.section	.debug_str,"MS",@progbits,1
 9420      0200 1000 
 9420      0000 0101 
 9420      FB0E 0A00 
 9420      0101 0101 
 9421               	.LASF267:
 9422 0000 5350 495F 		.string	"SPI_MODE_0_gc"
 9422      4D4F 4445 
 9422      5F30 5F67 
 9422      6300 
 9423               	.LASF155:
 9424 000e 5045 5248 		.string	"PERH"
GAS LISTING /tmp/cc1O4Nc2.s 			page 169


 9424      00
 9425               	.LASF274:
 9426 0013 5350 495F 		.string	"SPI_INTLVL_MED_gc"
 9426      494E 544C 
 9426      564C 5F4D 
 9426      4544 5F67 
 9426      6300 
 9427               	.LASF154:
 9428 0025 5045 524C 		.string	"PERL"
 9428      00
 9429               	.LASF229:
 9430 002a 5443 5F43 		.string	"TC_CLKSEL_EVCH0_gc"
 9430      4C4B 5345 
 9430      4C5F 4556 
 9430      4348 305F 
 9430      6763 00
 9431               	.LASF166:
 9432 003d 5045 5242 		.string	"PERBUF"
 9432      5546 00
 9433               	.LASF15:
 9434 0044 4343 505F 		.string	"CCP_IOREG_gc"
 9434      494F 5245 
 9434      475F 6763 
 9434      00
 9435               	.LASF223:
 9436 0051 5443 5F43 		.string	"TC_CLKSEL_DIV2_gc"
 9436      4C4B 5345 
 9436      4C5F 4449 
 9436      5632 5F67 
 9436      6300 
 9437               	.LASF322:
 9438 0063 6465 6275 		.string	"debug"
 9438      6700 
 9439               	.LASF341:
 9440 0069 6D61 696E 		.string	"main.c"
 9440      2E63 00
 9441               	.LASF201:
 9442 0070 7265 7365 		.string	"reserved_0x22"
 9442      7276 6564 
 9442      5F30 7832 
 9442      3200 
 9443               	.LASF202:
 9444 007e 7265 7365 		.string	"reserved_0x23"
 9444      7276 6564 
 9444      5F30 7832 
 9444      3300 
 9445               	.LASF203:
 9446 008c 7265 7365 		.string	"reserved_0x24"
 9446      7276 6564 
 9446      5F30 7832 
 9446      3400 
 9447               	.LASF204:
 9448 009a 7265 7365 		.string	"reserved_0x25"
 9448      7276 6564 
 9448      5F30 7832 
 9448      3500 
 9449               	.LASF39:
GAS LISTING /tmp/cc1O4Nc2.s 			page 170


 9450 00a8 504C 4C43 		.string	"PLLCTRL"
 9450      5452 4C00 
 9451               	.LASF141:
 9452 00b0 494E 5431 		.string	"INT1MASK"
 9452      4D41 534B 
 9452      00
 9453               	.LASF169:
 9454 00b9 4343 4142 		.string	"CCABUF"
 9454      5546 00
 9455               	.LASF213:
 9456 00c0 7265 7365 		.string	"reserved_0x2C"
 9456      7276 6564 
 9456      5F30 7832 
 9456      4300 
 9457               	.LASF214:
 9458 00ce 7265 7365 		.string	"reserved_0x2D"
 9458      7276 6564 
 9458      5F30 7832 
 9458      4400 
 9459               	.LASF215:
 9460 00dc 7265 7365 		.string	"reserved_0x2E"
 9460      7276 6564 
 9460      5F30 7832 
 9460      4500 
 9461               	.LASF216:
 9462 00ea 7265 7365 		.string	"reserved_0x2F"
 9462      7276 6564 
 9462      5F30 7832 
 9462      4600 
 9463               	.LASF237:
 9464 00f8 5443 5F57 		.string	"TC_WGMODE_enum"
 9464      474D 4F44 
 9464      455F 656E 
 9464      756D 00
 9465               	.LASF217:
 9466 0107 5443 315F 		.string	"TC1_t"
 9466      7400 
 9467               	.LASF26:
 9468 010d 434C 4B5F 		.string	"CLK_SCLKSEL_RC32K_gc"
 9468      5343 4C4B 
 9468      5345 4C5F 
 9468      5243 3332 
 9468      4B5F 6763 
 9469               	.LASF10:
 9470 0122 666C 6167 		.string	"flags"
 9470      7300 
 9471               	.LASF57:
 9472 0128 4341 4C48 		.string	"CALH"
 9472      00
 9473               	.LASF121:
 9474 012d 4144 435F 		.string	"ADC_CH_INTLVL_LO_gc"
 9474      4348 5F49 
 9474      4E54 4C56 
 9474      4C5F 4C4F 
 9474      5F67 6300 
 9475               	.LASF56:
 9476 0141 4341 4C4C 		.string	"CALL"
GAS LISTING /tmp/cc1O4Nc2.s 			page 171


 9476      00
 9477               	.LASF184:
 9478 0146 494E 5443 		.string	"INTCTRLA"
 9478      5452 4C41 
 9478      00
 9479               	.LASF185:
 9480 014f 494E 5443 		.string	"INTCTRLB"
 9480      5452 4C42 
 9480      00
 9481               	.LASF55:
 9482 0158 4144 435F 		.string	"ADC_CH_t"
 9482      4348 5F74 
 9482      00
 9483               	.LASF149:
 9484 0161 5049 4E36 		.string	"PIN6CTRL"
 9484      4354 524C 
 9484      00
 9485               	.LASF85:
 9486 016a 7265 7365 		.string	"reserved_0x0F"
 9486      7276 6564 
 9486      5F30 7830 
 9486      4600 
 9487               	.LASF0:
 9488 0178 756E 7369 		.string	"unsigned int"
 9488      676E 6564 
 9488      2069 6E74 
 9488      00
 9489               	.LASF327:
 9490 0185 6D6F 746F 		.string	"motor4State"
 9490      7234 5374 
 9490      6174 6500 
 9491               	.LASF259:
 9492 0191 5553 4152 		.string	"USART_struct"
 9492      545F 7374 
 9492      7275 6374 
 9492      00
 9493               	.LASF71:
 9494 019e 434D 5048 		.string	"CMPH"
 9494      00
 9495               	.LASF106:
 9496 01a3 4144 435F 		.string	"ADC_RESOLUTION_enum"
 9496      5245 534F 
 9496      4C55 5449 
 9496      4F4E 5F65 
 9496      6E75 6D00 
 9497               	.LASF205:
 9498 01b7 7265 7365 		.string	"reserved_0x30"
 9498      7276 6564 
 9498      5F30 7833 
 9498      3000 
 9499               	.LASF70:
 9500 01c5 434D 504C 		.string	"CMPL"
 9500      00
 9501               	.LASF207:
 9502 01ca 7265 7365 		.string	"reserved_0x32"
 9502      7276 6564 
 9502      5F30 7833 
GAS LISTING /tmp/cc1O4Nc2.s 			page 172


 9502      3200 
 9503               	.LASF208:
 9504 01d8 7265 7365 		.string	"reserved_0x33"
 9504      7276 6564 
 9504      5F30 7833 
 9504      3300 
 9505               	.LASF209:
 9506 01e6 7265 7365 		.string	"reserved_0x34"
 9506      7276 6564 
 9506      5F30 7833 
 9506      3400 
 9507               	.LASF210:
 9508 01f4 7265 7365 		.string	"reserved_0x35"
 9508      7276 6564 
 9508      5F30 7833 
 9508      3500 
 9509               	.LASF334:
 9510 0202 6175 746F 		.string	"autoCommutationFlag"
 9510      436F 6D6D 
 9510      7574 6174 
 9510      696F 6E46 
 9510      6C61 6700 
 9511               	.LASF278:
 9512 0216 6D6F 6475 		.string	"module"
 9512      6C65 00
 9513               	.LASF124:
 9514 021d 4144 435F 		.string	"ADC_PRESCALER_enum"
 9514      5052 4553 
 9514      4341 4C45 
 9514      525F 656E 
 9514      756D 00
 9515               	.LASF297:
 9516 0230 5F5F 7665 		.string	"__vector_47"
 9516      6374 6F72 
 9516      5F34 3700 
 9517               	.LASF293:
 9518 023c 5F5F 7665 		.string	"__vector_49"
 9518      6374 6F72 
 9518      5F34 3900 
 9519               	.LASF128:
 9520 0248 4144 435F 		.string	"ADC_PRESCALER_DIV32_gc"
 9520      5052 4553 
 9520      4341 4C45 
 9520      525F 4449 
 9520      5633 325F 
 9521               	.LASF30:
 9522 025f 434C 4B5F 		.string	"CLK_PSBCDIV_1_1_gc"
 9522      5053 4243 
 9522      4449 565F 
 9522      315F 315F 
 9522      6763 00
 9523               	.LASF114:
 9524 0272 4144 435F 		.string	"ADC_REFSEL_AREFB_gc"
 9524      5245 4653 
 9524      454C 5F41 
 9524      5245 4642 
 9524      5F67 6300 
GAS LISTING /tmp/cc1O4Nc2.s 			page 173


 9525               	.LASF127:
 9526 0286 4144 435F 		.string	"ADC_PRESCALER_DIV16_gc"
 9526      5052 4553 
 9526      4341 4C45 
 9526      525F 4449 
 9526      5631 365F 
 9527               	.LASF132:
 9528 029d 4144 435F 		.string	"ADC_PRESCALER_DIV512_gc"
 9528      5052 4553 
 9528      4341 4C45 
 9528      525F 4449 
 9528      5635 3132 
 9529               	.LASF23:
 9530 02b5 434C 4B5F 		.string	"CLK_SCLKSEL_enum"
 9530      5343 4C4B 
 9530      5345 4C5F 
 9530      656E 756D 
 9530      00
 9531               	.LASF9:
 9532 02c6 756E 6765 		.string	"unget"
 9532      7400 
 9533               	.LASF320:
 9534 02cc 636F 6E66 		.string	"configPWM"
 9534      6967 5057 
 9534      4D00 
 9535               	.LASF321:
 9536 02d6 636F 6E66 		.string	"configClock"
 9536      6967 436C 
 9536      6F63 6B00 
 9537               	.LASF157:
 9538 02e2 4343 4148 		.string	"CCAH"
 9538      00
 9539               	.LASF156:
 9540 02e7 4343 414C 		.string	"CCAL"
 9540      00
 9541               	.LASF226:
 9542 02ec 5443 5F43 		.string	"TC_CLKSEL_DIV64_gc"
 9542      4C4B 5345 
 9542      4C5F 4449 
 9542      5636 345F 
 9542      6763 00
 9543               	.LASF46:
 9544 02ff 494E 5450 		.string	"INTPRI"
 9544      5249 00
 9545               	.LASF275:
 9546 0306 5350 495F 		.string	"SPI_INTLVL_HI_gc"
 9546      494E 544C 
 9546      564C 5F48 
 9546      495F 6763 
 9546      00
 9547               	.LASF102:
 9548 0317 4144 435F 		.string	"ADC_CH_GAIN_8X_gc"
 9548      4348 5F47 
 9548      4149 4E5F 
 9548      3858 5F67 
 9548      6300 
 9549               	.LASF22:
GAS LISTING /tmp/cc1O4Nc2.s 			page 174


 9550 0329 4343 505F 		.string	"CCP_enum"
 9550      656E 756D 
 9550      00
 9551               	.LASF283:
 9552 0332 5F5F 636F 		.string	"__count"
 9552      756E 7400 
 9553               	.LASF269:
 9554 033a 5350 495F 		.string	"SPI_MODE_2_gc"
 9554      4D4F 4445 
 9554      5F32 5F67 
 9554      6300 
 9555               	.LASF34:
 9556 0348 4F53 435F 		.string	"OSC_struct"
 9556      7374 7275 
 9556      6374 00
 9557               	.LASF212:
 9558 0353 5443 315F 		.string	"TC1_struct"
 9558      7374 7275 
 9558      6374 00
 9559               	.LASF143:
 9560 035e 5049 4E30 		.string	"PIN0CTRL"
 9560      4354 524C 
 9560      00
 9561               	.LASF343:
 9562 0367 7075 7463 		.string	"putcharDebug"
 9562      6861 7244 
 9562      6562 7567 
 9562      00
 9563               	.LASF294:
 9564 0374 5F5F 7665 		.string	"__vector_50"
 9564      6374 6F72 
 9564      5F35 3000 
 9565               	.LASF295:
 9566 0380 5F5F 7665 		.string	"__vector_51"
 9566      6374 6F72 
 9566      5F35 3100 
 9567               	.LASF296:
 9568 038c 5F5F 7665 		.string	"__vector_52"
 9568      6374 6F72 
 9568      5F35 3200 
 9569               	.LASF301:
 9570 0398 5F5F 7665 		.string	"__vector_55"
 9570      6374 6F72 
 9570      5F35 3500 
 9571               	.LASF53:
 9572 03a4 7265 7365 		.string	"reserved_0x6"
 9572      7276 6564 
 9572      5F30 7836 
 9572      00
 9573               	.LASF54:
 9574 03b1 7265 7365 		.string	"reserved_0x7"
 9574      7276 6564 
 9574      5F30 7837 
 9574      00
 9575               	.LASF177:
 9576 03be 4343 4442 		.string	"CCDBUFH"
 9576      5546 4800 
GAS LISTING /tmp/cc1O4Nc2.s 			page 175


 9577               	.LASF218:
 9578 03c6 4849 5245 		.string	"HIRES_struct"
 9578      535F 7374 
 9578      7275 6374 
 9578      00
 9579               	.LASF139:
 9580 03d3 4F55 5454 		.string	"OUTTGL"
 9580      474C 00
 9581               	.LASF21:
 9582 03da 5254 4343 		.string	"RTCCTRL"
 9582      5452 4C00 
 9583               	.LASF175:
 9584 03e2 4343 4342 		.string	"CCCBUF"
 9584      5546 00
 9585               	.LASF271:
 9586 03e9 5350 495F 		.string	"SPI_INTLVL_enum"
 9586      494E 544C 
 9586      564C 5F65 
 9586      6E75 6D00 
 9587               	.LASF78:
 9588 03f9 4341 4C43 		.string	"CALCTRL"
 9588      5452 4C00 
 9589               	.LASF159:
 9590 0401 4343 4248 		.string	"CCBH"
 9590      00
 9591               	.LASF89:
 9592 0406 7265 7365 		.string	"reserved_0x1D"
 9592      7276 6564 
 9592      5F30 7831 
 9592      4400 
 9593               	.LASF90:
 9594 0414 7265 7365 		.string	"reserved_0x1E"
 9594      7276 6564 
 9594      5F30 7831 
 9594      4500 
 9595               	.LASF158:
 9596 0422 4343 424C 		.string	"CCBL"
 9596      00
 9597               	.LASF306:
 9598 0427 7365 744D 		.string	"setMotor3State"
 9598      6F74 6F72 
 9598      3353 7461 
 9598      7465 00
 9599               	.LASF44:
 9600 0436 4F53 435F 		.string	"OSC_PLLSRC_XOSC_gc"
 9600      504C 4C53 
 9600      5243 5F58 
 9600      4F53 435F 
 9600      6763 00
 9601               	.LASF135:
 9602 0449 4449 5243 		.string	"DIRCLR"
 9602      4C52 00
 9603               	.LASF273:
 9604 0450 5350 495F 		.string	"SPI_INTLVL_LO_gc"
 9604      494E 544C 
 9604      564C 5F4C 
 9604      4F5F 6763 
GAS LISTING /tmp/cc1O4Nc2.s 			page 176


 9604      00
 9605               	.LASF17:
 9606 0461 434C 4B5F 		.string	"CLK_struct"
 9606      7374 7275 
 9606      6374 00
 9607               	.LASF282:
 9608 046c 5F64 656C 		.string	"_delay_ms"
 9608      6179 5F6D 
 9608      7300 
 9609               	.LASF239:
 9610 0476 5443 5F57 		.string	"TC_WGMODE_FRQ_gc"
 9610      474D 4F44 
 9610      455F 4652 
 9610      515F 6763 
 9610      00
 9611               	.LASF314:
 9612 0487 7265 7375 		.string	"result"
 9612      6C74 00
 9613               	.LASF104:
 9614 048e 4144 435F 		.string	"ADC_CH_GAIN_32X_gc"
 9614      4348 5F47 
 9614      4149 4E5F 
 9614      3332 585F 
 9614      6763 00
 9615               	.LASF20:
 9616 04a1 4C4F 434B 		.string	"LOCK"
 9616      00
 9617               	.LASF129:
 9618 04a6 4144 435F 		.string	"ADC_PRESCALER_DIV64_gc"
 9618      5052 4553 
 9618      4341 4C45 
 9618      525F 4449 
 9618      5636 345F 
 9619               	.LASF84:
 9620 04bd 7265 7365 		.string	"reserved_0x0E"
 9620      7276 6564 
 9620      5F30 7830 
 9620      4500 
 9621               	.LASF168:
 9622 04cb 4343 4142 		.string	"CCABUFH"
 9622      5546 4800 
 9623               	.LASF27:
 9624 04d3 434C 4B5F 		.string	"CLK_SCLKSEL_XOSC_gc"
 9624      5343 4C4B 
 9624      5345 4C5F 
 9624      584F 5343 
 9624      5F67 6300 
 9625               	.LASF119:
 9626 04e7 4144 435F 		.string	"ADC_CH_INTLVL_enum"
 9626      4348 5F49 
 9626      4E54 4C56 
 9626      4C5F 656E 
 9626      756D 00
 9627               	.LASF230:
 9628 04fa 5443 5F43 		.string	"TC_CLKSEL_EVCH1_gc"
 9628      4C4B 5345 
 9628      4C5F 4556 
GAS LISTING /tmp/cc1O4Nc2.s 			page 177


 9628      4348 315F 
 9628      6763 00
 9629               	.LASF100:
 9630 050d 4144 435F 		.string	"ADC_CH_GAIN_2X_gc"
 9630      4348 5F47 
 9630      4149 4E5F 
 9630      3258 5F67 
 9630      6300 
 9631               	.LASF318:
 9632 051f 6869 7265 		.string	"hires"
 9632      7300 
 9633               	.LASF8:
 9634 0525 6C6F 6E67 		.string	"long long unsigned int"
 9634      206C 6F6E 
 9634      6720 756E 
 9634      7369 676E 
 9634      6564 2069 
 9635               	.LASF98:
 9636 053c 4144 435F 		.string	"ADC_CH_GAIN_enum"
 9636      4348 5F47 
 9636      4149 4E5F 
 9636      656E 756D 
 9636      00
 9637               	.LASF31:
 9638 054d 434C 4B5F 		.string	"CLK_PSBCDIV_1_2_gc"
 9638      5053 4243 
 9638      4449 565F 
 9638      315F 325F 
 9638      6763 00
 9639               	.LASF260:
 9640 0560 4441 5441 		.string	"DATA"
 9640      00
 9641               	.LASF167:
 9642 0565 4343 4142 		.string	"CCABUFL"
 9642      5546 4C00 
 9643               	.LASF161:
 9644 056d 4343 4348 		.string	"CCCH"
 9644      00
 9645               	.LASF160:
 9646 0572 4343 434C 		.string	"CCCL"
 9646      00
 9647               	.LASF324:
 9648 0577 6D6F 746F 		.string	"motor1State"
 9648      7231 5374 
 9648      6174 6500 
 9649               	.LASF280:
 9650 0583 5350 495F 		.string	"SPI_Slave_t"
 9650      536C 6176 
 9650      655F 7400 
 9651               	.LASF222:
 9652 058f 5443 5F43 		.string	"TC_CLKSEL_DIV1_gc"
 9652      4C4B 5345 
 9652      4C5F 4449 
 9652      5631 5F67 
 9652      6300 
 9653               	.LASF65:
 9654 05a1 4348 3252 		.string	"CH2RESH"
GAS LISTING /tmp/cc1O4Nc2.s 			page 178


 9654      4553 4800 
 9655               	.LASF64:
 9656 05a9 4348 3252 		.string	"CH2RESL"
 9656      4553 4C00 
 9657               	.LASF38:
 9658 05b1 5243 3332 		.string	"RC32KCAL"
 9658      4B43 414C 
 9658      00
 9659               	.LASF313:
 9660 05ba 5F5F 7665 		.string	"__vector_72"
 9660      6374 6F72 
 9660      5F37 3200 
 9661               	.LASF298:
 9662 05c6 636F 6E66 		.string	"configMotTimer0"
 9662      6967 4D6F 
 9662      7454 696D 
 9662      6572 3000 
 9663               	.LASF299:
 9664 05d6 636F 6E66 		.string	"configMotTimer1"
 9664      6967 4D6F 
 9664      7454 696D 
 9664      6572 3100 
 9665               	.LASF302:
 9666 05e6 5F5F 7665 		.string	"__vector_79"
 9666      6374 6F72 
 9666      5F37 3900 
 9667               	.LASF339:
 9668 05f2 7374 6172 		.string	"startupDelays"
 9668      7475 7044 
 9668      656C 6179 
 9668      7300 
 9669               	.LASF323:
 9670 0600 5F5F 696F 		.string	"__iob"
 9670      6200 
 9671               	.LASF300:
 9672 0606 5F5F 7665 		.string	"__vector_22"
 9672      6374 6F72 
 9672      5F32 3200 
 9673               	.LASF309:
 9674 0612 5F5F 7665 		.string	"__vector_24"
 9674      6374 6F72 
 9674      5F32 3400 
 9675               	.LASF284:
 9676 061e 5F5F 6D73 		.string	"__ms"
 9676      00
 9677               	.LASF317:
 9678 0623 636F 6E66 		.string	"configHalfPWMTimer"
 9678      6967 4861 
 9678      6C66 5057 
 9678      4D54 696D 
 9678      6572 00
 9679               	.LASF241:
 9680 0636 5443 5F57 		.string	"TC_WGMODE_DS_T_gc"
 9680      474D 4F44 
 9680      455F 4453 
 9680      5F54 5F67 
 9680      6300 
GAS LISTING /tmp/cc1O4Nc2.s 			page 179


 9681               	.LASF163:
 9682 0648 4343 4448 		.string	"CCDH"
 9682      00
 9683               	.LASF105:
 9684 064d 4144 435F 		.string	"ADC_CH_GAIN_64X_gc"
 9684      4348 5F47 
 9684      4149 4E5F 
 9684      3634 585F 
 9684      6763 00
 9685               	.LASF162:
 9686 0660 4343 444C 		.string	"CCDL"
 9686      00
 9687               	.LASF333:
 9688 0665 6D6F 746F 		.string	"motor4Thresh"
 9688      7234 5468 
 9688      7265 7368 
 9688      00
 9689               	.LASF276:
 9690 0672 5F42 6F6F 		.string	"_Bool"
 9690      6C00 
 9691               	.LASF103:
 9692 0678 4144 435F 		.string	"ADC_CH_GAIN_16X_gc"
 9692      4348 5F47 
 9692      4149 4E5F 
 9692      3136 585F 
 9692      6763 00
 9693               	.LASF189:
 9694 068b 4354 524C 		.string	"CTRLGSET"
 9694      4753 4554 
 9694      00
 9695               	.LASF134:
 9696 0694 4449 5253 		.string	"DIRSET"
 9696      4554 00
 9697               	.LASF264:
 9698 069b 5350 495F 		.string	"SPI_struct"
 9698      7374 7275 
 9698      6374 00
 9699               	.LASF52:
 9700 06a6 494E 5446 		.string	"INTFLAGS"
 9700      4C41 4753 
 9700      00
 9701               	.LASF336:
 9702 06af 7370 6952 		.string	"spiRxBuff"
 9702      7842 7566 
 9702      6600 
 9703               	.LASF335:
 9704 06b9 7370 6953 		.string	"spiSlaveC"
 9704      6C61 7665 
 9704      4300 
 9705               	.LASF40:
 9706 06c3 4446 4C4C 		.string	"DFLLCTRL"
 9706      4354 524C 
 9706      00
 9707               	.LASF219:
 9708 06cc 4849 5245 		.string	"HIRES_t"
 9708      535F 7400 
 9709               	.LASF315:
GAS LISTING /tmp/cc1O4Nc2.s 			page 180


 9710 06d4 5F5F 7665 		.string	"__vector_83"
 9710      6374 6F72 
 9710      5F38 3300 
 9711               	.LASF193:
 9712 06e0 7265 7365 		.string	"reserved_0x12"
 9712      7276 6564 
 9712      5F30 7831 
 9712      3200 
 9713               	.LASF63:
 9714 06ee 4348 3152 		.string	"CH1RES"
 9714      4553 00
 9715               	.LASF140:
 9716 06f5 494E 5430 		.string	"INT0MASK"
 9716      4D41 534B 
 9716      00
 9717               	.LASF151:
 9718 06fe 504F 5254 		.string	"PORT_t"
 9718      5F74 00
 9719               	.LASF330:
 9720 0705 6D6F 746F 		.string	"motor1Thresh"
 9720      7231 5468 
 9720      7265 7368 
 9720      00
 9721               	.LASF289:
 9722 0712 5F5F 7665 		.string	"__vector_111"
 9722      6374 6F72 
 9722      5F31 3131 
 9722      00
 9723               	.LASF232:
 9724 071f 5443 5F43 		.string	"TC_CLKSEL_EVCH3_gc"
 9724      4C4B 5345 
 9724      4C5F 4556 
 9724      4348 335F 
 9724      6763 00
 9725               	.LASF316:
 9726 0732 696E 6974 		.string	"initAdc"
 9726      4164 6300 
 9727               	.LASF37:
 9728 073a 584F 5343 		.string	"XOSCFAIL"
 9728      4641 494C 
 9728      00
 9729               	.LASF235:
 9730 0743 5443 5F43 		.string	"TC_CLKSEL_EVCH6_gc"
 9730      4C4B 5345 
 9730      4C5F 4556 
 9730      4348 365F 
 9730      6763 00
 9731               	.LASF332:
 9732 0756 6D6F 746F 		.string	"motor3Thresh"
 9732      7233 5468 
 9732      7265 7368 
 9732      00
 9733               	.LASF13:
 9734 0763 6368 6172 		.string	"char"
 9734      00
 9735               	.LASF238:
 9736 0768 5443 5F57 		.string	"TC_WGMODE_NORMAL_gc"
GAS LISTING /tmp/cc1O4Nc2.s 			page 181


 9736      474D 4F44 
 9736      455F 4E4F 
 9736      524D 414C 
 9736      5F67 6300 
 9737               	.LASF148:
 9738 077c 5049 4E35 		.string	"PIN5CTRL"
 9738      4354 524C 
 9738      00
 9739               	.LASF206:
 9740 0785 7265 7365 		.string	"reserved_0x31"
 9740      7276 6564 
 9740      5F30 7833 
 9740      3100 
 9741               	.LASF19:
 9742 0793 5053 4354 		.string	"PSCTRL"
 9742      524C 00
 9743               	.LASF326:
 9744 079a 6D6F 746F 		.string	"motor3State"
 9744      7233 5374 
 9744      6174 6500 
 9745               	.LASF130:
 9746 07a6 4144 435F 		.string	"ADC_PRESCALER_DIV128_gc"
 9746      5052 4553 
 9746      4341 4C45 
 9746      525F 4449 
 9746      5631 3238 
 9747               	.LASF133:
 9748 07be 504F 5254 		.string	"PORT_struct"
 9748      5F73 7472 
 9748      7563 7400 
 9749               	.LASF4:
 9750 07ca 7569 6E74 		.string	"uint8_t"
 9750      385F 7400 
 9751               	.LASF266:
 9752 07d2 5350 495F 		.string	"SPI_MODE_enum"
 9752      4D4F 4445 
 9752      5F65 6E75 
 9752      6D00 
 9753               	.LASF92:
 9754 07e0 4144 435F 		.string	"ADC_t"
 9754      7400 
 9755               	.LASF188:
 9756 07e6 4354 524C 		.string	"CTRLGCLR"
 9756      4743 4C52 
 9756      00
 9757               	.LASF72:
 9758 07ef 4144 435F 		.string	"ADC_struct"
 9758      7374 7275 
 9758      6374 00
 9759               	.LASF145:
 9760 07fa 5049 4E32 		.string	"PIN2CTRL"
 9760      4354 524C 
 9760      00
 9761               	.LASF122:
 9762 0803 4144 435F 		.string	"ADC_CH_INTLVL_MED_gc"
 9762      4348 5F49 
 9762      4E54 4C56 
GAS LISTING /tmp/cc1O4Nc2.s 			page 182


 9762      4C5F 4D45 
 9762      445F 6763 
 9763               	.LASF319:
 9764 0818 7065 7269 		.string	"period"
 9764      6F64 00
 9765               	.LASF77:
 9766 081f 5052 4553 		.string	"PRESCALER"
 9766      4341 4C45 
 9766      5200 
 9767               	.LASF231:
 9768 0829 5443 5F43 		.string	"TC_CLKSEL_EVCH2_gc"
 9768      4C4B 5345 
 9768      4C5F 4556 
 9768      4348 325F 
 9768      6763 00
 9769               	.LASF221:
 9770 083c 5443 5F43 		.string	"TC_CLKSEL_OFF_gc"
 9770      4C4B 5345 
 9770      4C5F 4F46 
 9770      465F 6763 
 9770      00
 9771               	.LASF220:
 9772 084d 5443 5F43 		.string	"TC_CLKSEL_enum"
 9772      4C4B 5345 
 9772      4C5F 656E 
 9772      756D 00
 9773               	.LASF265:
 9774 085c 5350 495F 		.string	"SPI_t"
 9774      7400 
 9775               	.LASF285:
 9776 0862 5F5F 7469 		.string	"__ticks"
 9776      636B 7300 
 9777               	.LASF96:
 9778 086a 4144 435F 		.string	"ADC_CH_INPUTMODE_DIFF_gc"
 9778      4348 5F49 
 9778      4E50 5554 
 9778      4D4F 4445 
 9778      5F44 4946 
 9779               	.LASF25:
 9780 0883 434C 4B5F 		.string	"CLK_SCLKSEL_RC32M_gc"
 9780      5343 4C4B 
 9780      5345 4C5F 
 9780      5243 3332 
 9780      4D5F 6763 
 9781               	.LASF7:
 9782 0898 6C6F 6E67 		.string	"long long int"
 9782      206C 6F6E 
 9782      6720 696E 
 9782      7400 
 9783               	.LASF120:
 9784 08a6 4144 435F 		.string	"ADC_CH_INTLVL_OFF_gc"
 9784      4348 5F49 
 9784      4E54 4C56 
 9784      4C5F 4F46 
 9784      465F 6763 
 9785               	.LASF256:
 9786 08bb 4849 5245 		.string	"HIRES_HREN_TC0_gc"
GAS LISTING /tmp/cc1O4Nc2.s 			page 183


 9786      535F 4852 
 9786      454E 5F54 
 9786      4330 5F67 
 9786      6300 
 9787               	.LASF117:
 9788 08cd 4144 435F 		.string	"ADC_CH_INTMODE_BELOW_gc"
 9788      4348 5F49 
 9788      4E54 4D4F 
 9788      4445 5F42 
 9788      454C 4F57 
 9789               	.LASF115:
 9790 08e5 4144 435F 		.string	"ADC_CH_INTMODE_enum"
 9790      4348 5F49 
 9790      4E54 4D4F 
 9790      4445 5F65 
 9790      6E75 6D00 
 9791               	.LASF312:
 9792 08f9 636F 6E66 		.string	"configDelayTimer"
 9792      6967 4465 
 9792      6C61 7954 
 9792      696D 6572 
 9792      00
 9793               	.LASF243:
 9794 090a 5443 5F57 		.string	"TC_WGMODE_DS_B_gc"
 9794      474D 4F44 
 9794      455F 4453 
 9794      5F42 5F67 
 9794      6300 
 9795               	.LASF33:
 9796 091c 434C 4B5F 		.string	"CLK_PSBCDIV_2_2_gc"
 9796      5053 4243 
 9796      4449 565F 
 9796      325F 325F 
 9796      6763 00
 9797               	.LASF69:
 9798 092f 4348 3352 		.string	"CH3RES"
 9798      4553 00
 9799               	.LASF190:
 9800 0936 5445 4D50 		.string	"TEMP"
 9800      00
 9801               	.LASF174:
 9802 093b 4343 4342 		.string	"CCCBUFH"
 9802      5546 4800 
 9803               	.LASF108:
 9804 0943 4144 435F 		.string	"ADC_RESOLUTION_8BIT_gc"
 9804      5245 534F 
 9804      4C55 5449 
 9804      4F4E 5F38 
 9804      4249 545F 
 9805               	.LASF125:
 9806 095a 4144 435F 		.string	"ADC_PRESCALER_DIV4_gc"
 9806      5052 4553 
 9806      4341 4C45 
 9806      525F 4449 
 9806      5634 5F67 
 9807               	.LASF173:
 9808 0970 4343 4342 		.string	"CCCBUFL"
GAS LISTING /tmp/cc1O4Nc2.s 			page 184


 9808      5546 4C00 
 9809               	.LASF101:
 9810 0978 4144 435F 		.string	"ADC_CH_GAIN_4X_gc"
 9810      4348 5F47 
 9810      4149 4E5F 
 9810      3458 5F67 
 9810      6300 
 9811               	.LASF113:
 9812 098a 4144 435F 		.string	"ADC_REFSEL_AREFA_gc"
 9812      5245 4653 
 9812      454C 5F41 
 9812      5245 4641 
 9812      5F67 6300 
 9813               	.LASF234:
 9814 099e 5443 5F43 		.string	"TC_CLKSEL_EVCH5_gc"
 9814      4C4B 5345 
 9814      4C5F 4556 
 9814      4348 355F 
 9814      6763 00
 9815               	.LASF165:
 9816 09b1 5045 5242 		.string	"PERBUFH"
 9816      5546 4800 
 9817               	.LASF16:
 9818 09b9 5F5F 6669 		.string	"__file"
 9818      6C65 00
 9819               	.LASF11:
 9820 09c0 7369 7A65 		.string	"size"
 9820      00
 9821               	.LASF305:
 9822 09c5 7365 744D 		.string	"setMotor2State"
 9822      6F74 6F72 
 9822      3253 7461 
 9822      7465 00
 9823               	.LASF51:
 9824 09d4 494E 5443 		.string	"INTCTRL"
 9824      5452 4C00 
 9825               	.LASF268:
 9826 09dc 5350 495F 		.string	"SPI_MODE_1_gc"
 9826      4D4F 4445 
 9826      5F31 5F67 
 9826      6300 
 9827               	.LASF93:
 9828 09ea 4144 435F 		.string	"ADC_CH_INPUTMODE_enum"
 9828      4348 5F49 
 9828      4E50 5554 
 9828      4D4F 4445 
 9828      5F65 6E75 
 9829               	.LASF228:
 9830 0a00 5443 5F43 		.string	"TC_CLKSEL_DIV1024_gc"
 9830      4C4B 5345 
 9830      4C5F 4449 
 9830      5631 3032 
 9830      345F 6763 
 9831               	.LASF99:
 9832 0a15 4144 435F 		.string	"ADC_CH_GAIN_1X_gc"
 9832      4348 5F47 
 9832      4149 4E5F 
GAS LISTING /tmp/cc1O4Nc2.s 			page 185


 9832      3158 5F67 
 9832      6300 
 9833               	.LASF247:
 9834 0a27 5443 5F4F 		.string	"TC_OVFINTLVL_MED_gc"
 9834      5646 494E 
 9834      544C 564C 
 9834      5F4D 4544 
 9834      5F67 6300 
 9835               	.LASF123:
 9836 0a3b 4144 435F 		.string	"ADC_CH_INTLVL_HI_gc"
 9836      4348 5F49 
 9836      4E54 4C56 
 9836      4C5F 4849 
 9836      5F67 6300 
 9837               	.LASF258:
 9838 0a4f 4849 5245 		.string	"HIRES_HREN_BOTH_gc"
 9838      535F 4852 
 9838      454E 5F42 
 9838      4F54 485F 
 9838      6763 00
 9839               	.LASF32:
 9840 0a62 434C 4B5F 		.string	"CLK_PSBCDIV_4_1_gc"
 9840      5053 4243 
 9840      4449 565F 
 9840      345F 315F 
 9840      6763 00
 9841               	.LASF224:
 9842 0a75 5443 5F43 		.string	"TC_CLKSEL_DIV4_gc"
 9842      4C4B 5345 
 9842      4C5F 4449 
 9842      5634 5F67 
 9842      6300 
 9843               	.LASF172:
 9844 0a87 4343 4242 		.string	"CCBBUF"
 9844      5546 00
 9845               	.LASF41:
 9846 0a8e 4F53 435F 		.string	"OSC_PLLSRC_enum"
 9846      504C 4C53 
 9846      5243 5F65 
 9846      6E75 6D00 
 9847               	.LASF288:
 9848 0a9e 5F5F 7665 		.string	"__vector_110"
 9848      6374 6F72 
 9848      5F31 3130 
 9848      00
 9849               	.LASF136:
 9850 0aab 4449 5254 		.string	"DIRTGL"
 9850      474C 00
 9851               	.LASF290:
 9852 0ab2 5F5F 7665 		.string	"__vector_112"
 9852      6374 6F72 
 9852      5F31 3132 
 9852      00
 9853               	.LASF291:
 9854 0abf 5F5F 7665 		.string	"__vector_113"
 9854      6374 6F72 
 9854      5F31 3133 
GAS LISTING /tmp/cc1O4Nc2.s 			page 186


 9854      00
 9855               	.LASF340:
 9856 0acc 474E 5520 		.string	"GNU C 4.3.4"
 9856      4320 342E 
 9856      332E 3400 
 9857               	.LASF5:
 9858 0ad8 7569 6E74 		.string	"uint16_t"
 9858      3136 5F74 
 9858      00
 9859               	.LASF116:
 9860 0ae1 4144 435F 		.string	"ADC_CH_INTMODE_COMPLETE_gc"
 9860      4348 5F49 
 9860      4E54 4D4F 
 9860      4445 5F43 
 9860      4F4D 504C 
 9861               	.LASF337:
 9862 0afc 7370 6952 		.string	"spiRxBuffHead"
 9862      7842 7566 
 9862      6648 6561 
 9862      6400 
 9863               	.LASF62:
 9864 0b0a 4348 3152 		.string	"CH1RESH"
 9864      4553 4800 
 9865               	.LASF344:
 9866 0b12 6D61 696E 		.string	"main"
 9866      00
 9867               	.LASF61:
 9868 0b17 4348 3152 		.string	"CH1RESL"
 9868      4553 4C00 
 9869               	.LASF73:
 9870 0b1f 4354 524C 		.string	"CTRLA"
 9870      4100 
 9871               	.LASF74:
 9872 0b25 4354 524C 		.string	"CTRLB"
 9872      4200 
 9873               	.LASF180:
 9874 0b2b 4354 524C 		.string	"CTRLC"
 9874      4300 
 9875               	.LASF181:
 9876 0b31 4354 524C 		.string	"CTRLD"
 9876      4400 
 9877               	.LASF182:
 9878 0b37 4354 524C 		.string	"CTRLE"
 9878      4500 
 9879               	.LASF49:
 9880 0b3d 4144 435F 		.string	"ADC_CH_struct"
 9880      4348 5F73 
 9880      7472 7563 
 9880      7400 
 9881               	.LASF311:
 9882 0b4b 7374 6172 		.string	"startup"
 9882      7475 7000 
 9883               	.LASF28:
 9884 0b53 434C 4B5F 		.string	"CLK_SCLKSEL_PLL_gc"
 9884      5343 4C4B 
 9884      5345 4C5F 
 9884      504C 4C5F 
GAS LISTING /tmp/cc1O4Nc2.s 			page 187


 9884      6763 00
 9885               	.LASF281:
 9886 0b66 5F64 656C 		.string	"_delay_loop_2"
 9886      6179 5F6C 
 9886      6F6F 705F 
 9886      3200 
 9887               	.LASF118:
 9888 0b74 4144 435F 		.string	"ADC_CH_INTMODE_ABOVE_gc"
 9888      4348 5F49 
 9888      4E54 4D4F 
 9888      4445 5F41 
 9888      424F 5645 
 9889               	.LASF137:
 9890 0b8c 4F55 5453 		.string	"OUTSET"
 9890      4554 00
 9891               	.LASF245:
 9892 0b93 5443 5F4F 		.string	"TC_OVFINTLVL_OFF_gc"
 9892      5646 494E 
 9892      544C 564C 
 9892      5F4F 4646 
 9892      5F67 6300 
 9893               	.LASF146:
 9894 0ba7 5049 4E33 		.string	"PIN3CTRL"
 9894      4354 524C 
 9894      00
 9895               	.LASF45:
 9896 0bb0 504D 4943 		.string	"PMIC_struct"
 9896      5F73 7472 
 9896      7563 7400 
 9897               	.LASF328:
 9898 0bbc 7374 6174 		.string	"stateSlope"
 9898      6553 6C6F 
 9898      7065 00
 9899               	.LASF1:
 9900 0bc7 6C6F 6E67 		.string	"long int"
 9900      2069 6E74 
 9900      00
 9901               	.LASF50:
 9902 0bd0 4D55 5843 		.string	"MUXCTRL"
 9902      5452 4C00 
 9903               	.LASF76:
 9904 0bd8 4556 4354 		.string	"EVCTRL"
 9904      524C 00
 9905               	.LASF277:
 9906 0bdf 5350 495F 		.string	"SPI_Slave"
 9906      536C 6176 
 9906      6500 
 9907               	.LASF249:
 9908 0be9 5443 5F43 		.string	"TC_CCBINTLVL_enum"
 9908      4342 494E 
 9908      544C 564C 
 9908      5F65 6E75 
 9908      6D00 
 9909               	.LASF253:
 9910 0bfb 5443 5F43 		.string	"TC_CCBINTLVL_HI_gc"
 9910      4342 494E 
 9910      544C 564C 
GAS LISTING /tmp/cc1O4Nc2.s 			page 188


 9910      5F48 495F 
 9910      6763 00
 9911               	.LASF236:
 9912 0c0e 5443 5F43 		.string	"TC_CLKSEL_EVCH7_gc"
 9912      4C4B 5345 
 9912      4C5F 4556 
 9912      4348 375F 
 9912      6763 00
 9913               	.LASF97:
 9914 0c21 4144 435F 		.string	"ADC_CH_INPUTMODE_DIFFWGAIN_gc"
 9914      4348 5F49 
 9914      4E50 5554 
 9914      4D4F 4445 
 9914      5F44 4946 
 9915               	.LASF138:
 9916 0c3f 4F55 5443 		.string	"OUTCLR"
 9916      4C52 00
 9917               	.LASF211:
 9918 0c46 5443 305F 		.string	"TC0_t"
 9918      7400 
 9919               	.LASF150:
 9920 0c4c 5049 4E37 		.string	"PIN7CTRL"
 9920      4354 524C 
 9920      00
 9921               	.LASF227:
 9922 0c55 5443 5F43 		.string	"TC_CLKSEL_DIV256_gc"
 9922      4C4B 5345 
 9922      4C5F 4449 
 9922      5632 3536 
 9922      5F67 6300 
 9923               	.LASF244:
 9924 0c69 5443 5F4F 		.string	"TC_OVFINTLVL_enum"
 9924      5646 494E 
 9924      544C 564C 
 9924      5F65 6E75 
 9924      6D00 
 9925               	.LASF255:
 9926 0c7b 4849 5245 		.string	"HIRES_HREN_NONE_gc"
 9926      535F 4852 
 9926      454E 5F4E 
 9926      4F4E 455F 
 9926      6763 00
 9927               	.LASF270:
 9928 0c8e 5350 495F 		.string	"SPI_MODE_3_gc"
 9928      4D4F 4445 
 9928      5F33 5F67 
 9928      6300 
 9929               	.LASF307:
 9930 0c9c 7365 744D 		.string	"setMotor4State"
 9930      6F74 6F72 
 9930      3453 7461 
 9930      7465 00
 9931               	.LASF248:
 9932 0cab 5443 5F4F 		.string	"TC_OVFINTLVL_HI_gc"
 9932      5646 494E 
 9932      544C 564C 
 9932      5F48 495F 
GAS LISTING /tmp/cc1O4Nc2.s 			page 189


 9932      6763 00
 9933               	.LASF152:
 9934 0cbe 434E 544C 		.string	"CNTL"
 9934      00
 9935               	.LASF14:
 9936 0cc3 4343 505F 		.string	"CCP_SPM_gc"
 9936      5350 4D5F 
 9936      6763 00
 9937               	.LASF338:
 9938 0cce 7374 6172 		.string	"startupPwms"
 9938      7475 7050 
 9938      776D 7300 
 9939               	.LASF48:
 9940 0cda 5245 5348 		.string	"RESH"
 9940      00
 9941               	.LASF251:
 9942 0cdf 5443 5F43 		.string	"TC_CCBINTLVL_LO_gc"
 9942      4342 494E 
 9942      544C 564C 
 9942      5F4C 4F5F 
 9942      6763 00
 9943               	.LASF263:
 9944 0cf2 4241 5544 		.string	"BAUDCTRLB"
 9944      4354 524C 
 9944      4200 
 9945               	.LASF47:
 9946 0cfc 5245 534C 		.string	"RESL"
 9946      00
 9947               	.LASF176:
 9948 0d01 4343 4442 		.string	"CCDBUFL"
 9948      5546 4C00 
 9949               	.LASF147:
 9950 0d09 5049 4E34 		.string	"PIN4CTRL"
 9950      4354 524C 
 9950      00
 9951               	.LASF178:
 9952 0d12 4343 4442 		.string	"CCDBUF"
 9952      5546 00
 9953               	.LASF29:
 9954 0d19 434C 4B5F 		.string	"CLK_PSBCDIV_enum"
 9954      5053 4243 
 9954      4449 565F 
 9954      656E 756D 
 9954      00
 9955               	.LASF187:
 9956 0d2a 4354 524C 		.string	"CTRLFSET"
 9956      4653 4554 
 9956      00
 9957               	.LASF111:
 9958 0d33 4144 435F 		.string	"ADC_REFSEL_INT1V_gc"
 9958      5245 4653 
 9958      454C 5F49 
 9958      4E54 3156 
 9958      5F67 6300 
 9959               	.LASF107:
 9960 0d47 4144 435F 		.string	"ADC_RESOLUTION_12BIT_gc"
 9960      5245 534F 
GAS LISTING /tmp/cc1O4Nc2.s 			page 190


 9960      4C55 5449 
 9960      4F4E 5F31 
 9960      3242 4954 
 9961               	.LASF179:
 9962 0d5f 5443 305F 		.string	"TC0_struct"
 9962      7374 7275 
 9962      6374 00
 9963               	.LASF6:
 9964 0d6a 6C6F 6E67 		.string	"long unsigned int"
 9964      2075 6E73 
 9964      6967 6E65 
 9964      6420 696E 
 9964      7400 
 9965               	.LASF60:
 9966 0d7c 4348 3052 		.string	"CH0RES"
 9966      4553 00
 9967               	.LASF36:
 9968 0d83 584F 5343 		.string	"XOSCCTRL"
 9968      4354 524C 
 9968      00
 9969               	.LASF279:
 9970 0d8c 706F 7274 		.string	"port"
 9970      00
 9971               	.LASF24:
 9972 0d91 434C 4B5F 		.string	"CLK_SCLKSEL_RC2M_gc"
 9972      5343 4C4B 
 9972      5345 4C5F 
 9972      5243 324D 
 9972      5F67 6300 
 9973               	.LASF246:
 9974 0da5 5443 5F4F 		.string	"TC_OVFINTLVL_LO_gc"
 9974      5646 494E 
 9974      544C 564C 
 9974      5F4C 4F5F 
 9974      6763 00
 9975               	.LASF109:
 9976 0db8 4144 435F 		.string	"ADC_RESOLUTION_LEFT12BIT_gc"
 9976      5245 534F 
 9976      4C55 5449 
 9976      4F4E 5F4C 
 9976      4546 5431 
 9977               	.LASF144:
 9978 0dd4 5049 4E31 		.string	"PIN1CTRL"
 9978      4354 524C 
 9978      00
 9979               	.LASF164:
 9980 0ddd 5045 5242 		.string	"PERBUFL"
 9980      5546 4C00 
 9981               	.LASF110:
 9982 0de5 4144 435F 		.string	"ADC_REFSEL_enum"
 9982      5245 4653 
 9982      454C 5F65 
 9982      6E75 6D00 
 9983               	.LASF94:
 9984 0df5 4144 435F 		.string	"ADC_CH_INPUTMODE_INTERNAL_gc"
 9984      4348 5F49 
 9984      4E50 5554 
GAS LISTING /tmp/cc1O4Nc2.s 			page 191


 9984      4D4F 4445 
 9984      5F49 4E54 
 9985               	.LASF3:
 9986 0e12 756E 7369 		.string	"unsigned char"
 9986      676E 6564 
 9986      2063 6861 
 9986      7200 
 9987               	.LASF262:
 9988 0e20 4241 5544 		.string	"BAUDCTRLA"
 9988      4354 524C 
 9988      4100 
 9989               	.LASF250:
 9990 0e2a 5443 5F43 		.string	"TC_CCBINTLVL_OFF_gc"
 9990      4342 494E 
 9990      544C 564C 
 9990      5F4F 4646 
 9990      5F67 6300 
 9991               	.LASF331:
 9992 0e3e 6D6F 746F 		.string	"motor2Thresh"
 9992      7232 5468 
 9992      7265 7368 
 9992      00
 9993               	.LASF126:
 9994 0e4b 4144 435F 		.string	"ADC_PRESCALER_DIV8_gc"
 9994      5052 4553 
 9994      4341 4C45 
 9994      525F 4449 
 9994      5638 5F67 
 9995               	.LASF252:
 9996 0e61 5443 5F43 		.string	"TC_CCBINTLVL_MED_gc"
 9996      4342 494E 
 9996      544C 564C 
 9996      5F4D 4544 
 9996      5F67 6300 
 9997               	.LASF304:
 9998 0e75 7374 6174 		.string	"state"
 9998      6500 
 9999               	.LASF329:
 10000 0e7b 6D6F 746F 		.string	"motor2StateSenseIndex"
 10000      7232 5374 
 10000      6174 6553 
 10000      656E 7365 
 10000      496E 6465 
 10001               	.LASF325:
 10002 0e91 6D6F 746F 		.string	"motor2State"
 10002      7232 5374 
 10002      6174 6500 
 10003               	.LASF42:
 10004 0e9d 4F53 435F 		.string	"OSC_PLLSRC_RC2M_gc"
 10004      504C 4C53 
 10004      5243 5F52 
 10004      4332 4D5F 
 10004      6763 00
 10005               	.LASF186:
 10006 0eb0 4354 524C 		.string	"CTRLFCLR"
 10006      4643 4C52 
 10006      00
GAS LISTING /tmp/cc1O4Nc2.s 			page 192


 10007               	.LASF171:
 10008 0eb9 4343 4242 		.string	"CCBBUFH"
 10008      5546 4800 
 10009               	.LASF240:
 10010 0ec1 5443 5F57 		.string	"TC_WGMODE_SS_gc"
 10010      474D 4F44 
 10010      455F 5353 
 10010      5F67 6300 
 10011               	.LASF170:
 10012 0ed1 4343 4242 		.string	"CCBBUFL"
 10012      5546 4C00 
 10013               	.LASF242:
 10014 0ed9 5443 5F57 		.string	"TC_WGMODE_DS_TB_gc"
 10014      474D 4F44 
 10014      455F 4453 
 10014      5F54 425F 
 10014      6763 00
 10015               	.LASF261:
 10016 0eec 7265 7365 		.string	"reserved_0x02"
 10016      7276 6564 
 10016      5F30 7830 
 10016      3200 
 10017               	.LASF183:
 10018 0efa 7265 7365 		.string	"reserved_0x05"
 10018      7276 6564 
 10018      5F30 7830 
 10018      3500 
 10019               	.LASF79:
 10020 0f08 7265 7365 		.string	"reserved_0x07"
 10020      7276 6564 
 10020      5F30 7830 
 10020      3700 
 10021               	.LASF80:
 10022 0f16 7265 7365 		.string	"reserved_0x08"
 10022      7276 6564 
 10022      5F30 7830 
 10022      3800 
 10023               	.LASF81:
 10024 0f24 7265 7365 		.string	"reserved_0x09"
 10024      7276 6564 
 10024      5F30 7830 
 10024      3900 
 10025               	.LASF82:
 10026 0f32 7265 7365 		.string	"reserved_0x0A"
 10026      7276 6564 
 10026      5F30 7830 
 10026      4100 
 10027               	.LASF83:
 10028 0f40 7265 7365 		.string	"reserved_0x0B"
 10028      7276 6564 
 10028      5F30 7830 
 10028      4200 
 10029               	.LASF254:
 10030 0f4e 4849 5245 		.string	"HIRES_HREN_enum"
 10030      535F 4852 
 10030      454E 5F65 
 10030      6E75 6D00 
GAS LISTING /tmp/cc1O4Nc2.s 			page 193


 10031               	.LASF142:
 10032 0f5e 7265 7365 		.string	"reserved_0x0D"
 10032      7276 6564 
 10032      5F30 7830 
 10032      4400 
 10033               	.LASF2:
 10034 0f6c 7369 676E 		.string	"signed char"
 10034      6564 2063 
 10034      6861 7200 
 10035               	.LASF225:
 10036 0f78 5443 5F43 		.string	"TC_CLKSEL_DIV8_gc"
 10036      4C4B 5345 
 10036      4C5F 4449 
 10036      5638 5F67 
 10036      6300 
 10037               	.LASF342:
 10038 0f8a 2F68 6F6D 		.string	"/home/tomlinsj/falconSvn/44x201007/firmware/mcu/chb_motor_test"
 10038      652F 746F 
 10038      6D6C 696E 
 10038      736A 2F66 
 10038      616C 636F 
 10039               	.LASF286:
 10040 0fc9 5F5F 746D 		.string	"__tmp"
 10040      7000 
 10041               	.LASF303:
 10042 0fcf 7365 744D 		.string	"setMotor1State"
 10042      6F74 6F72 
 10042      3153 7461 
 10042      7465 00
 10043               	.LASF95:
 10044 0fde 4144 435F 		.string	"ADC_CH_INPUTMODE_SINGLEENDED_gc"
 10044      4348 5F49 
 10044      4E50 5554 
 10044      4D4F 4445 
 10044      5F53 494E 
 10045               	.LASF68:
 10046 0ffe 4348 3352 		.string	"CH3RESH"
 10046      4553 4800 
 10047               	.LASF12:
 10048 1006 7564 6174 		.string	"udata"
 10048      6100 
 10049               	.LASF67:
 10050 100c 4348 3352 		.string	"CH3RESL"
 10050      4553 4C00 
 10051               	.LASF287:
 10052 1014 646F 7562 		.string	"double"
 10052      6C65 00
 10053               	.LASF43:
 10054 101b 4F53 435F 		.string	"OSC_PLLSRC_RC32M_gc"
 10054      504C 4C53 
 10054      5243 5F52 
 10054      4333 324D 
 10054      5F67 6300 
 10055               	.LASF112:
 10056 102f 4144 435F 		.string	"ADC_REFSEL_VCC_gc"
 10056      5245 4653 
 10056      454C 5F56 
GAS LISTING /tmp/cc1O4Nc2.s 			page 194


 10056      4343 5F67 
 10056      6300 
 10057               	.LASF66:
 10058 1041 4348 3252 		.string	"CH2RES"
 10058      4553 00
 10059               	.LASF35:
 10060 1048 5354 4154 		.string	"STATUS"
 10060      5553 00
 10061               	.LASF131:
 10062 104f 4144 435F 		.string	"ADC_PRESCALER_DIV256_gc"
 10062      5052 4553 
 10062      4341 4C45 
 10062      525F 4449 
 10062      5632 3536 
 10063               	.LASF191:
 10064 1067 7265 7365 		.string	"reserved_0x10"
 10064      7276 6564 
 10064      5F30 7831 
 10064      3000 
 10065               	.LASF192:
 10066 1075 7265 7365 		.string	"reserved_0x11"
 10066      7276 6564 
 10066      5F30 7831 
 10066      3100 
 10067               	.LASF310:
 10068 1083 7072 6F63 		.string	"processSpiRxBuff"
 10068      6573 7353 
 10068      7069 5278 
 10068      4275 6666 
 10068      00
 10069               	.LASF194:
 10070 1094 7265 7365 		.string	"reserved_0x13"
 10070      7276 6564 
 10070      5F30 7831 
 10070      3300 
 10071               	.LASF195:
 10072 10a2 7265 7365 		.string	"reserved_0x14"
 10072      7276 6564 
 10072      5F30 7831 
 10072      3400 
 10073               	.LASF196:
 10074 10b0 7265 7365 		.string	"reserved_0x15"
 10074      7276 6564 
 10074      5F30 7831 
 10074      3500 
 10075               	.LASF197:
 10076 10be 7265 7365 		.string	"reserved_0x16"
 10076      7276 6564 
 10076      5F30 7831 
 10076      3600 
 10077               	.LASF198:
 10078 10cc 7265 7365 		.string	"reserved_0x17"
 10078      7276 6564 
 10078      5F30 7831 
 10078      3700 
 10079               	.LASF199:
 10080 10da 7265 7365 		.string	"reserved_0x18"
GAS LISTING /tmp/cc1O4Nc2.s 			page 195


 10080      7276 6564 
 10080      5F30 7831 
 10080      3800 
 10081               	.LASF200:
 10082 10e8 7265 7365 		.string	"reserved_0x19"
 10082      7276 6564 
 10082      5F30 7831 
 10082      3900 
 10083               	.LASF233:
 10084 10f6 5443 5F43 		.string	"TC_CLKSEL_EVCH4_gc"
 10084      4C4B 5345 
 10084      4C5F 4556 
 10084      4348 345F 
 10084      6763 00
 10085               	.LASF153:
 10086 1109 434E 5448 		.string	"CNTH"
 10086      00
 10087               	.LASF257:
 10088 110e 4849 5245 		.string	"HIRES_HREN_TC1_gc"
 10088      535F 4852 
 10088      454E 5F54 
 10088      4331 5F67 
 10088      6300 
 10089               	.LASF86:
 10090 1120 7265 7365 		.string	"reserved_0x1A"
 10090      7276 6564 
 10090      5F30 7831 
 10090      4100 
 10091               	.LASF87:
 10092 112e 7265 7365 		.string	"reserved_0x1B"
 10092      7276 6564 
 10092      5F30 7831 
 10092      4200 
 10093               	.LASF88:
 10094 113c 7265 7365 		.string	"reserved_0x1C"
 10094      7276 6564 
 10094      5F30 7831 
 10094      4300 
 10095               	.LASF292:
 10096 114a 5F5F 7665 		.string	"__vector_108"
 10096      6374 6F72 
 10096      5F31 3038 
 10096      00
 10097               	.LASF91:
 10098 1157 7265 7365 		.string	"reserved_0x1F"
 10098      7276 6564 
 10098      5F30 7831 
 10098      4600 
 10099               	.LASF272:
 10100 1165 5350 495F 		.string	"SPI_INTLVL_OFF_gc"
 10100      494E 544C 
 10100      564C 5F4F 
 10100      4646 5F67 
 10100      6300 
 10101               	.LASF59:
 10102 1177 4348 3052 		.string	"CH0RESH"
 10102      4553 4800 
GAS LISTING /tmp/cc1O4Nc2.s 			page 196


 10103               	.LASF58:
 10104 117f 4348 3052 		.string	"CH0RESL"
 10104      4553 4C00 
 10105               	.LASF75:
 10106 1187 5245 4643 		.string	"REFCTRL"
 10106      5452 4C00 
 10107               	.LASF308:
 10108 118f 7374 7265 		.string	"stream"
 10108      616D 00
 10109               	.LASF18:
 10110 1196 4354 524C 		.string	"CTRL"
 10110      00
 10111               	.global __do_copy_data
 10112               	.global __do_clear_bss
GAS LISTING /tmp/cc1O4Nc2.s 			page 197


DEFINED SYMBOLS
                            *ABS*:00000000 main.c
     /tmp/cc1O4Nc2.s:2      *ABS*:0000003f __SREG__
     /tmp/cc1O4Nc2.s:3      *ABS*:0000003e __SP_H__
     /tmp/cc1O4Nc2.s:4      *ABS*:0000003d __SP_L__
     /tmp/cc1O4Nc2.s:5      *ABS*:00000034 __CCP__
     /tmp/cc1O4Nc2.s:6      *ABS*:00000000 __tmp_reg__
     /tmp/cc1O4Nc2.s:7      *ABS*:00000001 __zero_reg__
     /tmp/cc1O4Nc2.s:18     .text:00000000 __vector_110
     /tmp/cc1O4Nc2.s:59     .text:00000038 __vector_111
     /tmp/cc1O4Nc2.s:110    .text:00000080 __vector_112
     /tmp/cc1O4Nc2.s:161    .text:000000c8 __vector_113
     /tmp/cc1O4Nc2.s:202    .text:00000100 __vector_108
     /tmp/cc1O4Nc2.s:257    .text:0000014c __vector_49
     /tmp/cc1O4Nc2.s:278    .text:00000160 __vector_50
     /tmp/cc1O4Nc2.s:2169   .bss:00000001 motor2State
     /tmp/cc1O4Nc2.s:2197   .data:00000006 motor2StateSenseIndex
     /tmp/cc1O4Nc2.s:330    .text:000001b0 __vector_51
     /tmp/cc1O4Nc2.s:351    .text:000001c4 __vector_52
     /tmp/cc1O4Nc2.s:372    .text:000001d8 __vector_47
     /tmp/cc1O4Nc2.s:393    .text:000001ec configMotTimer0
     /tmp/cc1O4Nc2.s:406    .text:000001ee configMotTimer1
     /tmp/cc1O4Nc2.s:419    .text:000001f0 __vector_22
     /tmp/cc1O4Nc2.s:440    .text:00000204 __vector_55
     /tmp/cc1O4Nc2.s:461    .text:00000218 __vector_79
     /tmp/cc1O4Nc2.s:482    .text:0000022c setMotor1State
     /tmp/cc1O4Nc2.s:495    .text:0000022e setMotor2State
     /tmp/cc1O4Nc2.s:700    .text:0000039a setMotor3State
     /tmp/cc1O4Nc2.s:713    .text:0000039c setMotor4State
     /tmp/cc1O4Nc2.s:725    .text:0000039e putcharDebug
     /tmp/cc1O4Nc2.s:763    .text:000003c2 __vector_24
     /tmp/cc1O4Nc2.s:2240   .bss:00000008 spiSlaveC
     /tmp/cc1O4Nc2.s:2246   .bss:0000000c spiRxBuffHead
                            *COM*:00000014 spiRxBuff
     /tmp/cc1O4Nc2.s:806    .text:00000406 processSpiRxBuff
     /tmp/cc1O4Nc2.s:912    .text:0000045a startup
     /tmp/cc1O4Nc2.s:2252   .data:0000000d startupPwms
     /tmp/cc1O4Nc2.s:2262   .data:00000019 startupDelays
     /tmp/cc1O4Nc2.s:1524   .text:00000810 configDelayTimer
     /tmp/cc1O4Nc2.s:1558   .text:00000836 __vector_72
     /tmp/cc1O4Nc2.s:2187   .data:00000000 stateSlope
     /tmp/cc1O4Nc2.s:2215   .data:0000000c motor2Thresh
     /tmp/cc1O4Nc2.s:1676   .text:000008fa __vector_83
     /tmp/cc1O4Nc2.s:1758   .text:00000982 initAdc
     /tmp/cc1O4Nc2.s:1849   .text:00000a02 configHalfPWMTimer
     /tmp/cc1O4Nc2.s:1921   .text:00000a6e configPWM
     /tmp/cc1O4Nc2.s:1993   .text:00000ada configClock
     /tmp/cc1O4Nc2.s:2038   .text:00000b1a main
     /tmp/cc1O4Nc2.s:2271   .data:0000001f debug
     /tmp/cc1O4Nc2.s:2163   .bss:00000000 motor1State
     /tmp/cc1O4Nc2.s:2175   .bss:00000002 motor3State
     /tmp/cc1O4Nc2.s:2181   .bss:00000003 motor4State
     /tmp/cc1O4Nc2.s:2209   .bss:00000004 motor1Thresh
     /tmp/cc1O4Nc2.s:2222   .bss:00000005 motor3Thresh
     /tmp/cc1O4Nc2.s:2228   .bss:00000006 motor4Thresh
     /tmp/cc1O4Nc2.s:2234   .bss:00000007 autoCommutationFlag

GAS LISTING /tmp/cc1O4Nc2.s 			page 198


UNDEFINED SYMBOLS
TC1_ConfigClockSource
TC0_ConfigWGM
TC0_ConfigClockSource
TC1_SetOverflowIntLevel
ADC_CalibrationValues_Load
ADC_Wait_32MHz
TC0_EnableCCChannels
TC0_SetCCBIntLevel
TC0_SetOverflowIntLevel
HIRES_Enable
CLKSYS_PLL_Config
CLKSYS_Main_ClockSource_Select
__iob
SPI_SlaveInit
__do_copy_data
__do_clear_bss
