GAS LISTING /tmp/cceKRAYj.s 			page 1


   1               		.file	"spi_driver.c"
   2               	__SREG__ = 0x3f
   3               	__SP_H__ = 0x3e
   4               	__SP_L__ = 0x3d
   5               	__CCP__  = 0x34
   6               	__tmp_reg__ = 0
   7               	__zero_reg__ = 1
   8               		.global __do_copy_data
   9               		.global __do_clear_bss
  10               		.text
  11               	.global	SPI_MasterInit
  12               		.type	SPI_MasterInit, @function
  13               	SPI_MasterInit:
  14 0000 AF92      		push r10
  15 0002 CF92      		push r12
  16 0004 EF92      		push r14
  17 0006 0F93      		push r16
  18               	/* prologue: function */
  19               	/* frame size = 0 */
  20 0008 DC01      		movw r26,r24
  21 000a FB01      		movw r30,r22
  22 000c 6D93      		st X+,r22
  23 000e 7C93      		st X,r23
  24 0010 1197      		sbiw r26,1
  25 0012 1296      		adiw r26,2
  26 0014 4D93      		st X+,r20
  27 0016 5C93      		st X,r21
  28 0018 1397      		sbiw r26,2+1
  29 001a 1496      		adiw r26,4
  30 001c 1C92      		st X,__zero_reg__
  31 001e 1497      		sbiw r26,4
  32 0020 CC20      		tst r12
  33 0022 01F4      		brne .L2
  34 0024 90E0      		ldi r25,lo8(0)
  35 0026 00C0      		rjmp .L3
  36               	.L2:
  37 0028 90E8      		ldi r25,lo8(-128)
  38               	.L3:
  39 002a 2223      		tst r18
  40 002c 01F4      		brne .L4
  41 002e 80E0      		ldi r24,lo8(0)
  42 0030 00C0      		rjmp .L5
  43               	.L4:
  44 0032 80E2      		ldi r24,lo8(32)
  45               	.L5:
  46 0034 0065      		ori r16,lo8(80)
  47 0036 0A29      		or r16,r10
  48 0038 902B      		or r25,r16
  49 003a 892B      		or r24,r25
  50 003c 8083      		st Z,r24
  51 003e ED91      		ld r30,X+
  52 0040 FC91      		ld r31,X
  53 0042 1197      		sbiw r26,1
  54 0044 E182      		std Z+1,r14
  55 0046 1596      		adiw r26,5
  56 0048 1D92      		st X+,__zero_reg__
  57 004a 1C92      		st X,__zero_reg__
GAS LISTING /tmp/cceKRAYj.s 			page 2


  58 004c 1697      		sbiw r26,5+1
  59 004e 1296      		adiw r26,2
  60 0050 ED91      		ld r30,X+
  61 0052 FC91      		ld r31,X
  62 0054 1397      		sbiw r26,2+1
  63 0056 80EA      		ldi r24,lo8(-96)
  64 0058 8183      		std Z+1,r24
  65               	/* epilogue start */
  66 005a 0F91      		pop r16
  67 005c EF90      		pop r14
  68 005e CF90      		pop r12
  69 0060 AF90      		pop r10
  70 0062 0895      		ret
  71               		.size	SPI_MasterInit, .-SPI_MasterInit
  72               	.global	SPI_SlaveInit
  73               		.type	SPI_SlaveInit, @function
  74               	SPI_SlaveInit:
  75 0064 EF92      		push r14
  76 0066 0F93      		push r16
  77               	/* prologue: function */
  78               	/* frame size = 0 */
  79 0068 DC01      		movw r26,r24
  80 006a FB01      		movw r30,r22
  81 006c 6D93      		st X+,r22
  82 006e 7C93      		st X,r23
  83 0070 1197      		sbiw r26,1
  84 0072 1296      		adiw r26,2
  85 0074 4D93      		st X+,r20
  86 0076 5C93      		st X,r21
  87 0078 1397      		sbiw r26,2+1
  88 007a 2223      		tst r18
  89 007c 01F4      		brne .L8
  90 007e 80E4      		ldi r24,lo8(64)
  91 0080 00C0      		rjmp .L9
  92               	.L8:
  93 0082 80E6      		ldi r24,lo8(96)
  94               	.L9:
  95 0084 802B      		or r24,r16
  96 0086 8083      		st Z,r24
  97 0088 ED91      		ld r30,X+
  98 008a FC91      		ld r31,X
  99 008c 1197      		sbiw r26,1
 100 008e E182      		std Z+1,r14
 101 0090 1296      		adiw r26,2
 102 0092 ED91      		ld r30,X+
 103 0094 FC91      		ld r31,X
 104 0096 1397      		sbiw r26,2+1
 105 0098 80E4      		ldi r24,lo8(64)
 106 009a 8183      		std Z+1,r24
 107               	/* epilogue start */
 108 009c 0F91      		pop r16
 109 009e EF90      		pop r14
 110 00a0 0895      		ret
 111               		.size	SPI_SlaveInit, .-SPI_SlaveInit
 112               	.global	SPI_MasterCreateDataPacket
 113               		.type	SPI_MasterCreateDataPacket, @function
 114               	SPI_MasterCreateDataPacket:
GAS LISTING /tmp/cceKRAYj.s 			page 3


 115 00a2 EF92      		push r14
 116 00a4 0F93      		push r16
 117 00a6 1F93      		push r17
 118               	/* prologue: function */
 119               	/* frame size = 0 */
 120 00a8 FC01      		movw r30,r24
 121 00aa 0083      		st Z,r16
 122 00ac 1183      		std Z+1,r17
 123 00ae E282      		std Z+2,r14
 124 00b0 6383      		std Z+3,r22
 125 00b2 7483      		std Z+4,r23
 126 00b4 4583      		std Z+5,r20
 127 00b6 5683      		std Z+6,r21
 128 00b8 2783      		std Z+7,r18
 129 00ba 1086      		std Z+8,__zero_reg__
 130 00bc 1186      		std Z+9,__zero_reg__
 131               	/* epilogue start */
 132 00be 1F91      		pop r17
 133 00c0 0F91      		pop r16
 134 00c2 EF90      		pop r14
 135 00c4 0895      		ret
 136               		.size	SPI_MasterCreateDataPacket, .-SPI_MasterCreateDataPacket
 137               	.global	SPI_MasterInterruptHandler
 138               		.type	SPI_MasterInterruptHandler, @function
 139               	SPI_MasterInterruptHandler:
 140 00c6 CF93      		push r28
 141 00c8 DF93      		push r29
 142               	/* prologue: function */
 143               	/* frame size = 0 */
 144 00ca DC01      		movw r26,r24
 145 00cc 1596      		adiw r26,5
 146 00ce CD91      		ld r28,X+
 147 00d0 DC91      		ld r29,X
 148 00d2 1697      		sbiw r26,5+1
 149 00d4 9885      		ldd r25,Y+8
 150 00d6 ED91      		ld r30,X+
 151 00d8 FC91      		ld r31,X
 152 00da 1197      		sbiw r26,1
 153 00dc 8081      		ld r24,Z
 154 00de 84FD      		sbrc r24,4
 155 00e0 00C0      		rjmp .L14
 156 00e2 81E0      		ldi r24,lo8(1)
 157 00e4 1496      		adiw r26,4
 158 00e6 8C93      		st X,r24
 159 00e8 1497      		sbiw r26,4
 160 00ea 00C0      		rjmp .L15
 161               	.L14:
 162 00ec 8381      		ldd r24,Z+3
 163 00ee ED81      		ldd r30,Y+5
 164 00f0 FE81      		ldd r31,Y+6
 165 00f2 E90F      		add r30,r25
 166 00f4 F11D      		adc r31,__zero_reg__
 167 00f6 8083      		st Z,r24
 168 00f8 9F5F      		subi r25,lo8(-(1))
 169 00fa 1596      		adiw r26,5
 170 00fc ED91      		ld r30,X+
 171 00fe FC91      		ld r31,X
GAS LISTING /tmp/cceKRAYj.s 			page 4


 172 0100 1697      		sbiw r26,5+1
 173 0102 8781      		ldd r24,Z+7
 174 0104 9817      		cp r25,r24
 175 0106 00F4      		brsh .L16
 176 0108 0380      		ldd __tmp_reg__,Z+3
 177 010a F481      		ldd r31,Z+4
 178 010c E02D      		mov r30,__tmp_reg__
 179 010e E90F      		add r30,r25
 180 0110 F11D      		adc r31,__zero_reg__
 181 0112 8081      		ld r24,Z
 182 0114 ED91      		ld r30,X+
 183 0116 FC91      		ld r31,X
 184 0118 1197      		sbiw r26,1
 185 011a 8383      		std Z+3,r24
 186 011c 00C0      		rjmp .L15
 187               	.L16:
 188 011e 8281      		ldd r24,Z+2
 189 0120 0190      		ld __tmp_reg__,Z+
 190 0122 F081      		ld r31,Z
 191 0124 E02D      		mov r30,__tmp_reg__
 192 0126 8583      		std Z+5,r24
 193 0128 1596      		adiw r26,5
 194 012a ED91      		ld r30,X+
 195 012c FC91      		ld r31,X
 196 012e 1697      		sbiw r26,5+1
 197 0130 81E0      		ldi r24,lo8(1)
 198 0132 8187      		std Z+9,r24
 199               	.L15:
 200 0134 1596      		adiw r26,5
 201 0136 ED91      		ld r30,X+
 202 0138 FC91      		ld r31,X
 203 013a 1697      		sbiw r26,5+1
 204 013c 9087      		std Z+8,r25
 205               	/* epilogue start */
 206 013e DF91      		pop r29
 207 0140 CF91      		pop r28
 208 0142 0895      		ret
 209               		.size	SPI_MasterInterruptHandler, .-SPI_MasterInterruptHandler
 210               	.global	SPI_MasterInterruptTransceivePacket
 211               		.type	SPI_MasterInterruptTransceivePacket, @function
 212               	SPI_MasterInterruptTransceivePacket:
 213 0144 CF93      		push r28
 214 0146 DF93      		push r29
 215               	/* prologue: function */
 216               	/* frame size = 0 */
 217 0148 DC01      		movw r26,r24
 218 014a EB01      		movw r28,r22
 219 014c 1496      		adiw r26,4
 220 014e 9C91      		ld r25,X
 221 0150 1497      		sbiw r26,4
 222 0152 1596      		adiw r26,5
 223 0154 ED91      		ld r30,X+
 224 0156 FC91      		ld r31,X
 225 0158 1697      		sbiw r26,5+1
 226 015a 3097      		sbiw r30,0
 227 015c 01F4      		brne .L19
 228 015e 1596      		adiw r26,5
GAS LISTING /tmp/cceKRAYj.s 			page 5


 229 0160 6D93      		st X+,r22
 230 0162 7C93      		st X,r23
 231 0164 1697      		sbiw r26,5+1
 232 0166 00C0      		rjmp .L20
 233               	.L19:
 234 0168 8185      		ldd r24,Z+9
 235 016a 8823      		tst r24
 236 016c 01F4      		brne .L21
 237 016e 82E0      		ldi r24,lo8(2)
 238 0170 00C0      		rjmp .L22
 239               	.L21:
 240 0172 9923      		tst r25
 241 0174 01F0      		breq .L20
 242 0176 1296      		adiw r26,2
 243 0178 ED91      		ld r30,X+
 244 017a FC91      		ld r31,X
 245 017c 1397      		sbiw r26,2+1
 246 017e 8481      		ldd r24,Z+4
 247 0180 84FD      		sbrc r24,4
 248 0182 00C0      		rjmp .L20
 249 0184 81E0      		ldi r24,lo8(1)
 250 0186 00C0      		rjmp .L22
 251               	.L20:
 252 0188 1596      		adiw r26,5
 253 018a CD93      		st X+,r28
 254 018c DC93      		st X,r29
 255 018e 1697      		sbiw r26,5+1
 256 0190 1986      		std Y+9,__zero_reg__
 257 0192 1496      		adiw r26,4
 258 0194 1C92      		st X,__zero_reg__
 259 0196 1497      		sbiw r26,4
 260 0198 8A81      		ldd r24,Y+2
 261 019a E881      		ld r30,Y
 262 019c F981      		ldd r31,Y+1
 263 019e 8683      		std Z+6,r24
 264 01a0 1596      		adiw r26,5
 265 01a2 ED91      		ld r30,X+
 266 01a4 FC91      		ld r31,X
 267 01a6 1697      		sbiw r26,5+1
 268 01a8 1086      		std Z+8,__zero_reg__
 269 01aa 1596      		adiw r26,5
 270 01ac ED91      		ld r30,X+
 271 01ae FC91      		ld r31,X
 272 01b0 1697      		sbiw r26,5+1
 273 01b2 0380      		ldd __tmp_reg__,Z+3
 274 01b4 F481      		ldd r31,Z+4
 275 01b6 E02D      		mov r30,__tmp_reg__
 276 01b8 8081      		ld r24,Z
 277 01ba ED91      		ld r30,X+
 278 01bc FC91      		ld r31,X
 279 01be 8383      		std Z+3,r24
 280 01c0 80E0      		ldi r24,lo8(0)
 281               	.L22:
 282               	/* epilogue start */
 283 01c2 DF91      		pop r29
 284 01c4 CF91      		pop r28
 285 01c6 0895      		ret
GAS LISTING /tmp/cceKRAYj.s 			page 6


 286               		.size	SPI_MasterInterruptTransceivePacket, .-SPI_MasterInterruptTransceivePacket
 287               	.global	SPI_MasterTransceiveByte
 288               		.type	SPI_MasterTransceiveByte, @function
 289               	SPI_MasterTransceiveByte:
 290               	/* prologue: function */
 291               	/* frame size = 0 */
 292 01c8 FC01      		movw r30,r24
 293 01ca A081      		ld r26,Z
 294 01cc B181      		ldd r27,Z+1
 295 01ce 1396      		adiw r26,3
 296 01d0 6C93      		st X,r22
 297 01d2 0190      		ld __tmp_reg__,Z+
 298 01d4 F081      		ld r31,Z
 299 01d6 E02D      		mov r30,__tmp_reg__
 300               	.L25:
 301 01d8 8281      		ldd r24,Z+2
 302 01da 87FF      		sbrs r24,7
 303 01dc 00C0      		rjmp .L25
 304 01de 8381      		ldd r24,Z+3
 305               	/* epilogue start */
 306 01e0 0895      		ret
 307               		.size	SPI_MasterTransceiveByte, .-SPI_MasterTransceiveByte
 308               	.global	SPI_MasterTransceivePacket
 309               		.type	SPI_MasterTransceivePacket, @function
 310               	SPI_MasterTransceivePacket:
 311 01e2 CF93      		push r28
 312 01e4 DF93      		push r29
 313               	/* prologue: function */
 314               	/* frame size = 0 */
 315 01e6 EC01      		movw r28,r24
 316 01e8 FB01      		movw r30,r22
 317 01ea 6115      		cp r22,__zero_reg__
 318 01ec 7105      		cpc r23,__zero_reg__
 319 01ee 01F4      		brne .L29
 320 01f0 80E0      		ldi r24,lo8(0)
 321 01f2 00C0      		rjmp .L30
 322               	.L29:
 323 01f4 6D83      		std Y+5,r22
 324 01f6 7E83      		std Y+6,r23
 325 01f8 4281      		ldd r20,Z+2
 326 01fa A081      		ld r26,Z
 327 01fc B181      		ldd r27,Z+1
 328 01fe 1097      		sbiw r26,0
 329 0200 01F0      		breq .L31
 330 0202 1696      		adiw r26,6
 331 0204 4C93      		st X,r20
 332               	.L31:
 333 0206 6781      		ldd r22,Z+7
 334 0208 90E0      		ldi r25,lo8(0)
 335 020a 00C0      		rjmp .L32
 336               	.L34:
 337 020c 292F      		mov r18,r25
 338 020e 30E0      		ldi r19,lo8(0)
 339 0210 0380      		ldd __tmp_reg__,Z+3
 340 0212 F481      		ldd r31,Z+4
 341 0214 E02D      		mov r30,__tmp_reg__
 342 0216 E20F      		add r30,r18
GAS LISTING /tmp/cceKRAYj.s 			page 7


 343 0218 F31F      		adc r31,r19
 344 021a 8081      		ld r24,Z
 345 021c E881      		ld r30,Y
 346 021e F981      		ldd r31,Y+1
 347 0220 8383      		std Z+3,r24
 348 0222 E881      		ld r30,Y
 349 0224 F981      		ldd r31,Y+1
 350               	.L33:
 351 0226 8281      		ldd r24,Z+2
 352 0228 87FF      		sbrs r24,7
 353 022a 00C0      		rjmp .L33
 354 022c 8381      		ldd r24,Z+3
 355 022e ED81      		ldd r30,Y+5
 356 0230 FE81      		ldd r31,Y+6
 357 0232 0580      		ldd __tmp_reg__,Z+5
 358 0234 F681      		ldd r31,Z+6
 359 0236 E02D      		mov r30,__tmp_reg__
 360 0238 E20F      		add r30,r18
 361 023a F31F      		adc r31,r19
 362 023c 8083      		st Z,r24
 363 023e 9F5F      		subi r25,lo8(-(1))
 364               	.L32:
 365 0240 ED81      		ldd r30,Y+5
 366 0242 FE81      		ldd r31,Y+6
 367 0244 9617      		cp r25,r22
 368 0246 00F0      		brlo .L34
 369 0248 0190      		ld __tmp_reg__,Z+
 370 024a F081      		ld r31,Z
 371 024c E02D      		mov r30,__tmp_reg__
 372 024e 3097      		sbiw r30,0
 373 0250 01F0      		breq .L35
 374 0252 4583      		std Z+5,r20
 375               	.L35:
 376 0254 ED81      		ldd r30,Y+5
 377 0256 FE81      		ldd r31,Y+6
 378 0258 6087      		std Z+8,r22
 379 025a ED81      		ldd r30,Y+5
 380 025c FE81      		ldd r31,Y+6
 381 025e 81E0      		ldi r24,lo8(1)
 382 0260 8187      		std Z+9,r24
 383               	.L30:
 384               	/* epilogue start */
 385 0262 DF91      		pop r29
 386 0264 CF91      		pop r28
 387 0266 0895      		ret
 388               		.size	SPI_MasterTransceivePacket, .-SPI_MasterTransceivePacket
GAS LISTING /tmp/cceKRAYj.s 			page 8


DEFINED SYMBOLS
                            *ABS*:00000000 spi_driver.c
     /tmp/cceKRAYj.s:2      *ABS*:0000003f __SREG__
     /tmp/cceKRAYj.s:3      *ABS*:0000003e __SP_H__
     /tmp/cceKRAYj.s:4      *ABS*:0000003d __SP_L__
     /tmp/cceKRAYj.s:5      *ABS*:00000034 __CCP__
     /tmp/cceKRAYj.s:6      *ABS*:00000000 __tmp_reg__
     /tmp/cceKRAYj.s:7      *ABS*:00000001 __zero_reg__
     /tmp/cceKRAYj.s:13     .text:00000000 SPI_MasterInit
     /tmp/cceKRAYj.s:74     .text:00000064 SPI_SlaveInit
     /tmp/cceKRAYj.s:114    .text:000000a2 SPI_MasterCreateDataPacket
     /tmp/cceKRAYj.s:139    .text:000000c6 SPI_MasterInterruptHandler
     /tmp/cceKRAYj.s:212    .text:00000144 SPI_MasterInterruptTransceivePacket
     /tmp/cceKRAYj.s:289    .text:000001c8 SPI_MasterTransceiveByte
     /tmp/cceKRAYj.s:310    .text:000001e2 SPI_MasterTransceivePacket

UNDEFINED SYMBOLS
__do_copy_data
__do_clear_bss
