GAS LISTING /tmp/ccTR6krr.s 			page 1


   1               		.file	"spi_driver.c"
   2               	__SREG__ = 0x3f
   3               	__SP_H__ = 0x3e
   4               	__SP_L__ = 0x3d
   5               	__CCP__  = 0x34
   6               	__tmp_reg__ = 0
   7               	__zero_reg__ = 1
   8               		.section	.debug_abbrev,"",@progbits
   9               	.Ldebug_abbrev0:
  10               		.section	.debug_info,"",@progbits
  11               	.Ldebug_info0:
  12               		.section	.debug_line,"",@progbits
  13               	.Ldebug_line0:
  14               		.text
  15               	.Ltext0:
  16               	.global	SPI_MasterInit
  17               		.type	SPI_MasterInit, @function
  18               	SPI_MasterInit:
  19               	.LFB6:
  20               	.LM1:
  21               	.LVL0:
  22 0000 AF92      		push r10
  23               	.LVL1:
  24 0002 CF92      		push r12
  25               	.LVL2:
  26 0004 EF92      		push r14
  27               	.LVL3:
  28 0006 0F93      		push r16
  29               	.LVL4:
  30               	/* prologue: function */
  31               	/* frame size = 0 */
  32 0008 DC01      		movw r26,r24
  33 000a FB01      		movw r30,r22
  34               	.LM2:
  35 000c 6D93      		st X+,r22
  36 000e 7C93      		st X,r23
  37 0010 1197      		sbiw r26,1
  38               	.LM3:
  39 0012 1296      		adiw r26,2
  40 0014 4D93      		st X+,r20
  41 0016 5C93      		st X,r21
  42 0018 1397      		sbiw r26,2+1
  43               	.LM4:
  44 001a 1496      		adiw r26,4
  45 001c 1C92      		st X,__zero_reg__
  46 001e 1497      		sbiw r26,4
  47               	.LM5:
  48 0020 CC20      		tst r12
  49               	.LVL5:
  50 0022 01F4      		brne .L2
  51               	.LVL6:
  52 0024 90E0      		ldi r25,lo8(0)
  53 0026 2223      		tst r18
  54 0028 01F4      		brne .L4
  55               	.L8:
  56 002a 80E0      		ldi r24,lo8(0)
  57               	.L5:
GAS LISTING /tmp/ccTR6krr.s 			page 2


  58 002c 0065      		ori r16,lo8(80)
  59               	.LVL7:
  60 002e 0A29      		or r16,r10
  61               	.LVL8:
  62 0030 902B      		or r25,r16
  63 0032 892B      		or r24,r25
  64 0034 8083      		st Z,r24
  65               	.LM6:
  66 0036 ED91      		ld r30,X+
  67 0038 FC91      		ld r31,X
  68 003a 1197      		sbiw r26,1
  69 003c E182      		std Z+1,r14
  70               	.LVL9:
  71               	.LM7:
  72 003e 1596      		adiw r26,5
  73 0040 1D92      		st X+,__zero_reg__
  74 0042 1C92      		st X,__zero_reg__
  75 0044 1697      		sbiw r26,5+1
  76               	.LM8:
  77 0046 1296      		adiw r26,2
  78 0048 ED91      		ld r30,X+
  79 004a FC91      		ld r31,X
  80 004c 1397      		sbiw r26,2+1
  81 004e 80EA      		ldi r24,lo8(-96)
  82 0050 8183      		std Z+1,r24
  83               	/* epilogue start */
  84               	.LM9:
  85 0052 0F91      		pop r16
  86               	.LVL10:
  87 0054 EF90      		pop r14
  88               	.LVL11:
  89 0056 CF90      		pop r12
  90               	.LVL12:
  91 0058 AF90      		pop r10
  92               	.LVL13:
  93 005a 0895      		ret
  94               	.LVL14:
  95               	.L2:
  96               	.LM10:
  97 005c 90E8      		ldi r25,lo8(-128)
  98 005e 2223      		tst r18
  99 0060 01F0      		breq .L8
 100               	.L4:
 101 0062 80E2      		ldi r24,lo8(32)
 102 0064 00C0      		rjmp .L5
 103               	.LFE6:
 104               		.size	SPI_MasterInit, .-SPI_MasterInit
 105               	.global	SPI_SlaveInit
 106               		.type	SPI_SlaveInit, @function
 107               	SPI_SlaveInit:
 108               	.LFB7:
 109               	.LM11:
 110               	.LVL15:
 111 0066 EF92      		push r14
 112               	.LVL16:
 113 0068 0F93      		push r16
 114               	.LVL17:
GAS LISTING /tmp/ccTR6krr.s 			page 3


 115               	/* prologue: function */
 116               	/* frame size = 0 */
 117 006a DC01      		movw r26,r24
 118 006c FB01      		movw r30,r22
 119               	.LM12:
 120 006e 6D93      		st X+,r22
 121 0070 7C93      		st X,r23
 122 0072 1197      		sbiw r26,1
 123               	.LM13:
 124 0074 1296      		adiw r26,2
 125 0076 4D93      		st X+,r20
 126 0078 5C93      		st X,r21
 127 007a 1397      		sbiw r26,2+1
 128               	.LM14:
 129 007c 2223      		tst r18
 130 007e 01F4      		brne .L10
 131               	.LVL18:
 132 0080 80E4      		ldi r24,lo8(64)
 133               	.L11:
 134 0082 802B      		or r24,r16
 135               	.LVL19:
 136 0084 8083      		st Z,r24
 137               	.LM15:
 138 0086 ED91      		ld r30,X+
 139 0088 FC91      		ld r31,X
 140 008a 1197      		sbiw r26,1
 141 008c E182      		std Z+1,r14
 142               	.LVL20:
 143               	.LM16:
 144 008e 1296      		adiw r26,2
 145 0090 ED91      		ld r30,X+
 146 0092 FC91      		ld r31,X
 147 0094 1397      		sbiw r26,2+1
 148 0096 80E4      		ldi r24,lo8(64)
 149 0098 8183      		std Z+1,r24
 150               	/* epilogue start */
 151               	.LM17:
 152 009a 0F91      		pop r16
 153               	.LVL21:
 154 009c EF90      		pop r14
 155               	.LVL22:
 156 009e 0895      		ret
 157               	.LVL23:
 158               	.L10:
 159               	.LM18:
 160 00a0 80E6      		ldi r24,lo8(96)
 161 00a2 00C0      		rjmp .L11
 162               	.LFE7:
 163               		.size	SPI_SlaveInit, .-SPI_SlaveInit
 164               	.global	SPI_MasterCreateDataPacket
 165               		.type	SPI_MasterCreateDataPacket, @function
 166               	SPI_MasterCreateDataPacket:
 167               	.LFB8:
 168               	.LM19:
 169               	.LVL24:
 170 00a4 EF92      		push r14
 171               	.LVL25:
GAS LISTING /tmp/ccTR6krr.s 			page 4


 172 00a6 0F93      		push r16
 173               	.LVL26:
 174 00a8 1F93      		push r17
 175               	/* prologue: function */
 176               	/* frame size = 0 */
 177 00aa FC01      		movw r30,r24
 178               	.LM20:
 179 00ac 0083      		st Z,r16
 180 00ae 1183      		std Z+1,r17
 181               	.LVL27:
 182               	.LM21:
 183 00b0 E282      		std Z+2,r14
 184               	.LVL28:
 185               	.LM22:
 186 00b2 6383      		std Z+3,r22
 187 00b4 7483      		std Z+4,r23
 188               	.LM23:
 189 00b6 4583      		std Z+5,r20
 190 00b8 5683      		std Z+6,r21
 191               	.LM24:
 192 00ba 2783      		std Z+7,r18
 193               	.LM25:
 194 00bc 1086      		std Z+8,__zero_reg__
 195               	.LM26:
 196 00be 1186      		std Z+9,__zero_reg__
 197               	/* epilogue start */
 198               	.LM27:
 199 00c0 1F91      		pop r17
 200 00c2 0F91      		pop r16
 201               	.LVL29:
 202 00c4 EF90      		pop r14
 203               	.LVL30:
 204 00c6 0895      		ret
 205               	.LFE8:
 206               		.size	SPI_MasterCreateDataPacket, .-SPI_MasterCreateDataPacket
 207               	.global	SPI_MasterInterruptHandler
 208               		.type	SPI_MasterInterruptHandler, @function
 209               	SPI_MasterInterruptHandler:
 210               	.LFB9:
 211               	.LM28:
 212               	.LVL31:
 213 00c8 CF93      		push r28
 214 00ca DF93      		push r29
 215               	/* prologue: function */
 216               	/* frame size = 0 */
 217 00cc EC01      		movw r28,r24
 218               	.LM29:
 219 00ce AD81      		ldd r26,Y+5
 220 00d0 BE81      		ldd r27,Y+6
 221 00d2 1896      		adiw r26,8
 222 00d4 9C91      		ld r25,X
 223 00d6 1897      		sbiw r26,8
 224               	.LVL32:
 225               	.LM30:
 226 00d8 E881      		ld r30,Y
 227 00da F981      		ldd r31,Y+1
 228 00dc 8081      		ld r24,Z
GAS LISTING /tmp/ccTR6krr.s 			page 5


 229               	.LVL33:
 230 00de 84FF      		sbrs r24,4
 231 00e0 00C0      		rjmp .L20
 232               	.LM31:
 233 00e2 8381      		ldd r24,Z+3
 234               	.LVL34:
 235               	.LM32:
 236 00e4 1596      		adiw r26,5
 237 00e6 ED91      		ld r30,X+
 238 00e8 FC91      		ld r31,X
 239 00ea 1697      		sbiw r26,5+1
 240 00ec E90F      		add r30,r25
 241 00ee F11D      		adc r31,__zero_reg__
 242 00f0 8083      		st Z,r24
 243               	.LM33:
 244 00f2 9F5F      		subi r25,lo8(-(1))
 245               	.LM34:
 246 00f4 ED81      		ldd r30,Y+5
 247 00f6 FE81      		ldd r31,Y+6
 248 00f8 8781      		ldd r24,Z+7
 249               	.LVL35:
 250 00fa 9817      		cp r25,r24
 251 00fc 00F0      		brlo .L21
 252               	.LBB2:
 253               	.LM35:
 254 00fe 8281      		ldd r24,Z+2
 255               	.LVL36:
 256               	.LM36:
 257 0100 0190      		ld __tmp_reg__,Z+
 258 0102 F081      		ld r31,Z
 259 0104 E02D      		mov r30,__tmp_reg__
 260 0106 8583      		std Z+5,r24
 261               	.LM37:
 262 0108 AD81      		ldd r26,Y+5
 263 010a BE81      		ldd r27,Y+6
 264 010c 81E0      		ldi r24,lo8(1)
 265               	.LVL37:
 266 010e 1996      		adiw r26,9
 267 0110 8C93      		st X,r24
 268 0112 1997      		sbiw r26,9
 269               	.LBE2:
 270               	.LM38:
 271 0114 1896      		adiw r26,8
 272 0116 9C93      		st X,r25
 273               	/* epilogue start */
 274               	.LM39:
 275 0118 DF91      		pop r29
 276 011a CF91      		pop r28
 277               	.LVL38:
 278 011c 0895      		ret
 279               	.LVL39:
 280               	.L21:
 281               	.LM40:
 282 011e 0380      		ldd __tmp_reg__,Z+3
 283 0120 F481      		ldd r31,Z+4
 284 0122 E02D      		mov r30,__tmp_reg__
 285 0124 E90F      		add r30,r25
GAS LISTING /tmp/ccTR6krr.s 			page 6


 286 0126 F11D      		adc r31,__zero_reg__
 287 0128 8081      		ld r24,Z
 288               	.LVL40:
 289               	.LM41:
 290 012a E881      		ld r30,Y
 291 012c F981      		ldd r31,Y+1
 292 012e 8383      		std Z+3,r24
 293 0130 AD81      		ldd r26,Y+5
 294 0132 BE81      		ldd r27,Y+6
 295               	.LM42:
 296 0134 1896      		adiw r26,8
 297 0136 9C93      		st X,r25
 298               	.LM43:
 299 0138 DF91      		pop r29
 300 013a CF91      		pop r28
 301               	.LVL41:
 302 013c 0895      		ret
 303               	.LVL42:
 304               	.L20:
 305               	.LM44:
 306 013e 81E0      		ldi r24,lo8(1)
 307 0140 8C83      		std Y+4,r24
 308               	.LM45:
 309 0142 1896      		adiw r26,8
 310 0144 9C93      		st X,r25
 311               	.LM46:
 312 0146 DF91      		pop r29
 313 0148 CF91      		pop r28
 314               	.LVL43:
 315 014a 0895      		ret
 316               	.LFE9:
 317               		.size	SPI_MasterInterruptHandler, .-SPI_MasterInterruptHandler
 318               	.global	SPI_MasterInterruptTransceivePacket
 319               		.type	SPI_MasterInterruptTransceivePacket, @function
 320               	SPI_MasterInterruptTransceivePacket:
 321               	.LFB10:
 322               	.LM47:
 323               	.LVL44:
 324 014c CF93      		push r28
 325 014e DF93      		push r29
 326               	/* prologue: function */
 327               	/* frame size = 0 */
 328 0150 DC01      		movw r26,r24
 329 0152 EB01      		movw r28,r22
 330               	.LM48:
 331 0154 1496      		adiw r26,4
 332 0156 9C91      		ld r25,X
 333 0158 1497      		sbiw r26,4
 334               	.LVL45:
 335               	.LM49:
 336 015a 1596      		adiw r26,5
 337 015c ED91      		ld r30,X+
 338 015e FC91      		ld r31,X
 339 0160 1697      		sbiw r26,5+1
 340 0162 3097      		sbiw r30,0
 341 0164 01F0      		breq .L28
 342               	.LVL46:
GAS LISTING /tmp/ccTR6krr.s 			page 7


 343               	.LM50:
 344 0166 8185      		ldd r24,Z+9
 345 0168 8823      		tst r24
 346 016a 01F0      		breq .L29
 347               	.LM51:
 348 016c 9923      		tst r25
 349 016e 01F0      		breq .L24
 350               	.LM52:
 351 0170 1296      		adiw r26,2
 352 0172 ED91      		ld r30,X+
 353 0174 FC91      		ld r31,X
 354 0176 1397      		sbiw r26,2+1
 355 0178 8481      		ldd r24,Z+4
 356 017a 84FF      		sbrs r24,4
 357 017c 00C0      		rjmp .L30
 358               	.LVL47:
 359               	.L24:
 360               	.LM53:
 361 017e 1596      		adiw r26,5
 362 0180 CD93      		st X+,r28
 363 0182 DC93      		st X,r29
 364 0184 1697      		sbiw r26,5+1
 365               	.LM54:
 366 0186 1986      		std Y+9,__zero_reg__
 367               	.LM55:
 368 0188 1496      		adiw r26,4
 369 018a 1C92      		st X,__zero_reg__
 370 018c 1497      		sbiw r26,4
 371               	.LM56:
 372 018e 8A81      		ldd r24,Y+2
 373               	.LVL48:
 374               	.LM57:
 375 0190 E881      		ld r30,Y
 376 0192 F981      		ldd r31,Y+1
 377 0194 8683      		std Z+6,r24
 378               	.LM58:
 379 0196 1596      		adiw r26,5
 380 0198 ED91      		ld r30,X+
 381 019a FC91      		ld r31,X
 382 019c 1697      		sbiw r26,5+1
 383 019e 1086      		std Z+8,__zero_reg__
 384               	.LM59:
 385 01a0 1596      		adiw r26,5
 386 01a2 ED91      		ld r30,X+
 387 01a4 FC91      		ld r31,X
 388 01a6 1697      		sbiw r26,5+1
 389 01a8 0380      		ldd __tmp_reg__,Z+3
 390 01aa F481      		ldd r31,Z+4
 391 01ac E02D      		mov r30,__tmp_reg__
 392 01ae 8081      		ld r24,Z
 393               	.LVL49:
 394               	.LM60:
 395 01b0 ED91      		ld r30,X+
 396 01b2 FC91      		ld r31,X
 397 01b4 8383      		std Z+3,r24
 398 01b6 80E0      		ldi r24,lo8(0)
 399               	.LVL50:
GAS LISTING /tmp/ccTR6krr.s 			page 8


 400               	.LM61:
 401 01b8 DF91      		pop r29
 402 01ba CF91      		pop r28
 403               	.LVL51:
 404 01bc 0895      		ret
 405               	.LVL52:
 406               	.L29:
 407               	.LM62:
 408 01be 82E0      		ldi r24,lo8(2)
 409               	/* epilogue start */
 410               	.LM63:
 411 01c0 DF91      		pop r29
 412 01c2 CF91      		pop r28
 413               	.LVL53:
 414 01c4 0895      		ret
 415               	.LVL54:
 416               	.L30:
 417               	.LM64:
 418 01c6 81E0      		ldi r24,lo8(1)
 419               	.LM65:
 420 01c8 DF91      		pop r29
 421 01ca CF91      		pop r28
 422               	.LVL55:
 423 01cc 0895      		ret
 424               	.LVL56:
 425               	.L28:
 426               	.LM66:
 427 01ce 1596      		adiw r26,5
 428 01d0 6D93      		st X+,r22
 429 01d2 7C93      		st X,r23
 430 01d4 1697      		sbiw r26,5+1
 431 01d6 00C0      		rjmp .L24
 432               	.LFE10:
 433               		.size	SPI_MasterInterruptTransceivePacket, .-SPI_MasterInterruptTransceivePacket
 434               	.global	SPI_MasterTransceiveByte
 435               		.type	SPI_MasterTransceiveByte, @function
 436               	SPI_MasterTransceiveByte:
 437               	.LFB11:
 438               	.LM67:
 439               	.LVL57:
 440               	/* prologue: function */
 441               	/* frame size = 0 */
 442 01d8 FC01      		movw r30,r24
 443               	.LM68:
 444 01da A081      		ld r26,Z
 445 01dc B181      		ldd r27,Z+1
 446 01de 1396      		adiw r26,3
 447 01e0 6C93      		st X,r22
 448 01e2 0190      		ld __tmp_reg__,Z+
 449 01e4 F081      		ld r31,Z
 450 01e6 E02D      		mov r30,__tmp_reg__
 451               	.L32:
 452               	.LM69:
 453 01e8 8281      		ldd r24,Z+2
 454               	.LVL58:
 455 01ea 87FF      		sbrs r24,7
 456 01ec 00C0      		rjmp .L32
GAS LISTING /tmp/ccTR6krr.s 			page 9


 457               	.LM70:
 458 01ee 8381      		ldd r24,Z+3
 459               	.LVL59:
 460               	.LVL60:
 461               	/* epilogue start */
 462               	.LM71:
 463 01f0 0895      		ret
 464               	.LFE11:
 465               		.size	SPI_MasterTransceiveByte, .-SPI_MasterTransceiveByte
 466               	.global	SPI_MasterTransceivePacket
 467               		.type	SPI_MasterTransceivePacket, @function
 468               	SPI_MasterTransceivePacket:
 469               	.LFB12:
 470               	.LM72:
 471               	.LVL61:
 472 01f2 CF93      		push r28
 473 01f4 DF93      		push r29
 474               	/* prologue: function */
 475               	/* frame size = 0 */
 476 01f6 DC01      		movw r26,r24
 477 01f8 FB01      		movw r30,r22
 478               	.LM73:
 479 01fa 6115      		cp r22,__zero_reg__
 480 01fc 7105      		cpc r23,__zero_reg__
 481 01fe 01F4      		brne .+2
 482 0200 00C0      		rjmp .L47
 483               	.LVL62:
 484               	.LM74:
 485 0202 1596      		adiw r26,5
 486 0204 6D93      		st X+,r22
 487 0206 7C93      		st X,r23
 488 0208 1697      		sbiw r26,5+1
 489               	.LM75:
 490 020a 9281      		ldd r25,Z+2
 491               	.LVL63:
 492               	.LM76:
 493 020c C081      		ld r28,Z
 494 020e D181      		ldd r29,Z+1
 495 0210 2097      		sbiw r28,0
 496 0212 01F0      		breq .L38
 497               	.LVL64:
 498               	.LM77:
 499 0214 9E83      		std Y+6,r25
 500               	.L38:
 501               	.LM78:
 502 0216 6781      		ldd r22,Z+7
 503               	.LVL65:
 504               	.LM79:
 505 0218 6623      		tst r22
 506 021a 01F0      		breq .L40
 507 021c 20E0      		ldi r18,lo8(0)
 508 021e 30E0      		ldi r19,hi8(0)
 509               	.LVL66:
 510               	.L42:
 511               	.LBB3:
 512               	.LM80:
 513 0220 1596      		adiw r26,5
GAS LISTING /tmp/ccTR6krr.s 			page 10


 514 0222 ED91      		ld r30,X+
 515 0224 FC91      		ld r31,X
 516 0226 1697      		sbiw r26,5+1
 517               	.LVL67:
 518 0228 0380      		ldd __tmp_reg__,Z+3
 519 022a F481      		ldd r31,Z+4
 520 022c E02D      		mov r30,__tmp_reg__
 521 022e E20F      		add r30,r18
 522 0230 F31F      		adc r31,r19
 523 0232 8081      		ld r24,Z
 524               	.LVL68:
 525               	.LM81:
 526 0234 ED91      		ld r30,X+
 527 0236 FC91      		ld r31,X
 528 0238 1197      		sbiw r26,1
 529 023a 8383      		std Z+3,r24
 530 023c ED91      		ld r30,X+
 531 023e FC91      		ld r31,X
 532 0240 1197      		sbiw r26,1
 533               	.L41:
 534               	.LM82:
 535 0242 8281      		ldd r24,Z+2
 536               	.LVL69:
 537 0244 87FF      		sbrs r24,7
 538 0246 00C0      		rjmp .L41
 539               	.LM83:
 540 0248 8381      		ldd r24,Z+3
 541               	.LVL70:
 542               	.LM84:
 543 024a 1596      		adiw r26,5
 544 024c ED91      		ld r30,X+
 545 024e FC91      		ld r31,X
 546 0250 1697      		sbiw r26,5+1
 547 0252 0580      		ldd __tmp_reg__,Z+5
 548 0254 F681      		ldd r31,Z+6
 549 0256 E02D      		mov r30,__tmp_reg__
 550 0258 E20F      		add r30,r18
 551 025a F31F      		adc r31,r19
 552 025c 8083      		st Z,r24
 553 025e 2F5F      		subi r18,lo8(-(1))
 554 0260 3F4F      		sbci r19,hi8(-(1))
 555               	.LBE3:
 556               	.LM85:
 557 0262 2617      		cp r18,r22
 558 0264 00F0      		brlo .L42
 559               	.LVL71:
 560               	.L40:
 561               	.LM86:
 562 0266 1596      		adiw r26,5
 563 0268 ED91      		ld r30,X+
 564 026a FC91      		ld r31,X
 565 026c 1697      		sbiw r26,5+1
 566               	.LVL72:
 567 026e C081      		ld r28,Z
 568 0270 D181      		ldd r29,Z+1
 569 0272 2097      		sbiw r28,0
 570 0274 01F0      		breq .L43
GAS LISTING /tmp/ccTR6krr.s 			page 11


 571               	.LM87:
 572 0276 9D83      		std Y+5,r25
 573 0278 1596      		adiw r26,5
 574 027a ED91      		ld r30,X+
 575 027c FC91      		ld r31,X
 576 027e 1697      		sbiw r26,5+1
 577               	.L43:
 578               	.LM88:
 579 0280 6087      		std Z+8,r22
 580               	.LVL73:
 581               	.LM89:
 582 0282 1596      		adiw r26,5
 583 0284 ED91      		ld r30,X+
 584 0286 FC91      		ld r31,X
 585 0288 1697      		sbiw r26,5+1
 586 028a 81E0      		ldi r24,lo8(1)
 587               	.LVL74:
 588 028c 8187      		std Z+9,r24
 589               	/* epilogue start */
 590               	.LM90:
 591 028e DF91      		pop r29
 592 0290 CF91      		pop r28
 593 0292 0895      		ret
 594               	.LVL75:
 595               	.L47:
 596               	.LM91:
 597 0294 80E0      		ldi r24,lo8(0)
 598               	.LM92:
 599 0296 DF91      		pop r29
 600 0298 CF91      		pop r28
 601 029a 0895      		ret
 602               	.LFE12:
 603               		.size	SPI_MasterTransceivePacket, .-SPI_MasterTransceivePacket
 604               		.section	.debug_frame,"",@progbits
 605               	.Lframe0:
 606 0000 0C00 0000 		.long	.LECIE0-.LSCIE0
 607               	.LSCIE0:
 608 0004 FFFF FFFF 		.long	0xffffffff
 609 0008 01        		.byte	0x1
 610 0009 00        		.string	""
 611 000a 01        		.uleb128 0x1
 612 000b 7F        		.sleb128 -1
 613 000c 24        		.byte	0x24
 614 000d 0C        		.byte	0xc
 615 000e 20        		.uleb128 0x20
 616 000f 00        		.uleb128 0x0
 617               		.p2align	2
 618               	.LECIE0:
 619               	.LSFDE0:
 620 0010 0C00 0000 		.long	.LEFDE0-.LASFDE0
 621               	.LASFDE0:
 622 0014 0000 0000 		.long	.Lframe0
 623 0018 0000 0000 		.long	.LFB6
 624 001c 6600 0000 		.long	.LFE6-.LFB6
 625               		.p2align	2
 626               	.LEFDE0:
 627               	.LSFDE2:
GAS LISTING /tmp/ccTR6krr.s 			page 12


 628 0020 0C00 0000 		.long	.LEFDE2-.LASFDE2
 629               	.LASFDE2:
 630 0024 0000 0000 		.long	.Lframe0
 631 0028 0000 0000 		.long	.LFB7
 632 002c 3E00 0000 		.long	.LFE7-.LFB7
 633               		.p2align	2
 634               	.LEFDE2:
 635               	.LSFDE4:
 636 0030 0C00 0000 		.long	.LEFDE4-.LASFDE4
 637               	.LASFDE4:
 638 0034 0000 0000 		.long	.Lframe0
 639 0038 0000 0000 		.long	.LFB8
 640 003c 2400 0000 		.long	.LFE8-.LFB8
 641               		.p2align	2
 642               	.LEFDE4:
 643               	.LSFDE6:
 644 0040 0C00 0000 		.long	.LEFDE6-.LASFDE6
 645               	.LASFDE6:
 646 0044 0000 0000 		.long	.Lframe0
 647 0048 0000 0000 		.long	.LFB9
 648 004c 8400 0000 		.long	.LFE9-.LFB9
 649               		.p2align	2
 650               	.LEFDE6:
 651               	.LSFDE8:
 652 0050 0C00 0000 		.long	.LEFDE8-.LASFDE8
 653               	.LASFDE8:
 654 0054 0000 0000 		.long	.Lframe0
 655 0058 0000 0000 		.long	.LFB10
 656 005c 8C00 0000 		.long	.LFE10-.LFB10
 657               		.p2align	2
 658               	.LEFDE8:
 659               	.LSFDE10:
 660 0060 0C00 0000 		.long	.LEFDE10-.LASFDE10
 661               	.LASFDE10:
 662 0064 0000 0000 		.long	.Lframe0
 663 0068 0000 0000 		.long	.LFB11
 664 006c 1A00 0000 		.long	.LFE11-.LFB11
 665               		.p2align	2
 666               	.LEFDE10:
 667               	.LSFDE12:
 668 0070 0C00 0000 		.long	.LEFDE12-.LASFDE12
 669               	.LASFDE12:
 670 0074 0000 0000 		.long	.Lframe0
 671 0078 0000 0000 		.long	.LFB12
 672 007c AA00 0000 		.long	.LFE12-.LFB12
 673               		.p2align	2
 674               	.LEFDE12:
 675               		.text
 676               	.Letext0:
 677               		.section	.debug_loc,"",@progbits
 678               	.Ldebug_loc0:
 679               	.LLST1:
 680 0000 0000 0000 		.long	.LVL0-.Ltext0
 681 0004 2400 0000 		.long	.LVL6-.Ltext0
 682 0008 0600      		.word	0x6
 683 000a 68        		.byte	0x68
 684 000b 93        		.byte	0x93
GAS LISTING /tmp/ccTR6krr.s 			page 13


 685 000c 01        		.uleb128 0x1
 686 000d 69        		.byte	0x69
 687 000e 93        		.byte	0x93
 688 000f 01        		.uleb128 0x1
 689 0010 2400 0000 		.long	.LVL6-.Ltext0
 690 0014 6600 0000 		.long	.LFE6-.Ltext0
 691 0018 0600      		.word	0x6
 692 001a 6A        		.byte	0x6a
 693 001b 93        		.byte	0x93
 694 001c 01        		.uleb128 0x1
 695 001d 6B        		.byte	0x6b
 696 001e 93        		.byte	0x93
 697 001f 01        		.uleb128 0x1
 698 0020 0000 0000 		.long	0x0
 699 0024 0000 0000 		.long	0x0
 700               	.LLST2:
 701 0028 0000 0000 		.long	.LVL0-.Ltext0
 702 002c 0800 0000 		.long	.LVL4-.Ltext0
 703 0030 0100      		.word	0x1
 704 0032 60        		.byte	0x60
 705 0033 2E00 0000 		.long	.LVL7-.Ltext0
 706 0037 5400 0000 		.long	.LVL10-.Ltext0
 707 003b 0100      		.word	0x1
 708 003d 60        		.byte	0x60
 709 003e 0000 0000 		.long	0x0
 710 0042 0000 0000 		.long	0x0
 711               	.LLST3:
 712 0046 0000 0000 		.long	.LVL0-.Ltext0
 713 004a 0600 0000 		.long	.LVL3-.Ltext0
 714 004e 0100      		.word	0x1
 715 0050 5E        		.byte	0x5e
 716 0051 3E00 0000 		.long	.LVL9-.Ltext0
 717 0055 5600 0000 		.long	.LVL11-.Ltext0
 718 0059 0100      		.word	0x1
 719 005b 5E        		.byte	0x5e
 720 005c 0000 0000 		.long	0x0
 721 0060 0000 0000 		.long	0x0
 722               	.LLST4:
 723 0064 0000 0000 		.long	.LVL0-.Ltext0
 724 0068 0400 0000 		.long	.LVL2-.Ltext0
 725 006c 0100      		.word	0x1
 726 006e 5C        		.byte	0x5c
 727 006f 2200 0000 		.long	.LVL5-.Ltext0
 728 0073 5800 0000 		.long	.LVL12-.Ltext0
 729 0077 0100      		.word	0x1
 730 0079 5C        		.byte	0x5c
 731 007a 5C00 0000 		.long	.LVL14-.Ltext0
 732 007e 6600 0000 		.long	.LFE6-.Ltext0
 733 0082 0100      		.word	0x1
 734 0084 5C        		.byte	0x5c
 735 0085 0000 0000 		.long	0x0
 736 0089 0000 0000 		.long	0x0
 737               	.LLST5:
 738 008d 0000 0000 		.long	.LVL0-.Ltext0
 739 0091 0200 0000 		.long	.LVL1-.Ltext0
 740 0095 0100      		.word	0x1
 741 0097 5A        		.byte	0x5a
GAS LISTING /tmp/ccTR6krr.s 			page 14


 742 0098 3000 0000 		.long	.LVL8-.Ltext0
 743 009c 5A00 0000 		.long	.LVL13-.Ltext0
 744 00a0 0100      		.word	0x1
 745 00a2 5A        		.byte	0x5a
 746 00a3 0000 0000 		.long	0x0
 747 00a7 0000 0000 		.long	0x0
 748               	.LLST7:
 749 00ab 6600 0000 		.long	.LVL15-.Ltext0
 750 00af 8000 0000 		.long	.LVL18-.Ltext0
 751 00b3 0600      		.word	0x6
 752 00b5 68        		.byte	0x68
 753 00b6 93        		.byte	0x93
 754 00b7 01        		.uleb128 0x1
 755 00b8 69        		.byte	0x69
 756 00b9 93        		.byte	0x93
 757 00ba 01        		.uleb128 0x1
 758 00bb 8000 0000 		.long	.LVL18-.Ltext0
 759 00bf A400 0000 		.long	.LFE7-.Ltext0
 760 00c3 0600      		.word	0x6
 761 00c5 6A        		.byte	0x6a
 762 00c6 93        		.byte	0x93
 763 00c7 01        		.uleb128 0x1
 764 00c8 6B        		.byte	0x6b
 765 00c9 93        		.byte	0x93
 766 00ca 01        		.uleb128 0x1
 767 00cb 0000 0000 		.long	0x0
 768 00cf 0000 0000 		.long	0x0
 769               	.LLST8:
 770 00d3 6600 0000 		.long	.LVL15-.Ltext0
 771 00d7 6A00 0000 		.long	.LVL17-.Ltext0
 772 00db 0100      		.word	0x1
 773 00dd 60        		.byte	0x60
 774 00de 8400 0000 		.long	.LVL19-.Ltext0
 775 00e2 9C00 0000 		.long	.LVL21-.Ltext0
 776 00e6 0100      		.word	0x1
 777 00e8 60        		.byte	0x60
 778 00e9 0000 0000 		.long	0x0
 779 00ed 0000 0000 		.long	0x0
 780               	.LLST9:
 781 00f1 6600 0000 		.long	.LVL15-.Ltext0
 782 00f5 6800 0000 		.long	.LVL16-.Ltext0
 783 00f9 0100      		.word	0x1
 784 00fb 5E        		.byte	0x5e
 785 00fc 8E00 0000 		.long	.LVL20-.Ltext0
 786 0100 9E00 0000 		.long	.LVL22-.Ltext0
 787 0104 0100      		.word	0x1
 788 0106 5E        		.byte	0x5e
 789 0107 0000 0000 		.long	0x0
 790 010b 0000 0000 		.long	0x0
 791               	.LLST11:
 792 010f A400 0000 		.long	.LVL24-.Ltext0
 793 0113 A800 0000 		.long	.LVL26-.Ltext0
 794 0117 0600      		.word	0x6
 795 0119 60        		.byte	0x60
 796 011a 93        		.byte	0x93
 797 011b 01        		.uleb128 0x1
 798 011c 61        		.byte	0x61
GAS LISTING /tmp/ccTR6krr.s 			page 15


 799 011d 93        		.byte	0x93
 800 011e 01        		.uleb128 0x1
 801 011f B000 0000 		.long	.LVL27-.Ltext0
 802 0123 C400 0000 		.long	.LVL29-.Ltext0
 803 0127 0600      		.word	0x6
 804 0129 60        		.byte	0x60
 805 012a 93        		.byte	0x93
 806 012b 01        		.uleb128 0x1
 807 012c 61        		.byte	0x61
 808 012d 93        		.byte	0x93
 809 012e 01        		.uleb128 0x1
 810 012f 0000 0000 		.long	0x0
 811 0133 0000 0000 		.long	0x0
 812               	.LLST12:
 813 0137 A400 0000 		.long	.LVL24-.Ltext0
 814 013b A600 0000 		.long	.LVL25-.Ltext0
 815 013f 0100      		.word	0x1
 816 0141 5E        		.byte	0x5e
 817 0142 B200 0000 		.long	.LVL28-.Ltext0
 818 0146 C600 0000 		.long	.LVL30-.Ltext0
 819 014a 0100      		.word	0x1
 820 014c 5E        		.byte	0x5e
 821 014d 0000 0000 		.long	0x0
 822 0151 0000 0000 		.long	0x0
 823               	.LLST14:
 824 0155 C800 0000 		.long	.LVL31-.Ltext0
 825 0159 DE00 0000 		.long	.LVL33-.Ltext0
 826 015d 0600      		.word	0x6
 827 015f 68        		.byte	0x68
 828 0160 93        		.byte	0x93
 829 0161 01        		.uleb128 0x1
 830 0162 69        		.byte	0x69
 831 0163 93        		.byte	0x93
 832 0164 01        		.uleb128 0x1
 833 0165 DE00 0000 		.long	.LVL33-.Ltext0
 834 0169 1C01 0000 		.long	.LVL38-.Ltext0
 835 016d 0600      		.word	0x6
 836 016f 6C        		.byte	0x6c
 837 0170 93        		.byte	0x93
 838 0171 01        		.uleb128 0x1
 839 0172 6D        		.byte	0x6d
 840 0173 93        		.byte	0x93
 841 0174 01        		.uleb128 0x1
 842 0175 1E01 0000 		.long	.LVL39-.Ltext0
 843 0179 3C01 0000 		.long	.LVL41-.Ltext0
 844 017d 0600      		.word	0x6
 845 017f 6C        		.byte	0x6c
 846 0180 93        		.byte	0x93
 847 0181 01        		.uleb128 0x1
 848 0182 6D        		.byte	0x6d
 849 0183 93        		.byte	0x93
 850 0184 01        		.uleb128 0x1
 851 0185 3E01 0000 		.long	.LVL42-.Ltext0
 852 0189 4A01 0000 		.long	.LVL43-.Ltext0
 853 018d 0600      		.word	0x6
 854 018f 6C        		.byte	0x6c
 855 0190 93        		.byte	0x93
GAS LISTING /tmp/ccTR6krr.s 			page 16


 856 0191 01        		.uleb128 0x1
 857 0192 6D        		.byte	0x6d
 858 0193 93        		.byte	0x93
 859 0194 01        		.uleb128 0x1
 860 0195 0000 0000 		.long	0x0
 861 0199 0000 0000 		.long	0x0
 862               	.LLST15:
 863 019d E400 0000 		.long	.LVL34-.Ltext0
 864 01a1 FA00 0000 		.long	.LVL35-.Ltext0
 865 01a5 0100      		.word	0x1
 866 01a7 68        		.byte	0x68
 867 01a8 2A01 0000 		.long	.LVL40-.Ltext0
 868 01ac 3E01 0000 		.long	.LVL42-.Ltext0
 869 01b0 0100      		.word	0x1
 870 01b2 68        		.byte	0x68
 871 01b3 0000 0000 		.long	0x0
 872 01b7 0000 0000 		.long	0x0
 873               	.LLST16:
 874 01bb 0001 0000 		.long	.LVL36-.Ltext0
 875 01bf 0E01 0000 		.long	.LVL37-.Ltext0
 876 01c3 0100      		.word	0x1
 877 01c5 68        		.byte	0x68
 878 01c6 0000 0000 		.long	0x0
 879 01ca 0000 0000 		.long	0x0
 880               	.LLST18:
 881 01ce 4C01 0000 		.long	.LVL44-.Ltext0
 882 01d2 6601 0000 		.long	.LVL46-.Ltext0
 883 01d6 0600      		.word	0x6
 884 01d8 68        		.byte	0x68
 885 01d9 93        		.byte	0x93
 886 01da 01        		.uleb128 0x1
 887 01db 69        		.byte	0x69
 888 01dc 93        		.byte	0x93
 889 01dd 01        		.uleb128 0x1
 890 01de 6601 0000 		.long	.LVL46-.Ltext0
 891 01e2 D801 0000 		.long	.LFE10-.Ltext0
 892 01e6 0600      		.word	0x6
 893 01e8 6A        		.byte	0x6a
 894 01e9 93        		.byte	0x93
 895 01ea 01        		.uleb128 0x1
 896 01eb 6B        		.byte	0x6b
 897 01ec 93        		.byte	0x93
 898 01ed 01        		.uleb128 0x1
 899 01ee 0000 0000 		.long	0x0
 900 01f2 0000 0000 		.long	0x0
 901               	.LLST19:
 902 01f6 4C01 0000 		.long	.LVL44-.Ltext0
 903 01fa 6601 0000 		.long	.LVL46-.Ltext0
 904 01fe 0600      		.word	0x6
 905 0200 66        		.byte	0x66
 906 0201 93        		.byte	0x93
 907 0202 01        		.uleb128 0x1
 908 0203 67        		.byte	0x67
 909 0204 93        		.byte	0x93
 910 0205 01        		.uleb128 0x1
 911 0206 6601 0000 		.long	.LVL46-.Ltext0
 912 020a BC01 0000 		.long	.LVL51-.Ltext0
GAS LISTING /tmp/ccTR6krr.s 			page 17


 913 020e 0600      		.word	0x6
 914 0210 6C        		.byte	0x6c
 915 0211 93        		.byte	0x93
 916 0212 01        		.uleb128 0x1
 917 0213 6D        		.byte	0x6d
 918 0214 93        		.byte	0x93
 919 0215 01        		.uleb128 0x1
 920 0216 BC01 0000 		.long	.LVL51-.Ltext0
 921 021a BE01 0000 		.long	.LVL52-.Ltext0
 922 021e 0600      		.word	0x6
 923 0220 66        		.byte	0x66
 924 0221 93        		.byte	0x93
 925 0222 01        		.uleb128 0x1
 926 0223 67        		.byte	0x67
 927 0224 93        		.byte	0x93
 928 0225 01        		.uleb128 0x1
 929 0226 BE01 0000 		.long	.LVL52-.Ltext0
 930 022a C401 0000 		.long	.LVL53-.Ltext0
 931 022e 0600      		.word	0x6
 932 0230 6C        		.byte	0x6c
 933 0231 93        		.byte	0x93
 934 0232 01        		.uleb128 0x1
 935 0233 6D        		.byte	0x6d
 936 0234 93        		.byte	0x93
 937 0235 01        		.uleb128 0x1
 938 0236 C401 0000 		.long	.LVL53-.Ltext0
 939 023a C601 0000 		.long	.LVL54-.Ltext0
 940 023e 0600      		.word	0x6
 941 0240 66        		.byte	0x66
 942 0241 93        		.byte	0x93
 943 0242 01        		.uleb128 0x1
 944 0243 67        		.byte	0x67
 945 0244 93        		.byte	0x93
 946 0245 01        		.uleb128 0x1
 947 0246 C601 0000 		.long	.LVL54-.Ltext0
 948 024a CC01 0000 		.long	.LVL55-.Ltext0
 949 024e 0600      		.word	0x6
 950 0250 6C        		.byte	0x6c
 951 0251 93        		.byte	0x93
 952 0252 01        		.uleb128 0x1
 953 0253 6D        		.byte	0x6d
 954 0254 93        		.byte	0x93
 955 0255 01        		.uleb128 0x1
 956 0256 CC01 0000 		.long	.LVL55-.Ltext0
 957 025a CE01 0000 		.long	.LVL56-.Ltext0
 958 025e 0600      		.word	0x6
 959 0260 66        		.byte	0x66
 960 0261 93        		.byte	0x93
 961 0262 01        		.uleb128 0x1
 962 0263 67        		.byte	0x67
 963 0264 93        		.byte	0x93
 964 0265 01        		.uleb128 0x1
 965 0266 CE01 0000 		.long	.LVL56-.Ltext0
 966 026a D801 0000 		.long	.LFE10-.Ltext0
 967 026e 0600      		.word	0x6
 968 0270 6C        		.byte	0x6c
 969 0271 93        		.byte	0x93
GAS LISTING /tmp/ccTR6krr.s 			page 18


 970 0272 01        		.uleb128 0x1
 971 0273 6D        		.byte	0x6d
 972 0274 93        		.byte	0x93
 973 0275 01        		.uleb128 0x1
 974 0276 0000 0000 		.long	0x0
 975 027a 0000 0000 		.long	0x0
 976               	.LLST20:
 977 027e B001 0000 		.long	.LVL49-.Ltext0
 978 0282 B801 0000 		.long	.LVL50-.Ltext0
 979 0286 0100      		.word	0x1
 980 0288 68        		.byte	0x68
 981 0289 0000 0000 		.long	0x0
 982 028d 0000 0000 		.long	0x0
 983               	.LLST21:
 984 0291 9001 0000 		.long	.LVL48-.Ltext0
 985 0295 B001 0000 		.long	.LVL49-.Ltext0
 986 0299 0100      		.word	0x1
 987 029b 68        		.byte	0x68
 988 029c 0000 0000 		.long	0x0
 989 02a0 0000 0000 		.long	0x0
 990               	.LLST23:
 991 02a4 D801 0000 		.long	.LVL57-.Ltext0
 992 02a8 EA01 0000 		.long	.LVL58-.Ltext0
 993 02ac 0600      		.word	0x6
 994 02ae 68        		.byte	0x68
 995 02af 93        		.byte	0x93
 996 02b0 01        		.uleb128 0x1
 997 02b1 69        		.byte	0x69
 998 02b2 93        		.byte	0x93
 999 02b3 01        		.uleb128 0x1
 1000 02b4 0000 0000 		.long	0x0
 1001 02b8 0000 0000 		.long	0x0
 1002               	.LLST24:
 1003 02bc F001 0000 		.long	.LVL59-.Ltext0
 1004 02c0 F001 0000 		.long	.LVL60-.Ltext0
 1005 02c4 0100      		.word	0x1
 1006 02c6 68        		.byte	0x68
 1007 02c7 0000 0000 		.long	0x0
 1008 02cb 0000 0000 		.long	0x0
 1009               	.LLST26:
 1010 02cf F201 0000 		.long	.LVL61-.Ltext0
 1011 02d3 0202 0000 		.long	.LVL62-.Ltext0
 1012 02d7 0600      		.word	0x6
 1013 02d9 68        		.byte	0x68
 1014 02da 93        		.byte	0x93
 1015 02db 01        		.uleb128 0x1
 1016 02dc 69        		.byte	0x69
 1017 02dd 93        		.byte	0x93
 1018 02de 01        		.uleb128 0x1
 1019 02df 0202 0000 		.long	.LVL62-.Ltext0
 1020 02e3 9C02 0000 		.long	.LFE12-.Ltext0
 1021 02e7 0600      		.word	0x6
 1022 02e9 6A        		.byte	0x6a
 1023 02ea 93        		.byte	0x93
 1024 02eb 01        		.uleb128 0x1
 1025 02ec 6B        		.byte	0x6b
 1026 02ed 93        		.byte	0x93
GAS LISTING /tmp/ccTR6krr.s 			page 19


 1027 02ee 01        		.uleb128 0x1
 1028 02ef 0000 0000 		.long	0x0
 1029 02f3 0000 0000 		.long	0x0
 1030               	.LLST27:
 1031 02f7 F201 0000 		.long	.LVL61-.Ltext0
 1032 02fb 1402 0000 		.long	.LVL64-.Ltext0
 1033 02ff 0600      		.word	0x6
 1034 0301 66        		.byte	0x66
 1035 0302 93        		.byte	0x93
 1036 0303 01        		.uleb128 0x1
 1037 0304 67        		.byte	0x67
 1038 0305 93        		.byte	0x93
 1039 0306 01        		.uleb128 0x1
 1040 0307 1402 0000 		.long	.LVL64-.Ltext0
 1041 030b 2802 0000 		.long	.LVL67-.Ltext0
 1042 030f 0600      		.word	0x6
 1043 0311 6E        		.byte	0x6e
 1044 0312 93        		.byte	0x93
 1045 0313 01        		.uleb128 0x1
 1046 0314 6F        		.byte	0x6f
 1047 0315 93        		.byte	0x93
 1048 0316 01        		.uleb128 0x1
 1049 0317 6602 0000 		.long	.LVL71-.Ltext0
 1050 031b 6E02 0000 		.long	.LVL72-.Ltext0
 1051 031f 0600      		.word	0x6
 1052 0321 6E        		.byte	0x6e
 1053 0322 93        		.byte	0x93
 1054 0323 01        		.uleb128 0x1
 1055 0324 6F        		.byte	0x6f
 1056 0325 93        		.byte	0x93
 1057 0326 01        		.uleb128 0x1
 1058 0327 9402 0000 		.long	.LVL75-.Ltext0
 1059 032b 9C02 0000 		.long	.LFE12-.Ltext0
 1060 032f 0600      		.word	0x6
 1061 0331 66        		.byte	0x66
 1062 0332 93        		.byte	0x93
 1063 0333 01        		.uleb128 0x1
 1064 0334 67        		.byte	0x67
 1065 0335 93        		.byte	0x93
 1066 0336 01        		.uleb128 0x1
 1067 0337 0000 0000 		.long	0x0
 1068 033b 0000 0000 		.long	0x0
 1069               	.LLST28:
 1070 033f 0C02 0000 		.long	.LVL63-.Ltext0
 1071 0343 9402 0000 		.long	.LVL75-.Ltext0
 1072 0347 0100      		.word	0x1
 1073 0349 69        		.byte	0x69
 1074 034a 0000 0000 		.long	0x0
 1075 034e 0000 0000 		.long	0x0
 1076               	.LLST29:
 1077 0352 8202 0000 		.long	.LVL73-.Ltext0
 1078 0356 9402 0000 		.long	.LVL75-.Ltext0
 1079 035a 0100      		.word	0x1
 1080 035c 66        		.byte	0x66
 1081 035d 0000 0000 		.long	0x0
 1082 0361 0000 0000 		.long	0x0
 1083               	.LLST30:
GAS LISTING /tmp/ccTR6krr.s 			page 20


 1084 0365 1802 0000 		.long	.LVL65-.Ltext0
 1085 0369 9402 0000 		.long	.LVL75-.Ltext0
 1086 036d 0100      		.word	0x1
 1087 036f 66        		.byte	0x66
 1088 0370 0000 0000 		.long	0x0
 1089 0374 0000 0000 		.long	0x0
 1090               	.LLST31:
 1091 0378 2002 0000 		.long	.LVL66-.Ltext0
 1092 037c 4402 0000 		.long	.LVL69-.Ltext0
 1093 0380 0100      		.word	0x1
 1094 0382 68        		.byte	0x68
 1095 0383 4A02 0000 		.long	.LVL70-.Ltext0
 1096 0387 8C02 0000 		.long	.LVL74-.Ltext0
 1097 038b 0100      		.word	0x1
 1098 038d 68        		.byte	0x68
 1099 038e 0000 0000 		.long	0x0
 1100 0392 0000 0000 		.long	0x0
 1101               		.section	.debug_info
 1102 0000 3F07 0000 		.long	0x73f
 1103 0004 0200      		.word	0x2
 1104 0006 0000 0000 		.long	.Ldebug_abbrev0
 1105 000a 04        		.byte	0x4
 1106 000b 01        		.uleb128 0x1
 1107 000c 0000 0000 		.long	.LASF87
 1108 0010 01        		.byte	0x1
 1109 0011 0000 0000 		.long	.LASF88
 1110 0015 0000 0000 		.long	.LASF89
 1111 0019 0000 0000 		.long	.Ltext0
 1112 001d 0000 0000 		.long	.Letext0
 1113 0021 0000 0000 		.long	.Ldebug_line0
 1114 0025 02        		.uleb128 0x2
 1115 0026 01        		.byte	0x1
 1116 0027 06        		.byte	0x6
 1117 0028 0000 0000 		.long	.LASF0
 1118 002c 03        		.uleb128 0x3
 1119 002d 0000 0000 		.long	.LASF28
 1120 0031 03        		.byte	0x3
 1121 0032 7A        		.byte	0x7a
 1122 0033 3700 0000 		.long	0x37
 1123 0037 02        		.uleb128 0x2
 1124 0038 01        		.byte	0x1
 1125 0039 08        		.byte	0x8
 1126 003a 0000 0000 		.long	.LASF1
 1127 003e 04        		.uleb128 0x4
 1128 003f 02        		.byte	0x2
 1129 0040 05        		.byte	0x5
 1130 0041 696E 7400 		.string	"int"
 1131 0045 02        		.uleb128 0x2
 1132 0046 02        		.byte	0x2
 1133 0047 07        		.byte	0x7
 1134 0048 0000 0000 		.long	.LASF2
 1135 004c 02        		.uleb128 0x2
 1136 004d 04        		.byte	0x4
 1137 004e 05        		.byte	0x5
 1138 004f 0000 0000 		.long	.LASF3
 1139 0053 02        		.uleb128 0x2
 1140 0054 04        		.byte	0x4
GAS LISTING /tmp/ccTR6krr.s 			page 21


 1141 0055 07        		.byte	0x7
 1142 0056 0000 0000 		.long	.LASF4
 1143 005a 02        		.uleb128 0x2
 1144 005b 08        		.byte	0x8
 1145 005c 05        		.byte	0x5
 1146 005d 0000 0000 		.long	.LASF5
 1147 0061 02        		.uleb128 0x2
 1148 0062 08        		.byte	0x8
 1149 0063 07        		.byte	0x7
 1150 0064 0000 0000 		.long	.LASF6
 1151 0068 05        		.uleb128 0x5
 1152 0069 2C00 0000 		.long	0x2c
 1153 006d 05        		.uleb128 0x5
 1154 006e 3700 0000 		.long	0x37
 1155 0072 06        		.uleb128 0x6
 1156 0073 0000 0000 		.long	.LASF30
 1157 0077 18        		.byte	0x18
 1158 0078 02        		.byte	0x2
 1159 0079 5D07      		.word	0x75d
 1160 007b E701 0000 		.long	0x1e7
 1161 007f 07        		.uleb128 0x7
 1162 0080 4449 5200 		.string	"DIR"
 1163 0084 02        		.byte	0x2
 1164 0085 5E07      		.word	0x75e
 1165 0087 6D00 0000 		.long	0x6d
 1166 008b 02        		.byte	0x2
 1167 008c 23        		.byte	0x23
 1168 008d 00        		.uleb128 0x0
 1169 008e 08        		.uleb128 0x8
 1170 008f 0000 0000 		.long	.LASF7
 1171 0093 02        		.byte	0x2
 1172 0094 5F07      		.word	0x75f
 1173 0096 6D00 0000 		.long	0x6d
 1174 009a 02        		.byte	0x2
 1175 009b 23        		.byte	0x23
 1176 009c 01        		.uleb128 0x1
 1177 009d 08        		.uleb128 0x8
 1178 009e 0000 0000 		.long	.LASF8
 1179 00a2 02        		.byte	0x2
 1180 00a3 6007      		.word	0x760
 1181 00a5 6D00 0000 		.long	0x6d
 1182 00a9 02        		.byte	0x2
 1183 00aa 23        		.byte	0x23
 1184 00ab 02        		.uleb128 0x2
 1185 00ac 08        		.uleb128 0x8
 1186 00ad 0000 0000 		.long	.LASF9
 1187 00b1 02        		.byte	0x2
 1188 00b2 6107      		.word	0x761
 1189 00b4 6D00 0000 		.long	0x6d
 1190 00b8 02        		.byte	0x2
 1191 00b9 23        		.byte	0x23
 1192 00ba 03        		.uleb128 0x3
 1193 00bb 07        		.uleb128 0x7
 1194 00bc 4F55 5400 		.string	"OUT"
 1195 00c0 02        		.byte	0x2
 1196 00c1 6207      		.word	0x762
 1197 00c3 6D00 0000 		.long	0x6d
GAS LISTING /tmp/ccTR6krr.s 			page 22


 1198 00c7 02        		.byte	0x2
 1199 00c8 23        		.byte	0x23
 1200 00c9 04        		.uleb128 0x4
 1201 00ca 08        		.uleb128 0x8
 1202 00cb 0000 0000 		.long	.LASF10
 1203 00cf 02        		.byte	0x2
 1204 00d0 6307      		.word	0x763
 1205 00d2 6D00 0000 		.long	0x6d
 1206 00d6 02        		.byte	0x2
 1207 00d7 23        		.byte	0x23
 1208 00d8 05        		.uleb128 0x5
 1209 00d9 08        		.uleb128 0x8
 1210 00da 0000 0000 		.long	.LASF11
 1211 00de 02        		.byte	0x2
 1212 00df 6407      		.word	0x764
 1213 00e1 6D00 0000 		.long	0x6d
 1214 00e5 02        		.byte	0x2
 1215 00e6 23        		.byte	0x23
 1216 00e7 06        		.uleb128 0x6
 1217 00e8 08        		.uleb128 0x8
 1218 00e9 0000 0000 		.long	.LASF12
 1219 00ed 02        		.byte	0x2
 1220 00ee 6507      		.word	0x765
 1221 00f0 6D00 0000 		.long	0x6d
 1222 00f4 02        		.byte	0x2
 1223 00f5 23        		.byte	0x23
 1224 00f6 07        		.uleb128 0x7
 1225 00f7 07        		.uleb128 0x7
 1226 00f8 494E 00   		.string	"IN"
 1227 00fb 02        		.byte	0x2
 1228 00fc 6607      		.word	0x766
 1229 00fe 6D00 0000 		.long	0x6d
 1230 0102 02        		.byte	0x2
 1231 0103 23        		.byte	0x23
 1232 0104 08        		.uleb128 0x8
 1233 0105 08        		.uleb128 0x8
 1234 0106 0000 0000 		.long	.LASF13
 1235 010a 02        		.byte	0x2
 1236 010b 6707      		.word	0x767
 1237 010d 6D00 0000 		.long	0x6d
 1238 0111 02        		.byte	0x2
 1239 0112 23        		.byte	0x23
 1240 0113 09        		.uleb128 0x9
 1241 0114 08        		.uleb128 0x8
 1242 0115 0000 0000 		.long	.LASF14
 1243 0119 02        		.byte	0x2
 1244 011a 6807      		.word	0x768
 1245 011c 6D00 0000 		.long	0x6d
 1246 0120 02        		.byte	0x2
 1247 0121 23        		.byte	0x23
 1248 0122 0A        		.uleb128 0xa
 1249 0123 08        		.uleb128 0x8
 1250 0124 0000 0000 		.long	.LASF15
 1251 0128 02        		.byte	0x2
 1252 0129 6907      		.word	0x769
 1253 012b 6D00 0000 		.long	0x6d
 1254 012f 02        		.byte	0x2
GAS LISTING /tmp/ccTR6krr.s 			page 23


 1255 0130 23        		.byte	0x23
 1256 0131 0B        		.uleb128 0xb
 1257 0132 08        		.uleb128 0x8
 1258 0133 0000 0000 		.long	.LASF16
 1259 0137 02        		.byte	0x2
 1260 0138 6A07      		.word	0x76a
 1261 013a 6D00 0000 		.long	0x6d
 1262 013e 02        		.byte	0x2
 1263 013f 23        		.byte	0x23
 1264 0140 0C        		.uleb128 0xc
 1265 0141 08        		.uleb128 0x8
 1266 0142 0000 0000 		.long	.LASF17
 1267 0146 02        		.byte	0x2
 1268 0147 6B07      		.word	0x76b
 1269 0149 6D00 0000 		.long	0x6d
 1270 014d 02        		.byte	0x2
 1271 014e 23        		.byte	0x23
 1272 014f 0D        		.uleb128 0xd
 1273 0150 08        		.uleb128 0x8
 1274 0151 0000 0000 		.long	.LASF18
 1275 0155 02        		.byte	0x2
 1276 0156 6C07      		.word	0x76c
 1277 0158 6D00 0000 		.long	0x6d
 1278 015c 02        		.byte	0x2
 1279 015d 23        		.byte	0x23
 1280 015e 0E        		.uleb128 0xe
 1281 015f 08        		.uleb128 0x8
 1282 0160 0000 0000 		.long	.LASF19
 1283 0164 02        		.byte	0x2
 1284 0165 6D07      		.word	0x76d
 1285 0167 6D00 0000 		.long	0x6d
 1286 016b 02        		.byte	0x2
 1287 016c 23        		.byte	0x23
 1288 016d 0F        		.uleb128 0xf
 1289 016e 08        		.uleb128 0x8
 1290 016f 0000 0000 		.long	.LASF20
 1291 0173 02        		.byte	0x2
 1292 0174 6E07      		.word	0x76e
 1293 0176 6D00 0000 		.long	0x6d
 1294 017a 02        		.byte	0x2
 1295 017b 23        		.byte	0x23
 1296 017c 10        		.uleb128 0x10
 1297 017d 08        		.uleb128 0x8
 1298 017e 0000 0000 		.long	.LASF21
 1299 0182 02        		.byte	0x2
 1300 0183 6F07      		.word	0x76f
 1301 0185 6D00 0000 		.long	0x6d
 1302 0189 02        		.byte	0x2
 1303 018a 23        		.byte	0x23
 1304 018b 11        		.uleb128 0x11
 1305 018c 08        		.uleb128 0x8
 1306 018d 0000 0000 		.long	.LASF22
 1307 0191 02        		.byte	0x2
 1308 0192 7007      		.word	0x770
 1309 0194 6D00 0000 		.long	0x6d
 1310 0198 02        		.byte	0x2
 1311 0199 23        		.byte	0x23
GAS LISTING /tmp/ccTR6krr.s 			page 24


 1312 019a 12        		.uleb128 0x12
 1313 019b 08        		.uleb128 0x8
 1314 019c 0000 0000 		.long	.LASF23
 1315 01a0 02        		.byte	0x2
 1316 01a1 7107      		.word	0x771
 1317 01a3 6D00 0000 		.long	0x6d
 1318 01a7 02        		.byte	0x2
 1319 01a8 23        		.byte	0x23
 1320 01a9 13        		.uleb128 0x13
 1321 01aa 08        		.uleb128 0x8
 1322 01ab 0000 0000 		.long	.LASF24
 1323 01af 02        		.byte	0x2
 1324 01b0 7207      		.word	0x772
 1325 01b2 6D00 0000 		.long	0x6d
 1326 01b6 02        		.byte	0x2
 1327 01b7 23        		.byte	0x23
 1328 01b8 14        		.uleb128 0x14
 1329 01b9 08        		.uleb128 0x8
 1330 01ba 0000 0000 		.long	.LASF25
 1331 01be 02        		.byte	0x2
 1332 01bf 7307      		.word	0x773
 1333 01c1 6D00 0000 		.long	0x6d
 1334 01c5 02        		.byte	0x2
 1335 01c6 23        		.byte	0x23
 1336 01c7 15        		.uleb128 0x15
 1337 01c8 08        		.uleb128 0x8
 1338 01c9 0000 0000 		.long	.LASF26
 1339 01cd 02        		.byte	0x2
 1340 01ce 7407      		.word	0x774
 1341 01d0 6D00 0000 		.long	0x6d
 1342 01d4 02        		.byte	0x2
 1343 01d5 23        		.byte	0x23
 1344 01d6 16        		.uleb128 0x16
 1345 01d7 08        		.uleb128 0x8
 1346 01d8 0000 0000 		.long	.LASF27
 1347 01dc 02        		.byte	0x2
 1348 01dd 7507      		.word	0x775
 1349 01df 6D00 0000 		.long	0x6d
 1350 01e3 02        		.byte	0x2
 1351 01e4 23        		.byte	0x23
 1352 01e5 17        		.uleb128 0x17
 1353 01e6 00        		.byte	0x0
 1354 01e7 09        		.uleb128 0x9
 1355 01e8 0000 0000 		.long	.LASF29
 1356 01ec 02        		.byte	0x2
 1357 01ed 7607      		.word	0x776
 1358 01ef 7200 0000 		.long	0x72
 1359 01f3 06        		.uleb128 0x6
 1360 01f4 0000 0000 		.long	.LASF31
 1361 01f8 04        		.byte	0x4
 1362 01f9 02        		.byte	0x2
 1363 01fa 8909      		.word	0x989
 1364 01fc 3D02 0000 		.long	0x23d
 1365 0200 08        		.uleb128 0x8
 1366 0201 0000 0000 		.long	.LASF32
 1367 0205 02        		.byte	0x2
 1368 0206 8A09      		.word	0x98a
GAS LISTING /tmp/ccTR6krr.s 			page 25


 1369 0208 6D00 0000 		.long	0x6d
 1370 020c 02        		.byte	0x2
 1371 020d 23        		.byte	0x23
 1372 020e 00        		.uleb128 0x0
 1373 020f 08        		.uleb128 0x8
 1374 0210 0000 0000 		.long	.LASF13
 1375 0214 02        		.byte	0x2
 1376 0215 8B09      		.word	0x98b
 1377 0217 6D00 0000 		.long	0x6d
 1378 021b 02        		.byte	0x2
 1379 021c 23        		.byte	0x23
 1380 021d 01        		.uleb128 0x1
 1381 021e 08        		.uleb128 0x8
 1382 021f 0000 0000 		.long	.LASF33
 1383 0223 02        		.byte	0x2
 1384 0224 8C09      		.word	0x98c
 1385 0226 6D00 0000 		.long	0x6d
 1386 022a 02        		.byte	0x2
 1387 022b 23        		.byte	0x23
 1388 022c 02        		.uleb128 0x2
 1389 022d 08        		.uleb128 0x8
 1390 022e 0000 0000 		.long	.LASF34
 1391 0232 02        		.byte	0x2
 1392 0233 8D09      		.word	0x98d
 1393 0235 6D00 0000 		.long	0x6d
 1394 0239 02        		.byte	0x2
 1395 023a 23        		.byte	0x23
 1396 023b 03        		.uleb128 0x3
 1397 023c 00        		.byte	0x0
 1398 023d 09        		.uleb128 0x9
 1399 023e 0000 0000 		.long	.LASF35
 1400 0242 02        		.byte	0x2
 1401 0243 8E09      		.word	0x98e
 1402 0245 F301 0000 		.long	0x1f3
 1403 0249 0A        		.uleb128 0xa
 1404 024a 0000 0000 		.long	.LASF41
 1405 024e 01        		.byte	0x1
 1406 024f 02        		.byte	0x2
 1407 0250 9209      		.word	0x992
 1408 0252 6F02 0000 		.long	0x26f
 1409 0256 0B        		.uleb128 0xb
 1410 0257 0000 0000 		.long	.LASF36
 1411 025b 00        		.sleb128 0
 1412 025c 0B        		.uleb128 0xb
 1413 025d 0000 0000 		.long	.LASF37
 1414 0261 04        		.sleb128 4
 1415 0262 0B        		.uleb128 0xb
 1416 0263 0000 0000 		.long	.LASF38
 1417 0267 08        		.sleb128 8
 1418 0268 0B        		.uleb128 0xb
 1419 0269 0000 0000 		.long	.LASF39
 1420 026d 0C        		.sleb128 12
 1421 026e 00        		.byte	0x0
 1422 026f 09        		.uleb128 0x9
 1423 0270 0000 0000 		.long	.LASF40
 1424 0274 02        		.byte	0x2
 1425 0275 9709      		.word	0x997
GAS LISTING /tmp/ccTR6krr.s 			page 26


 1426 0277 4902 0000 		.long	0x249
 1427 027b 0A        		.uleb128 0xa
 1428 027c 0000 0000 		.long	.LASF42
 1429 0280 01        		.byte	0x1
 1430 0281 02        		.byte	0x2
 1431 0282 9B09      		.word	0x99b
 1432 0284 A102 0000 		.long	0x2a1
 1433 0288 0B        		.uleb128 0xb
 1434 0289 0000 0000 		.long	.LASF43
 1435 028d 00        		.sleb128 0
 1436 028e 0B        		.uleb128 0xb
 1437 028f 0000 0000 		.long	.LASF44
 1438 0293 01        		.sleb128 1
 1439 0294 0B        		.uleb128 0xb
 1440 0295 0000 0000 		.long	.LASF45
 1441 0299 02        		.sleb128 2
 1442 029a 0B        		.uleb128 0xb
 1443 029b 0000 0000 		.long	.LASF46
 1444 029f 03        		.sleb128 3
 1445 02a0 00        		.byte	0x0
 1446 02a1 09        		.uleb128 0x9
 1447 02a2 0000 0000 		.long	.LASF47
 1448 02a6 02        		.byte	0x2
 1449 02a7 A009      		.word	0x9a0
 1450 02a9 7B02 0000 		.long	0x27b
 1451 02ad 0A        		.uleb128 0xa
 1452 02ae 0000 0000 		.long	.LASF48
 1453 02b2 01        		.byte	0x1
 1454 02b3 02        		.byte	0x2
 1455 02b4 A409      		.word	0x9a4
 1456 02b6 D302 0000 		.long	0x2d3
 1457 02ba 0B        		.uleb128 0xb
 1458 02bb 0000 0000 		.long	.LASF49
 1459 02bf 00        		.sleb128 0
 1460 02c0 0B        		.uleb128 0xb
 1461 02c1 0000 0000 		.long	.LASF50
 1462 02c5 01        		.sleb128 1
 1463 02c6 0B        		.uleb128 0xb
 1464 02c7 0000 0000 		.long	.LASF51
 1465 02cb 02        		.sleb128 2
 1466 02cc 0B        		.uleb128 0xb
 1467 02cd 0000 0000 		.long	.LASF52
 1468 02d1 03        		.sleb128 3
 1469 02d2 00        		.byte	0x0
 1470 02d3 09        		.uleb128 0x9
 1471 02d4 0000 0000 		.long	.LASF53
 1472 02d8 02        		.byte	0x2
 1473 02d9 A909      		.word	0x9a9
 1474 02db AD02 0000 		.long	0x2ad
 1475 02df 0C        		.uleb128 0xc
 1476 02e0 02        		.byte	0x2
 1477 02e1 07        		.byte	0x7
 1478 02e2 0C        		.uleb128 0xc
 1479 02e3 01        		.byte	0x1
 1480 02e4 08        		.byte	0x8
 1481 02e5 0D        		.uleb128 0xd
 1482 02e6 0000 0000 		.long	.LASF54
GAS LISTING /tmp/ccTR6krr.s 			page 27


 1483 02ea 0A        		.byte	0xa
 1484 02eb 04        		.byte	0x4
 1485 02ec 50        		.byte	0x50
 1486 02ed 5403 0000 		.long	0x354
 1487 02f1 0E        		.uleb128 0xe
 1488 02f2 0000 0000 		.long	.LASF55
 1489 02f6 04        		.byte	0x4
 1490 02f7 51        		.byte	0x51
 1491 02f8 5403 0000 		.long	0x354
 1492 02fc 02        		.byte	0x2
 1493 02fd 23        		.byte	0x23
 1494 02fe 00        		.uleb128 0x0
 1495 02ff 0E        		.uleb128 0xe
 1496 0300 0000 0000 		.long	.LASF56
 1497 0304 04        		.byte	0x4
 1498 0305 52        		.byte	0x52
 1499 0306 2C00 0000 		.long	0x2c
 1500 030a 02        		.byte	0x2
 1501 030b 23        		.byte	0x23
 1502 030c 02        		.uleb128 0x2
 1503 030d 0E        		.uleb128 0xe
 1504 030e 0000 0000 		.long	.LASF57
 1505 0312 04        		.byte	0x4
 1506 0313 53        		.byte	0x53
 1507 0314 5A03 0000 		.long	0x35a
 1508 0318 02        		.byte	0x2
 1509 0319 23        		.byte	0x23
 1510 031a 03        		.uleb128 0x3
 1511 031b 0E        		.uleb128 0xe
 1512 031c 0000 0000 		.long	.LASF58
 1513 0320 04        		.byte	0x4
 1514 0321 54        		.byte	0x54
 1515 0322 6503 0000 		.long	0x365
 1516 0326 02        		.byte	0x2
 1517 0327 23        		.byte	0x23
 1518 0328 05        		.uleb128 0x5
 1519 0329 0E        		.uleb128 0xe
 1520 032a 0000 0000 		.long	.LASF59
 1521 032e 04        		.byte	0x4
 1522 032f 55        		.byte	0x55
 1523 0330 6800 0000 		.long	0x68
 1524 0334 02        		.byte	0x2
 1525 0335 23        		.byte	0x23
 1526 0336 07        		.uleb128 0x7
 1527 0337 0E        		.uleb128 0xe
 1528 0338 0000 0000 		.long	.LASF60
 1529 033c 04        		.byte	0x4
 1530 033d 56        		.byte	0x56
 1531 033e 6800 0000 		.long	0x68
 1532 0342 02        		.byte	0x2
 1533 0343 23        		.byte	0x23
 1534 0344 08        		.uleb128 0x8
 1535 0345 0E        		.uleb128 0xe
 1536 0346 0000 0000 		.long	.LASF61
 1537 034a 04        		.byte	0x4
 1538 034b 57        		.byte	0x57
 1539 034c 6B03 0000 		.long	0x36b
GAS LISTING /tmp/ccTR6krr.s 			page 28


 1540 0350 02        		.byte	0x2
 1541 0351 23        		.byte	0x23
 1542 0352 09        		.uleb128 0x9
 1543 0353 00        		.byte	0x0
 1544 0354 0F        		.uleb128 0xf
 1545 0355 02        		.byte	0x2
 1546 0356 E701 0000 		.long	0x1e7
 1547 035a 0F        		.uleb128 0xf
 1548 035b 02        		.byte	0x2
 1549 035c 6003 0000 		.long	0x360
 1550 0360 10        		.uleb128 0x10
 1551 0361 2C00 0000 		.long	0x2c
 1552 0365 0F        		.uleb128 0xf
 1553 0366 02        		.byte	0x2
 1554 0367 6800 0000 		.long	0x68
 1555 036b 05        		.uleb128 0x5
 1556 036c 7003 0000 		.long	0x370
 1557 0370 02        		.uleb128 0x2
 1558 0371 01        		.byte	0x1
 1559 0372 02        		.byte	0x2
 1560 0373 0000 0000 		.long	.LASF62
 1561 0377 03        		.uleb128 0x3
 1562 0378 0000 0000 		.long	.LASF63
 1563 037c 04        		.byte	0x4
 1564 037d 58        		.byte	0x58
 1565 037e E502 0000 		.long	0x2e5
 1566 0382 0D        		.uleb128 0xd
 1567 0383 0000 0000 		.long	.LASF64
 1568 0387 07        		.byte	0x7
 1569 0388 04        		.byte	0x4
 1570 0389 5D        		.byte	0x5d
 1571 038a C703 0000 		.long	0x3c7
 1572 038e 0E        		.uleb128 0xe
 1573 038f 0000 0000 		.long	.LASF65
 1574 0393 04        		.byte	0x4
 1575 0394 5E        		.byte	0x5e
 1576 0395 C703 0000 		.long	0x3c7
 1577 0399 02        		.byte	0x2
 1578 039a 23        		.byte	0x23
 1579 039b 00        		.uleb128 0x0
 1580 039c 0E        		.uleb128 0xe
 1581 039d 0000 0000 		.long	.LASF66
 1582 03a1 04        		.byte	0x4
 1583 03a2 5F        		.byte	0x5f
 1584 03a3 5403 0000 		.long	0x354
 1585 03a7 02        		.byte	0x2
 1586 03a8 23        		.byte	0x23
 1587 03a9 02        		.uleb128 0x2
 1588 03aa 0E        		.uleb128 0xe
 1589 03ab 0000 0000 		.long	.LASF67
 1590 03af 04        		.byte	0x4
 1591 03b0 60        		.byte	0x60
 1592 03b1 7003 0000 		.long	0x370
 1593 03b5 02        		.byte	0x2
 1594 03b6 23        		.byte	0x23
 1595 03b7 04        		.uleb128 0x4
 1596 03b8 0E        		.uleb128 0xe
GAS LISTING /tmp/ccTR6krr.s 			page 29


 1597 03b9 0000 0000 		.long	.LASF68
 1598 03bd 04        		.byte	0x4
 1599 03be 61        		.byte	0x61
 1600 03bf CD03 0000 		.long	0x3cd
 1601 03c3 02        		.byte	0x2
 1602 03c4 23        		.byte	0x23
 1603 03c5 05        		.uleb128 0x5
 1604 03c6 00        		.byte	0x0
 1605 03c7 0F        		.uleb128 0xf
 1606 03c8 02        		.byte	0x2
 1607 03c9 3D02 0000 		.long	0x23d
 1608 03cd 0F        		.uleb128 0xf
 1609 03ce 02        		.byte	0x2
 1610 03cf 7703 0000 		.long	0x377
 1611 03d3 03        		.uleb128 0x3
 1612 03d4 0000 0000 		.long	.LASF69
 1613 03d8 04        		.byte	0x4
 1614 03d9 62        		.byte	0x62
 1615 03da 8203 0000 		.long	0x382
 1616 03de 0D        		.uleb128 0xd
 1617 03df 0000 0000 		.long	.LASF70
 1618 03e3 04        		.byte	0x4
 1619 03e4 04        		.byte	0x4
 1620 03e5 67        		.byte	0x67
 1621 03e6 0704 0000 		.long	0x407
 1622 03ea 0E        		.uleb128 0xe
 1623 03eb 0000 0000 		.long	.LASF65
 1624 03ef 04        		.byte	0x4
 1625 03f0 68        		.byte	0x68
 1626 03f1 C703 0000 		.long	0x3c7
 1627 03f5 02        		.byte	0x2
 1628 03f6 23        		.byte	0x23
 1629 03f7 00        		.uleb128 0x0
 1630 03f8 0E        		.uleb128 0xe
 1631 03f9 0000 0000 		.long	.LASF66
 1632 03fd 04        		.byte	0x4
 1633 03fe 69        		.byte	0x69
 1634 03ff 5403 0000 		.long	0x354
 1635 0403 02        		.byte	0x2
 1636 0404 23        		.byte	0x23
 1637 0405 02        		.uleb128 0x2
 1638 0406 00        		.byte	0x0
 1639 0407 03        		.uleb128 0x3
 1640 0408 0000 0000 		.long	.LASF71
 1641 040c 04        		.byte	0x4
 1642 040d 6A        		.byte	0x6a
 1643 040e DE03 0000 		.long	0x3de
 1644 0412 11        		.uleb128 0x11
 1645 0413 01        		.byte	0x1
 1646 0414 0000 0000 		.long	.LASF77
 1647 0418 01        		.byte	0x1
 1648 0419 5F        		.byte	0x5f
 1649 041a 01        		.byte	0x1
 1650 041b 0000 0000 		.long	.LFB6
 1651 041f 0000 0000 		.long	.LFE6
 1652 0423 02        		.byte	0x2
 1653 0424 90        		.byte	0x90
GAS LISTING /tmp/ccTR6krr.s 			page 30


 1654 0425 20        		.uleb128 0x20
 1655 0426 A704 0000 		.long	0x4a7
 1656 042a 12        		.uleb128 0x12
 1657 042b 7370 6900 		.string	"spi"
 1658 042f 01        		.byte	0x1
 1659 0430 57        		.byte	0x57
 1660 0431 A704 0000 		.long	0x4a7
 1661 0435 0000 0000 		.long	.LLST1
 1662 0439 13        		.uleb128 0x13
 1663 043a 0000 0000 		.long	.LASF65
 1664 043e 01        		.byte	0x1
 1665 043f 58        		.byte	0x58
 1666 0440 C703 0000 		.long	0x3c7
 1667 0444 06        		.byte	0x6
 1668 0445 66        		.byte	0x66
 1669 0446 93        		.byte	0x93
 1670 0447 01        		.uleb128 0x1
 1671 0448 67        		.byte	0x67
 1672 0449 93        		.byte	0x93
 1673 044a 01        		.uleb128 0x1
 1674 044b 13        		.uleb128 0x13
 1675 044c 0000 0000 		.long	.LASF66
 1676 0450 01        		.byte	0x1
 1677 0451 59        		.byte	0x59
 1678 0452 5403 0000 		.long	0x354
 1679 0456 06        		.byte	0x6
 1680 0457 64        		.byte	0x64
 1681 0458 93        		.byte	0x93
 1682 0459 01        		.uleb128 0x1
 1683 045a 65        		.byte	0x65
 1684 045b 93        		.byte	0x93
 1685 045c 01        		.uleb128 0x1
 1686 045d 13        		.uleb128 0x13
 1687 045e 0000 0000 		.long	.LASF72
 1688 0462 01        		.byte	0x1
 1689 0463 5A        		.byte	0x5a
 1690 0464 7003 0000 		.long	0x370
 1691 0468 01        		.byte	0x1
 1692 0469 62        		.byte	0x62
 1693 046a 14        		.uleb128 0x14
 1694 046b 0000 0000 		.long	.LASF73
 1695 046f 01        		.byte	0x1
 1696 0470 5B        		.byte	0x5b
 1697 0471 6F02 0000 		.long	0x26f
 1698 0475 0000 0000 		.long	.LLST2
 1699 0479 14        		.uleb128 0x14
 1700 047a 0000 0000 		.long	.LASF74
 1701 047e 01        		.byte	0x1
 1702 047f 5C        		.byte	0x5c
 1703 0480 D302 0000 		.long	0x2d3
 1704 0484 0000 0000 		.long	.LLST3
 1705 0488 14        		.uleb128 0x14
 1706 0489 0000 0000 		.long	.LASF75
 1707 048d 01        		.byte	0x1
 1708 048e 5D        		.byte	0x5d
 1709 048f 7003 0000 		.long	0x370
 1710 0493 0000 0000 		.long	.LLST4
GAS LISTING /tmp/ccTR6krr.s 			page 31


 1711 0497 14        		.uleb128 0x14
 1712 0498 0000 0000 		.long	.LASF76
 1713 049c 01        		.byte	0x1
 1714 049d 5E        		.byte	0x5e
 1715 049e A102 0000 		.long	0x2a1
 1716 04a2 0000 0000 		.long	.LLST5
 1717 04a6 00        		.byte	0x0
 1718 04a7 0F        		.uleb128 0xf
 1719 04a8 02        		.byte	0x2
 1720 04a9 D303 0000 		.long	0x3d3
 1721 04ad 11        		.uleb128 0x11
 1722 04ae 01        		.byte	0x1
 1723 04af 0000 0000 		.long	.LASF78
 1724 04b3 01        		.byte	0x1
 1725 04b4 8A        		.byte	0x8a
 1726 04b5 01        		.byte	0x1
 1727 04b6 0000 0000 		.long	.LFB7
 1728 04ba 0000 0000 		.long	.LFE7
 1729 04be 02        		.byte	0x2
 1730 04bf 90        		.byte	0x90
 1731 04c0 20        		.uleb128 0x20
 1732 04c1 2405 0000 		.long	0x524
 1733 04c5 12        		.uleb128 0x12
 1734 04c6 7370 6900 		.string	"spi"
 1735 04ca 01        		.byte	0x1
 1736 04cb 84        		.byte	0x84
 1737 04cc 2405 0000 		.long	0x524
 1738 04d0 0000 0000 		.long	.LLST7
 1739 04d4 13        		.uleb128 0x13
 1740 04d5 0000 0000 		.long	.LASF65
 1741 04d9 01        		.byte	0x1
 1742 04da 85        		.byte	0x85
 1743 04db C703 0000 		.long	0x3c7
 1744 04df 06        		.byte	0x6
 1745 04e0 66        		.byte	0x66
 1746 04e1 93        		.byte	0x93
 1747 04e2 01        		.uleb128 0x1
 1748 04e3 67        		.byte	0x67
 1749 04e4 93        		.byte	0x93
 1750 04e5 01        		.uleb128 0x1
 1751 04e6 13        		.uleb128 0x13
 1752 04e7 0000 0000 		.long	.LASF66
 1753 04eb 01        		.byte	0x1
 1754 04ec 86        		.byte	0x86
 1755 04ed 5403 0000 		.long	0x354
 1756 04f1 06        		.byte	0x6
 1757 04f2 64        		.byte	0x64
 1758 04f3 93        		.byte	0x93
 1759 04f4 01        		.uleb128 0x1
 1760 04f5 65        		.byte	0x65
 1761 04f6 93        		.byte	0x93
 1762 04f7 01        		.uleb128 0x1
 1763 04f8 13        		.uleb128 0x13
 1764 04f9 0000 0000 		.long	.LASF72
 1765 04fd 01        		.byte	0x1
 1766 04fe 87        		.byte	0x87
 1767 04ff 7003 0000 		.long	0x370
GAS LISTING /tmp/ccTR6krr.s 			page 32


 1768 0503 01        		.byte	0x1
 1769 0504 62        		.byte	0x62
 1770 0505 14        		.uleb128 0x14
 1771 0506 0000 0000 		.long	.LASF73
 1772 050a 01        		.byte	0x1
 1773 050b 88        		.byte	0x88
 1774 050c 6F02 0000 		.long	0x26f
 1775 0510 0000 0000 		.long	.LLST8
 1776 0514 14        		.uleb128 0x14
 1777 0515 0000 0000 		.long	.LASF74
 1778 0519 01        		.byte	0x1
 1779 051a 89        		.byte	0x89
 1780 051b D302 0000 		.long	0x2d3
 1781 051f 0000 0000 		.long	.LLST9
 1782 0523 00        		.byte	0x0
 1783 0524 0F        		.uleb128 0xf
 1784 0525 02        		.byte	0x2
 1785 0526 0704 0000 		.long	0x407
 1786 052a 11        		.uleb128 0x11
 1787 052b 01        		.byte	0x1
 1788 052c 0000 0000 		.long	.LASF79
 1789 0530 01        		.byte	0x1
 1790 0531 B3        		.byte	0xb3
 1791 0532 01        		.byte	0x1
 1792 0533 0000 0000 		.long	.LFB8
 1793 0537 0000 0000 		.long	.LFE8
 1794 053b 02        		.byte	0x2
 1795 053c 90        		.byte	0x90
 1796 053d 20        		.uleb128 0x20
 1797 053e A405 0000 		.long	0x5a4
 1798 0542 13        		.uleb128 0x13
 1799 0543 0000 0000 		.long	.LASF68
 1800 0547 01        		.byte	0x1
 1801 0548 AD        		.byte	0xad
 1802 0549 CD03 0000 		.long	0x3cd
 1803 054d 06        		.byte	0x6
 1804 054e 68        		.byte	0x68
 1805 054f 93        		.byte	0x93
 1806 0550 01        		.uleb128 0x1
 1807 0551 69        		.byte	0x69
 1808 0552 93        		.byte	0x93
 1809 0553 01        		.uleb128 0x1
 1810 0554 13        		.uleb128 0x13
 1811 0555 0000 0000 		.long	.LASF57
 1812 0559 01        		.byte	0x1
 1813 055a AE        		.byte	0xae
 1814 055b 5A03 0000 		.long	0x35a
 1815 055f 06        		.byte	0x6
 1816 0560 66        		.byte	0x66
 1817 0561 93        		.byte	0x93
 1818 0562 01        		.uleb128 0x1
 1819 0563 67        		.byte	0x67
 1820 0564 93        		.byte	0x93
 1821 0565 01        		.uleb128 0x1
 1822 0566 13        		.uleb128 0x13
 1823 0567 0000 0000 		.long	.LASF58
 1824 056b 01        		.byte	0x1
GAS LISTING /tmp/ccTR6krr.s 			page 33


 1825 056c AF        		.byte	0xaf
 1826 056d A405 0000 		.long	0x5a4
 1827 0571 06        		.byte	0x6
 1828 0572 64        		.byte	0x64
 1829 0573 93        		.byte	0x93
 1830 0574 01        		.uleb128 0x1
 1831 0575 65        		.byte	0x65
 1832 0576 93        		.byte	0x93
 1833 0577 01        		.uleb128 0x1
 1834 0578 13        		.uleb128 0x13
 1835 0579 0000 0000 		.long	.LASF59
 1836 057d 01        		.byte	0x1
 1837 057e B0        		.byte	0xb0
 1838 057f 2C00 0000 		.long	0x2c
 1839 0583 01        		.byte	0x1
 1840 0584 62        		.byte	0x62
 1841 0585 14        		.uleb128 0x14
 1842 0586 0000 0000 		.long	.LASF55
 1843 058a 01        		.byte	0x1
 1844 058b B1        		.byte	0xb1
 1845 058c 5403 0000 		.long	0x354
 1846 0590 0000 0000 		.long	.LLST11
 1847 0594 14        		.uleb128 0x14
 1848 0595 0000 0000 		.long	.LASF56
 1849 0599 01        		.byte	0x1
 1850 059a B2        		.byte	0xb2
 1851 059b 2C00 0000 		.long	0x2c
 1852 059f 0000 0000 		.long	.LLST12
 1853 05a3 00        		.byte	0x0
 1854 05a4 0F        		.uleb128 0xf
 1855 05a5 02        		.byte	0x2
 1856 05a6 2C00 0000 		.long	0x2c
 1857 05aa 11        		.uleb128 0x11
 1858 05ab 01        		.byte	0x1
 1859 05ac 0000 0000 		.long	.LASF80
 1860 05b0 01        		.byte	0x1
 1861 05b1 C8        		.byte	0xc8
 1862 05b2 01        		.byte	0x1
 1863 05b3 0000 0000 		.long	.LFB9
 1864 05b7 0000 0000 		.long	.LFE9
 1865 05bb 02        		.byte	0x2
 1866 05bc 90        		.byte	0x90
 1867 05bd 20        		.uleb128 0x20
 1868 05be 0706 0000 		.long	0x607
 1869 05c2 12        		.uleb128 0x12
 1870 05c3 7370 6900 		.string	"spi"
 1871 05c7 01        		.byte	0x1
 1872 05c8 C7        		.byte	0xc7
 1873 05c9 A704 0000 		.long	0x4a7
 1874 05cd 0000 0000 		.long	.LLST14
 1875 05d1 15        		.uleb128 0x15
 1876 05d2 0000 0000 		.long	.LASF81
 1877 05d6 01        		.byte	0x1
 1878 05d7 C9        		.byte	0xc9
 1879 05d8 2C00 0000 		.long	0x2c
 1880 05dc 0000 0000 		.long	.LLST15
 1881 05e0 16        		.uleb128 0x16
GAS LISTING /tmp/ccTR6krr.s 			page 34


 1882 05e1 0000 0000 		.long	.LASF60
 1883 05e5 01        		.byte	0x1
 1884 05e6 CA        		.byte	0xca
 1885 05e7 2C00 0000 		.long	0x2c
 1886 05eb 01        		.byte	0x1
 1887 05ec 69        		.byte	0x69
 1888 05ed 17        		.uleb128 0x17
 1889 05ee 0000 0000 		.long	.LBB2
 1890 05f2 0000 0000 		.long	.LBE2
 1891 05f6 15        		.uleb128 0x15
 1892 05f7 0000 0000 		.long	.LASF56
 1893 05fb 01        		.byte	0x1
 1894 05fc E6        		.byte	0xe6
 1895 05fd 2C00 0000 		.long	0x2c
 1896 0601 0000 0000 		.long	.LLST16
 1897 0605 00        		.byte	0x0
 1898 0606 00        		.byte	0x0
 1899 0607 18        		.uleb128 0x18
 1900 0608 01        		.byte	0x1
 1901 0609 0000 0000 		.long	.LASF82
 1902 060d 01        		.byte	0x1
 1903 060e 0101      		.word	0x101
 1904 0610 01        		.byte	0x1
 1905 0611 2C00 0000 		.long	0x2c
 1906 0615 0000 0000 		.long	.LFB10
 1907 0619 0000 0000 		.long	.LFE10
 1908 061d 02        		.byte	0x2
 1909 061e 90        		.byte	0x90
 1910 061f 20        		.uleb128 0x20
 1911 0620 7206 0000 		.long	0x672
 1912 0624 12        		.uleb128 0x12
 1913 0625 7370 6900 		.string	"spi"
 1914 0629 01        		.byte	0x1
 1915 062a FF        		.byte	0xff
 1916 062b A704 0000 		.long	0x4a7
 1917 062f 0000 0000 		.long	.LLST18
 1918 0633 19        		.uleb128 0x19
 1919 0634 0000 0000 		.long	.LASF68
 1920 0638 01        		.byte	0x1
 1921 0639 0001      		.word	0x100
 1922 063b CD03 0000 		.long	0x3cd
 1923 063f 0000 0000 		.long	.LLST19
 1924 0643 1A        		.uleb128 0x1a
 1925 0644 0000 0000 		.long	.LASF81
 1926 0648 01        		.byte	0x1
 1927 0649 0201      		.word	0x102
 1928 064b 2C00 0000 		.long	0x2c
 1929 064f 0000 0000 		.long	.LLST20
 1930 0653 1B        		.uleb128 0x1b
 1931 0654 0000 0000 		.long	.LASF67
 1932 0658 01        		.byte	0x1
 1933 0659 0301      		.word	0x103
 1934 065b 7003 0000 		.long	0x370
 1935 065f 01        		.byte	0x1
 1936 0660 69        		.byte	0x69
 1937 0661 1A        		.uleb128 0x1a
 1938 0662 0000 0000 		.long	.LASF56
GAS LISTING /tmp/ccTR6krr.s 			page 35


 1939 0666 01        		.byte	0x1
 1940 0667 2201      		.word	0x122
 1941 0669 2C00 0000 		.long	0x2c
 1942 066d 0000 0000 		.long	.LLST21
 1943 0671 00        		.byte	0x0
 1944 0672 18        		.uleb128 0x18
 1945 0673 01        		.byte	0x1
 1946 0674 0000 0000 		.long	.LASF83
 1947 0678 01        		.byte	0x1
 1948 0679 4501      		.word	0x145
 1949 067b 01        		.byte	0x1
 1950 067c 2C00 0000 		.long	0x2c
 1951 0680 0000 0000 		.long	.LFB11
 1952 0684 0000 0000 		.long	.LFE11
 1953 0688 02        		.byte	0x2
 1954 0689 90        		.byte	0x90
 1955 068a 20        		.uleb128 0x20
 1956 068b BE06 0000 		.long	0x6be
 1957 068f 1C        		.uleb128 0x1c
 1958 0690 7370 6900 		.string	"spi"
 1959 0694 01        		.byte	0x1
 1960 0695 4401      		.word	0x144
 1961 0697 A704 0000 		.long	0x4a7
 1962 069b 0000 0000 		.long	.LLST23
 1963 069f 1D        		.uleb128 0x1d
 1964 06a0 0000 0000 		.long	.LASF84
 1965 06a4 01        		.byte	0x1
 1966 06a5 4401      		.word	0x144
 1967 06a7 2C00 0000 		.long	0x2c
 1968 06ab 01        		.byte	0x1
 1969 06ac 66        		.byte	0x66
 1970 06ad 1A        		.uleb128 0x1a
 1971 06ae 0000 0000 		.long	.LASF85
 1972 06b2 01        		.byte	0x1
 1973 06b3 4E01      		.word	0x14e
 1974 06b5 2C00 0000 		.long	0x2c
 1975 06b9 0000 0000 		.long	.LLST24
 1976 06bd 00        		.byte	0x0
 1977 06be 1E        		.uleb128 0x1e
 1978 06bf 01        		.byte	0x1
 1979 06c0 0000 0000 		.long	.LASF86
 1980 06c4 01        		.byte	0x1
 1981 06c5 6401      		.word	0x164
 1982 06c7 01        		.byte	0x1
 1983 06c8 7003 0000 		.long	0x370
 1984 06cc 0000 0000 		.long	.LFB12
 1985 06d0 0000 0000 		.long	.LFE12
 1986 06d4 02        		.byte	0x2
 1987 06d5 90        		.byte	0x90
 1988 06d6 20        		.uleb128 0x20
 1989 06d7 1C        		.uleb128 0x1c
 1990 06d8 7370 6900 		.string	"spi"
 1991 06dc 01        		.byte	0x1
 1992 06dd 6201      		.word	0x162
 1993 06df A704 0000 		.long	0x4a7
 1994 06e3 0000 0000 		.long	.LLST26
 1995 06e7 19        		.uleb128 0x19
GAS LISTING /tmp/ccTR6krr.s 			page 36


 1996 06e8 0000 0000 		.long	.LASF68
 1997 06ec 01        		.byte	0x1
 1998 06ed 6301      		.word	0x163
 1999 06ef CD03 0000 		.long	0x3cd
 2000 06f3 0000 0000 		.long	.LLST27
 2001 06f7 1A        		.uleb128 0x1a
 2002 06f8 0000 0000 		.long	.LASF56
 2003 06fc 01        		.byte	0x1
 2004 06fd 6D01      		.word	0x16d
 2005 06ff 2C00 0000 		.long	0x2c
 2006 0703 0000 0000 		.long	.LLST28
 2007 0707 1A        		.uleb128 0x1a
 2008 0708 0000 0000 		.long	.LASF60
 2009 070c 01        		.byte	0x1
 2010 070d 7601      		.word	0x176
 2011 070f 2C00 0000 		.long	0x2c
 2012 0713 0000 0000 		.long	.LLST29
 2013 0717 1A        		.uleb128 0x1a
 2014 0718 0000 0000 		.long	.LASF59
 2015 071c 01        		.byte	0x1
 2016 071d 7701      		.word	0x177
 2017 071f 2C00 0000 		.long	0x2c
 2018 0723 0000 0000 		.long	.LLST30
 2019 0727 17        		.uleb128 0x17
 2020 0728 0000 0000 		.long	.LBB3
 2021 072c 0000 0000 		.long	.LBE3
 2022 0730 1A        		.uleb128 0x1a
 2023 0731 0000 0000 		.long	.LASF81
 2024 0735 01        		.byte	0x1
 2025 0736 7B01      		.word	0x17b
 2026 0738 2C00 0000 		.long	0x2c
 2027 073c 0000 0000 		.long	.LLST31
 2028 0740 00        		.byte	0x0
 2029 0741 00        		.byte	0x0
 2030 0742 00        		.byte	0x0
 2031               		.section	.debug_abbrev
 2032 0000 01        		.uleb128 0x1
 2033 0001 11        		.uleb128 0x11
 2034 0002 01        		.byte	0x1
 2035 0003 25        		.uleb128 0x25
 2036 0004 0E        		.uleb128 0xe
 2037 0005 13        		.uleb128 0x13
 2038 0006 0B        		.uleb128 0xb
 2039 0007 03        		.uleb128 0x3
 2040 0008 0E        		.uleb128 0xe
 2041 0009 1B        		.uleb128 0x1b
 2042 000a 0E        		.uleb128 0xe
 2043 000b 11        		.uleb128 0x11
 2044 000c 01        		.uleb128 0x1
 2045 000d 12        		.uleb128 0x12
 2046 000e 01        		.uleb128 0x1
 2047 000f 10        		.uleb128 0x10
 2048 0010 06        		.uleb128 0x6
 2049 0011 00        		.byte	0x0
 2050 0012 00        		.byte	0x0
 2051 0013 02        		.uleb128 0x2
 2052 0014 24        		.uleb128 0x24
GAS LISTING /tmp/ccTR6krr.s 			page 37


 2053 0015 00        		.byte	0x0
 2054 0016 0B        		.uleb128 0xb
 2055 0017 0B        		.uleb128 0xb
 2056 0018 3E        		.uleb128 0x3e
 2057 0019 0B        		.uleb128 0xb
 2058 001a 03        		.uleb128 0x3
 2059 001b 0E        		.uleb128 0xe
 2060 001c 00        		.byte	0x0
 2061 001d 00        		.byte	0x0
 2062 001e 03        		.uleb128 0x3
 2063 001f 16        		.uleb128 0x16
 2064 0020 00        		.byte	0x0
 2065 0021 03        		.uleb128 0x3
 2066 0022 0E        		.uleb128 0xe
 2067 0023 3A        		.uleb128 0x3a
 2068 0024 0B        		.uleb128 0xb
 2069 0025 3B        		.uleb128 0x3b
 2070 0026 0B        		.uleb128 0xb
 2071 0027 49        		.uleb128 0x49
 2072 0028 13        		.uleb128 0x13
 2073 0029 00        		.byte	0x0
 2074 002a 00        		.byte	0x0
 2075 002b 04        		.uleb128 0x4
 2076 002c 24        		.uleb128 0x24
 2077 002d 00        		.byte	0x0
 2078 002e 0B        		.uleb128 0xb
 2079 002f 0B        		.uleb128 0xb
 2080 0030 3E        		.uleb128 0x3e
 2081 0031 0B        		.uleb128 0xb
 2082 0032 03        		.uleb128 0x3
 2083 0033 08        		.uleb128 0x8
 2084 0034 00        		.byte	0x0
 2085 0035 00        		.byte	0x0
 2086 0036 05        		.uleb128 0x5
 2087 0037 35        		.uleb128 0x35
 2088 0038 00        		.byte	0x0
 2089 0039 49        		.uleb128 0x49
 2090 003a 13        		.uleb128 0x13
 2091 003b 00        		.byte	0x0
 2092 003c 00        		.byte	0x0
 2093 003d 06        		.uleb128 0x6
 2094 003e 13        		.uleb128 0x13
 2095 003f 01        		.byte	0x1
 2096 0040 03        		.uleb128 0x3
 2097 0041 0E        		.uleb128 0xe
 2098 0042 0B        		.uleb128 0xb
 2099 0043 0B        		.uleb128 0xb
 2100 0044 3A        		.uleb128 0x3a
 2101 0045 0B        		.uleb128 0xb
 2102 0046 3B        		.uleb128 0x3b
 2103 0047 05        		.uleb128 0x5
 2104 0048 01        		.uleb128 0x1
 2105 0049 13        		.uleb128 0x13
 2106 004a 00        		.byte	0x0
 2107 004b 00        		.byte	0x0
 2108 004c 07        		.uleb128 0x7
 2109 004d 0D        		.uleb128 0xd
GAS LISTING /tmp/ccTR6krr.s 			page 38


 2110 004e 00        		.byte	0x0
 2111 004f 03        		.uleb128 0x3
 2112 0050 08        		.uleb128 0x8
 2113 0051 3A        		.uleb128 0x3a
 2114 0052 0B        		.uleb128 0xb
 2115 0053 3B        		.uleb128 0x3b
 2116 0054 05        		.uleb128 0x5
 2117 0055 49        		.uleb128 0x49
 2118 0056 13        		.uleb128 0x13
 2119 0057 38        		.uleb128 0x38
 2120 0058 0A        		.uleb128 0xa
 2121 0059 00        		.byte	0x0
 2122 005a 00        		.byte	0x0
 2123 005b 08        		.uleb128 0x8
 2124 005c 0D        		.uleb128 0xd
 2125 005d 00        		.byte	0x0
 2126 005e 03        		.uleb128 0x3
 2127 005f 0E        		.uleb128 0xe
 2128 0060 3A        		.uleb128 0x3a
 2129 0061 0B        		.uleb128 0xb
 2130 0062 3B        		.uleb128 0x3b
 2131 0063 05        		.uleb128 0x5
 2132 0064 49        		.uleb128 0x49
 2133 0065 13        		.uleb128 0x13
 2134 0066 38        		.uleb128 0x38
 2135 0067 0A        		.uleb128 0xa
 2136 0068 00        		.byte	0x0
 2137 0069 00        		.byte	0x0
 2138 006a 09        		.uleb128 0x9
 2139 006b 16        		.uleb128 0x16
 2140 006c 00        		.byte	0x0
 2141 006d 03        		.uleb128 0x3
 2142 006e 0E        		.uleb128 0xe
 2143 006f 3A        		.uleb128 0x3a
 2144 0070 0B        		.uleb128 0xb
 2145 0071 3B        		.uleb128 0x3b
 2146 0072 05        		.uleb128 0x5
 2147 0073 49        		.uleb128 0x49
 2148 0074 13        		.uleb128 0x13
 2149 0075 00        		.byte	0x0
 2150 0076 00        		.byte	0x0
 2151 0077 0A        		.uleb128 0xa
 2152 0078 04        		.uleb128 0x4
 2153 0079 01        		.byte	0x1
 2154 007a 03        		.uleb128 0x3
 2155 007b 0E        		.uleb128 0xe
 2156 007c 0B        		.uleb128 0xb
 2157 007d 0B        		.uleb128 0xb
 2158 007e 3A        		.uleb128 0x3a
 2159 007f 0B        		.uleb128 0xb
 2160 0080 3B        		.uleb128 0x3b
 2161 0081 05        		.uleb128 0x5
 2162 0082 01        		.uleb128 0x1
 2163 0083 13        		.uleb128 0x13
 2164 0084 00        		.byte	0x0
 2165 0085 00        		.byte	0x0
 2166 0086 0B        		.uleb128 0xb
GAS LISTING /tmp/ccTR6krr.s 			page 39


 2167 0087 28        		.uleb128 0x28
 2168 0088 00        		.byte	0x0
 2169 0089 03        		.uleb128 0x3
 2170 008a 0E        		.uleb128 0xe
 2171 008b 1C        		.uleb128 0x1c
 2172 008c 0D        		.uleb128 0xd
 2173 008d 00        		.byte	0x0
 2174 008e 00        		.byte	0x0
 2175 008f 0C        		.uleb128 0xc
 2176 0090 24        		.uleb128 0x24
 2177 0091 00        		.byte	0x0
 2178 0092 0B        		.uleb128 0xb
 2179 0093 0B        		.uleb128 0xb
 2180 0094 3E        		.uleb128 0x3e
 2181 0095 0B        		.uleb128 0xb
 2182 0096 00        		.byte	0x0
 2183 0097 00        		.byte	0x0
 2184 0098 0D        		.uleb128 0xd
 2185 0099 13        		.uleb128 0x13
 2186 009a 01        		.byte	0x1
 2187 009b 03        		.uleb128 0x3
 2188 009c 0E        		.uleb128 0xe
 2189 009d 0B        		.uleb128 0xb
 2190 009e 0B        		.uleb128 0xb
 2191 009f 3A        		.uleb128 0x3a
 2192 00a0 0B        		.uleb128 0xb
 2193 00a1 3B        		.uleb128 0x3b
 2194 00a2 0B        		.uleb128 0xb
 2195 00a3 01        		.uleb128 0x1
 2196 00a4 13        		.uleb128 0x13
 2197 00a5 00        		.byte	0x0
 2198 00a6 00        		.byte	0x0
 2199 00a7 0E        		.uleb128 0xe
 2200 00a8 0D        		.uleb128 0xd
 2201 00a9 00        		.byte	0x0
 2202 00aa 03        		.uleb128 0x3
 2203 00ab 0E        		.uleb128 0xe
 2204 00ac 3A        		.uleb128 0x3a
 2205 00ad 0B        		.uleb128 0xb
 2206 00ae 3B        		.uleb128 0x3b
 2207 00af 0B        		.uleb128 0xb
 2208 00b0 49        		.uleb128 0x49
 2209 00b1 13        		.uleb128 0x13
 2210 00b2 38        		.uleb128 0x38
 2211 00b3 0A        		.uleb128 0xa
 2212 00b4 00        		.byte	0x0
 2213 00b5 00        		.byte	0x0
 2214 00b6 0F        		.uleb128 0xf
 2215 00b7 0F        		.uleb128 0xf
 2216 00b8 00        		.byte	0x0
 2217 00b9 0B        		.uleb128 0xb
 2218 00ba 0B        		.uleb128 0xb
 2219 00bb 49        		.uleb128 0x49
 2220 00bc 13        		.uleb128 0x13
 2221 00bd 00        		.byte	0x0
 2222 00be 00        		.byte	0x0
 2223 00bf 10        		.uleb128 0x10
GAS LISTING /tmp/ccTR6krr.s 			page 40


 2224 00c0 26        		.uleb128 0x26
 2225 00c1 00        		.byte	0x0
 2226 00c2 49        		.uleb128 0x49
 2227 00c3 13        		.uleb128 0x13
 2228 00c4 00        		.byte	0x0
 2229 00c5 00        		.byte	0x0
 2230 00c6 11        		.uleb128 0x11
 2231 00c7 2E        		.uleb128 0x2e
 2232 00c8 01        		.byte	0x1
 2233 00c9 3F        		.uleb128 0x3f
 2234 00ca 0C        		.uleb128 0xc
 2235 00cb 03        		.uleb128 0x3
 2236 00cc 0E        		.uleb128 0xe
 2237 00cd 3A        		.uleb128 0x3a
 2238 00ce 0B        		.uleb128 0xb
 2239 00cf 3B        		.uleb128 0x3b
 2240 00d0 0B        		.uleb128 0xb
 2241 00d1 27        		.uleb128 0x27
 2242 00d2 0C        		.uleb128 0xc
 2243 00d3 11        		.uleb128 0x11
 2244 00d4 01        		.uleb128 0x1
 2245 00d5 12        		.uleb128 0x12
 2246 00d6 01        		.uleb128 0x1
 2247 00d7 40        		.uleb128 0x40
 2248 00d8 0A        		.uleb128 0xa
 2249 00d9 01        		.uleb128 0x1
 2250 00da 13        		.uleb128 0x13
 2251 00db 00        		.byte	0x0
 2252 00dc 00        		.byte	0x0
 2253 00dd 12        		.uleb128 0x12
 2254 00de 05        		.uleb128 0x5
 2255 00df 00        		.byte	0x0
 2256 00e0 03        		.uleb128 0x3
 2257 00e1 08        		.uleb128 0x8
 2258 00e2 3A        		.uleb128 0x3a
 2259 00e3 0B        		.uleb128 0xb
 2260 00e4 3B        		.uleb128 0x3b
 2261 00e5 0B        		.uleb128 0xb
 2262 00e6 49        		.uleb128 0x49
 2263 00e7 13        		.uleb128 0x13
 2264 00e8 02        		.uleb128 0x2
 2265 00e9 06        		.uleb128 0x6
 2266 00ea 00        		.byte	0x0
 2267 00eb 00        		.byte	0x0
 2268 00ec 13        		.uleb128 0x13
 2269 00ed 05        		.uleb128 0x5
 2270 00ee 00        		.byte	0x0
 2271 00ef 03        		.uleb128 0x3
 2272 00f0 0E        		.uleb128 0xe
 2273 00f1 3A        		.uleb128 0x3a
 2274 00f2 0B        		.uleb128 0xb
 2275 00f3 3B        		.uleb128 0x3b
 2276 00f4 0B        		.uleb128 0xb
 2277 00f5 49        		.uleb128 0x49
 2278 00f6 13        		.uleb128 0x13
 2279 00f7 02        		.uleb128 0x2
 2280 00f8 0A        		.uleb128 0xa
GAS LISTING /tmp/ccTR6krr.s 			page 41


 2281 00f9 00        		.byte	0x0
 2282 00fa 00        		.byte	0x0
 2283 00fb 14        		.uleb128 0x14
 2284 00fc 05        		.uleb128 0x5
 2285 00fd 00        		.byte	0x0
 2286 00fe 03        		.uleb128 0x3
 2287 00ff 0E        		.uleb128 0xe
 2288 0100 3A        		.uleb128 0x3a
 2289 0101 0B        		.uleb128 0xb
 2290 0102 3B        		.uleb128 0x3b
 2291 0103 0B        		.uleb128 0xb
 2292 0104 49        		.uleb128 0x49
 2293 0105 13        		.uleb128 0x13
 2294 0106 02        		.uleb128 0x2
 2295 0107 06        		.uleb128 0x6
 2296 0108 00        		.byte	0x0
 2297 0109 00        		.byte	0x0
 2298 010a 15        		.uleb128 0x15
 2299 010b 34        		.uleb128 0x34
 2300 010c 00        		.byte	0x0
 2301 010d 03        		.uleb128 0x3
 2302 010e 0E        		.uleb128 0xe
 2303 010f 3A        		.uleb128 0x3a
 2304 0110 0B        		.uleb128 0xb
 2305 0111 3B        		.uleb128 0x3b
 2306 0112 0B        		.uleb128 0xb
 2307 0113 49        		.uleb128 0x49
 2308 0114 13        		.uleb128 0x13
 2309 0115 02        		.uleb128 0x2
 2310 0116 06        		.uleb128 0x6
 2311 0117 00        		.byte	0x0
 2312 0118 00        		.byte	0x0
 2313 0119 16        		.uleb128 0x16
 2314 011a 34        		.uleb128 0x34
 2315 011b 00        		.byte	0x0
 2316 011c 03        		.uleb128 0x3
 2317 011d 0E        		.uleb128 0xe
 2318 011e 3A        		.uleb128 0x3a
 2319 011f 0B        		.uleb128 0xb
 2320 0120 3B        		.uleb128 0x3b
 2321 0121 0B        		.uleb128 0xb
 2322 0122 49        		.uleb128 0x49
 2323 0123 13        		.uleb128 0x13
 2324 0124 02        		.uleb128 0x2
 2325 0125 0A        		.uleb128 0xa
 2326 0126 00        		.byte	0x0
 2327 0127 00        		.byte	0x0
 2328 0128 17        		.uleb128 0x17
 2329 0129 0B        		.uleb128 0xb
 2330 012a 01        		.byte	0x1
 2331 012b 11        		.uleb128 0x11
 2332 012c 01        		.uleb128 0x1
 2333 012d 12        		.uleb128 0x12
 2334 012e 01        		.uleb128 0x1
 2335 012f 00        		.byte	0x0
 2336 0130 00        		.byte	0x0
 2337 0131 18        		.uleb128 0x18
GAS LISTING /tmp/ccTR6krr.s 			page 42


 2338 0132 2E        		.uleb128 0x2e
 2339 0133 01        		.byte	0x1
 2340 0134 3F        		.uleb128 0x3f
 2341 0135 0C        		.uleb128 0xc
 2342 0136 03        		.uleb128 0x3
 2343 0137 0E        		.uleb128 0xe
 2344 0138 3A        		.uleb128 0x3a
 2345 0139 0B        		.uleb128 0xb
 2346 013a 3B        		.uleb128 0x3b
 2347 013b 05        		.uleb128 0x5
 2348 013c 27        		.uleb128 0x27
 2349 013d 0C        		.uleb128 0xc
 2350 013e 49        		.uleb128 0x49
 2351 013f 13        		.uleb128 0x13
 2352 0140 11        		.uleb128 0x11
 2353 0141 01        		.uleb128 0x1
 2354 0142 12        		.uleb128 0x12
 2355 0143 01        		.uleb128 0x1
 2356 0144 40        		.uleb128 0x40
 2357 0145 0A        		.uleb128 0xa
 2358 0146 01        		.uleb128 0x1
 2359 0147 13        		.uleb128 0x13
 2360 0148 00        		.byte	0x0
 2361 0149 00        		.byte	0x0
 2362 014a 19        		.uleb128 0x19
 2363 014b 05        		.uleb128 0x5
 2364 014c 00        		.byte	0x0
 2365 014d 03        		.uleb128 0x3
 2366 014e 0E        		.uleb128 0xe
 2367 014f 3A        		.uleb128 0x3a
 2368 0150 0B        		.uleb128 0xb
 2369 0151 3B        		.uleb128 0x3b
 2370 0152 05        		.uleb128 0x5
 2371 0153 49        		.uleb128 0x49
 2372 0154 13        		.uleb128 0x13
 2373 0155 02        		.uleb128 0x2
 2374 0156 06        		.uleb128 0x6
 2375 0157 00        		.byte	0x0
 2376 0158 00        		.byte	0x0
 2377 0159 1A        		.uleb128 0x1a
 2378 015a 34        		.uleb128 0x34
 2379 015b 00        		.byte	0x0
 2380 015c 03        		.uleb128 0x3
 2381 015d 0E        		.uleb128 0xe
 2382 015e 3A        		.uleb128 0x3a
 2383 015f 0B        		.uleb128 0xb
 2384 0160 3B        		.uleb128 0x3b
 2385 0161 05        		.uleb128 0x5
 2386 0162 49        		.uleb128 0x49
 2387 0163 13        		.uleb128 0x13
 2388 0164 02        		.uleb128 0x2
 2389 0165 06        		.uleb128 0x6
 2390 0166 00        		.byte	0x0
 2391 0167 00        		.byte	0x0
 2392 0168 1B        		.uleb128 0x1b
 2393 0169 34        		.uleb128 0x34
 2394 016a 00        		.byte	0x0
GAS LISTING /tmp/ccTR6krr.s 			page 43


 2395 016b 03        		.uleb128 0x3
 2396 016c 0E        		.uleb128 0xe
 2397 016d 3A        		.uleb128 0x3a
 2398 016e 0B        		.uleb128 0xb
 2399 016f 3B        		.uleb128 0x3b
 2400 0170 05        		.uleb128 0x5
 2401 0171 49        		.uleb128 0x49
 2402 0172 13        		.uleb128 0x13
 2403 0173 02        		.uleb128 0x2
 2404 0174 0A        		.uleb128 0xa
 2405 0175 00        		.byte	0x0
 2406 0176 00        		.byte	0x0
 2407 0177 1C        		.uleb128 0x1c
 2408 0178 05        		.uleb128 0x5
 2409 0179 00        		.byte	0x0
 2410 017a 03        		.uleb128 0x3
 2411 017b 08        		.uleb128 0x8
 2412 017c 3A        		.uleb128 0x3a
 2413 017d 0B        		.uleb128 0xb
 2414 017e 3B        		.uleb128 0x3b
 2415 017f 05        		.uleb128 0x5
 2416 0180 49        		.uleb128 0x49
 2417 0181 13        		.uleb128 0x13
 2418 0182 02        		.uleb128 0x2
 2419 0183 06        		.uleb128 0x6
 2420 0184 00        		.byte	0x0
 2421 0185 00        		.byte	0x0
 2422 0186 1D        		.uleb128 0x1d
 2423 0187 05        		.uleb128 0x5
 2424 0188 00        		.byte	0x0
 2425 0189 03        		.uleb128 0x3
 2426 018a 0E        		.uleb128 0xe
 2427 018b 3A        		.uleb128 0x3a
 2428 018c 0B        		.uleb128 0xb
 2429 018d 3B        		.uleb128 0x3b
 2430 018e 05        		.uleb128 0x5
 2431 018f 49        		.uleb128 0x49
 2432 0190 13        		.uleb128 0x13
 2433 0191 02        		.uleb128 0x2
 2434 0192 0A        		.uleb128 0xa
 2435 0193 00        		.byte	0x0
 2436 0194 00        		.byte	0x0
 2437 0195 1E        		.uleb128 0x1e
 2438 0196 2E        		.uleb128 0x2e
 2439 0197 01        		.byte	0x1
 2440 0198 3F        		.uleb128 0x3f
 2441 0199 0C        		.uleb128 0xc
 2442 019a 03        		.uleb128 0x3
 2443 019b 0E        		.uleb128 0xe
 2444 019c 3A        		.uleb128 0x3a
 2445 019d 0B        		.uleb128 0xb
 2446 019e 3B        		.uleb128 0x3b
 2447 019f 05        		.uleb128 0x5
 2448 01a0 27        		.uleb128 0x27
 2449 01a1 0C        		.uleb128 0xc
 2450 01a2 49        		.uleb128 0x49
 2451 01a3 13        		.uleb128 0x13
GAS LISTING /tmp/ccTR6krr.s 			page 44


 2452 01a4 11        		.uleb128 0x11
 2453 01a5 01        		.uleb128 0x1
 2454 01a6 12        		.uleb128 0x12
 2455 01a7 01        		.uleb128 0x1
 2456 01a8 40        		.uleb128 0x40
 2457 01a9 0A        		.uleb128 0xa
 2458 01aa 00        		.byte	0x0
 2459 01ab 00        		.byte	0x0
 2460 01ac 00        		.byte	0x0
 2461               		.section	.debug_pubnames,"",@progbits
 2462 0000 D500 0000 		.long	0xd5
 2463 0004 0200      		.word	0x2
 2464 0006 0000 0000 		.long	.Ldebug_info0
 2465 000a 4307 0000 		.long	0x743
 2466 000e 1204 0000 		.long	0x412
 2467 0012 5350 495F 		.string	"SPI_MasterInit"
 2467      4D61 7374 
 2467      6572 496E 
 2467      6974 00
 2468 0021 AD04 0000 		.long	0x4ad
 2469 0025 5350 495F 		.string	"SPI_SlaveInit"
 2469      536C 6176 
 2469      6549 6E69 
 2469      7400 
 2470 0033 2A05 0000 		.long	0x52a
 2471 0037 5350 495F 		.string	"SPI_MasterCreateDataPacket"
 2471      4D61 7374 
 2471      6572 4372 
 2471      6561 7465 
 2471      4461 7461 
 2472 0052 AA05 0000 		.long	0x5aa
 2473 0056 5350 495F 		.string	"SPI_MasterInterruptHandler"
 2473      4D61 7374 
 2473      6572 496E 
 2473      7465 7272 
 2473      7570 7448 
 2474 0071 0706 0000 		.long	0x607
 2475 0075 5350 495F 		.string	"SPI_MasterInterruptTransceivePacket"
 2475      4D61 7374 
 2475      6572 496E 
 2475      7465 7272 
 2475      7570 7454 
 2476 0099 7206 0000 		.long	0x672
 2477 009d 5350 495F 		.string	"SPI_MasterTransceiveByte"
 2477      4D61 7374 
 2477      6572 5472 
 2477      616E 7363 
 2477      6569 7665 
 2478 00b6 BE06 0000 		.long	0x6be
 2479 00ba 5350 495F 		.string	"SPI_MasterTransceivePacket"
 2479      4D61 7374 
 2479      6572 5472 
 2479      616E 7363 
 2479      6569 7665 
 2480 00d5 0000 0000 		.long	0x0
 2481               		.section	.debug_aranges,"",@progbits
 2482 0000 1C00 0000 		.long	0x1c
GAS LISTING /tmp/ccTR6krr.s 			page 45


 2483 0004 0200      		.word	0x2
 2484 0006 0000 0000 		.long	.Ldebug_info0
 2485 000a 04        		.byte	0x4
 2486 000b 00        		.byte	0x0
 2487 000c 0000      		.word	0x0
 2488 000e 0000      		.word	0x0
 2489 0010 0000 0000 		.long	.Ltext0
 2490 0014 9C02 0000 		.long	.Letext0-.Ltext0
 2491 0018 0000 0000 		.long	0x0
 2492 001c 0000 0000 		.long	0x0
 2493               		.section	.debug_line
 2494 0000 C403 0000 		.long	.LELT0-.LSLT0
 2495               	.LSLT0:
 2496 0004 0200      		.word	0x2
 2497 0006 C400 0000 		.long	.LELTP0-.LASLTP0
 2498               	.LASLTP0:
 2499 000a 01        		.byte	0x1
 2500 000b 01        		.byte	0x1
 2501 000c F6        		.byte	0xf6
 2502 000d F5        		.byte	0xf5
 2503 000e 0A        		.byte	0xa
 2504 000f 00        		.byte	0x0
 2505 0010 01        		.byte	0x1
 2506 0011 01        		.byte	0x1
 2507 0012 01        		.byte	0x1
 2508 0013 01        		.byte	0x1
 2509 0014 00        		.byte	0x0
 2510 0015 00        		.byte	0x0
 2511 0016 00        		.byte	0x0
 2512 0017 01        		.byte	0x1
 2513 0018 2F75 7372 		.ascii	"/usr/local/avr/lib/gcc/avr/4.3.4/../../../../avr/include"
 2513      2F6C 6F63 
 2513      616C 2F61 
 2513      7672 2F6C 
 2513      6962 2F67 
 2514 0050 00        		.byte	0
 2515 0051 2F75 7372 		.ascii	"/usr/local/avr/lib/gcc/avr/4.3.4/../../../../avr/include/avr"
 2515      2F6C 6F63 
 2515      616C 2F61 
 2515      7672 2F6C 
 2515      6962 2F67 
 2516 008d 00        		.byte	0
 2517 008e 00        		.byte	0x0
 2518 008f 7370 695F 		.string	"spi_driver.c"
 2518      6472 6976 
 2518      6572 2E63 
 2518      00
 2519 009c 00        		.uleb128 0x0
 2520 009d 00        		.uleb128 0x0
 2521 009e 00        		.uleb128 0x0
 2522 009f 6176 722F 		.string	"avr/iox128a3.h"
 2522      696F 7831 
 2522      3238 6133 
 2522      2E68 00
 2523 00ae 01        		.uleb128 0x1
 2524 00af 00        		.uleb128 0x0
 2525 00b0 00        		.uleb128 0x0
GAS LISTING /tmp/ccTR6krr.s 			page 46


 2526 00b1 7374 6469 		.string	"stdint.h"
 2526      6E74 2E68 
 2526      00
 2527 00ba 01        		.uleb128 0x1
 2528 00bb 00        		.uleb128 0x0
 2529 00bc 00        		.uleb128 0x0
 2530 00bd 7370 695F 		.string	"spi_driver.h"
 2530      6472 6976 
 2530      6572 2E68 
 2530      00
 2531 00ca 00        		.uleb128 0x0
 2532 00cb 00        		.uleb128 0x0
 2533 00cc 00        		.uleb128 0x0
 2534 00cd 00        		.byte	0x0
 2535               	.LELTP0:
 2536 00ce 00        		.byte	0x0
 2537 00cf 05        		.uleb128 0x5
 2538 00d0 02        		.byte	0x2
 2539 00d1 0000 0000 		.long	.LM1
 2540 00d5 72        		.byte	0x72
 2541 00d6 00        		.byte	0x0
 2542 00d7 05        		.uleb128 0x5
 2543 00d8 02        		.byte	0x2
 2544 00d9 0000 0000 		.long	.LM2
 2545 00dd 15        		.byte	0x15
 2546 00de 00        		.byte	0x0
 2547 00df 05        		.uleb128 0x5
 2548 00e0 02        		.byte	0x2
 2549 00e1 0000 0000 		.long	.LM3
 2550 00e5 15        		.byte	0x15
 2551 00e6 00        		.byte	0x0
 2552 00e7 05        		.uleb128 0x5
 2553 00e8 02        		.byte	0x2
 2554 00e9 0000 0000 		.long	.LM4
 2555 00ed 15        		.byte	0x15
 2556 00ee 00        		.byte	0x0
 2557 00ef 05        		.uleb128 0x5
 2558 00f0 02        		.byte	0x2
 2559 00f1 0000 0000 		.long	.LM5
 2560 00f5 16        		.byte	0x16
 2561 00f6 00        		.byte	0x0
 2562 00f7 05        		.uleb128 0x5
 2563 00f8 02        		.byte	0x2
 2564 00f9 0000 0000 		.long	.LM6
 2565 00fd 1C        		.byte	0x1c
 2566 00fe 00        		.byte	0x0
 2567 00ff 05        		.uleb128 0x5
 2568 0100 02        		.byte	0x2
 2569 0101 0000 0000 		.long	.LM7
 2570 0105 17        		.byte	0x17
 2571 0106 00        		.byte	0x0
 2572 0107 05        		.uleb128 0x5
 2573 0108 02        		.byte	0x2
 2574 0109 0000 0000 		.long	.LM8
 2575 010d 17        		.byte	0x17
 2576 010e 00        		.byte	0x0
 2577 010f 05        		.uleb128 0x5
GAS LISTING /tmp/ccTR6krr.s 			page 47


 2578 0110 02        		.byte	0x2
 2579 0111 0000 0000 		.long	.LM9
 2580 0115 15        		.byte	0x15
 2581 0116 00        		.byte	0x0
 2582 0117 05        		.uleb128 0x5
 2583 0118 02        		.byte	0x2
 2584 0119 0000 0000 		.long	.LM10
 2585 011d 03        		.byte	0x3
 2586 011e 71        		.sleb128 -15
 2587 011f 01        		.byte	0x1
 2588 0120 00        		.byte	0x0
 2589 0121 05        		.uleb128 0x5
 2590 0122 02        		.byte	0x2
 2591 0123 0000 0000 		.long	.LM11
 2592 0127 3A        		.byte	0x3a
 2593 0128 00        		.byte	0x0
 2594 0129 05        		.uleb128 0x5
 2595 012a 02        		.byte	0x2
 2596 012b 0000 0000 		.long	.LM12
 2597 012f 16        		.byte	0x16
 2598 0130 00        		.byte	0x0
 2599 0131 05        		.uleb128 0x5
 2600 0132 02        		.byte	0x2
 2601 0133 0000 0000 		.long	.LM13
 2602 0137 15        		.byte	0x15
 2603 0138 00        		.byte	0x0
 2604 0139 05        		.uleb128 0x5
 2605 013a 02        		.byte	0x2
 2606 013b 0000 0000 		.long	.LM14
 2607 013f 16        		.byte	0x16
 2608 0140 00        		.byte	0x0
 2609 0141 05        		.uleb128 0x5
 2610 0142 02        		.byte	0x2
 2611 0143 0000 0000 		.long	.LM15
 2612 0147 19        		.byte	0x19
 2613 0148 00        		.byte	0x0
 2614 0149 05        		.uleb128 0x5
 2615 014a 02        		.byte	0x2
 2616 014b 0000 0000 		.long	.LM16
 2617 014f 17        		.byte	0x17
 2618 0150 00        		.byte	0x0
 2619 0151 05        		.uleb128 0x5
 2620 0152 02        		.byte	0x2
 2621 0153 0000 0000 		.long	.LM17
 2622 0157 15        		.byte	0x15
 2623 0158 00        		.byte	0x0
 2624 0159 05        		.uleb128 0x5
 2625 015a 02        		.byte	0x2
 2626 015b 0000 0000 		.long	.LM18
 2627 015f 0B        		.byte	0xb
 2628 0160 00        		.byte	0x0
 2629 0161 05        		.uleb128 0x5
 2630 0162 02        		.byte	0x2
 2631 0163 0000 0000 		.long	.LM19
 2632 0167 38        		.byte	0x38
 2633 0168 00        		.byte	0x0
 2634 0169 05        		.uleb128 0x5
GAS LISTING /tmp/ccTR6krr.s 			page 48


 2635 016a 02        		.byte	0x2
 2636 016b 0000 0000 		.long	.LM20
 2637 016f 15        		.byte	0x15
 2638 0170 00        		.byte	0x0
 2639 0171 05        		.uleb128 0x5
 2640 0172 02        		.byte	0x2
 2641 0173 0000 0000 		.long	.LM21
 2642 0177 15        		.byte	0x15
 2643 0178 00        		.byte	0x0
 2644 0179 05        		.uleb128 0x5
 2645 017a 02        		.byte	0x2
 2646 017b 0000 0000 		.long	.LM22
 2647 017f 15        		.byte	0x15
 2648 0180 00        		.byte	0x0
 2649 0181 05        		.uleb128 0x5
 2650 0182 02        		.byte	0x2
 2651 0183 0000 0000 		.long	.LM23
 2652 0187 15        		.byte	0x15
 2653 0188 00        		.byte	0x0
 2654 0189 05        		.uleb128 0x5
 2655 018a 02        		.byte	0x2
 2656 018b 0000 0000 		.long	.LM24
 2657 018f 15        		.byte	0x15
 2658 0190 00        		.byte	0x0
 2659 0191 05        		.uleb128 0x5
 2660 0192 02        		.byte	0x2
 2661 0193 0000 0000 		.long	.LM25
 2662 0197 15        		.byte	0x15
 2663 0198 00        		.byte	0x0
 2664 0199 05        		.uleb128 0x5
 2665 019a 02        		.byte	0x2
 2666 019b 0000 0000 		.long	.LM26
 2667 019f 15        		.byte	0x15
 2668 01a0 00        		.byte	0x0
 2669 01a1 05        		.uleb128 0x5
 2670 01a2 02        		.byte	0x2
 2671 01a3 0000 0000 		.long	.LM27
 2672 01a7 15        		.byte	0x15
 2673 01a8 00        		.byte	0x0
 2674 01a9 05        		.uleb128 0x5
 2675 01aa 02        		.byte	0x2
 2676 01ab 0000 0000 		.long	.LM28
 2677 01af 21        		.byte	0x21
 2678 01b0 00        		.byte	0x0
 2679 01b1 05        		.uleb128 0x5
 2680 01b2 02        		.byte	0x2
 2681 01b3 0000 0000 		.long	.LM29
 2682 01b7 16        		.byte	0x16
 2683 01b8 00        		.byte	0x0
 2684 01b9 05        		.uleb128 0x5
 2685 01ba 02        		.byte	0x2
 2686 01bb 0000 0000 		.long	.LM30
 2687 01bf 18        		.byte	0x18
 2688 01c0 00        		.byte	0x0
 2689 01c1 05        		.uleb128 0x5
 2690 01c2 02        		.byte	0x2
 2691 01c3 0000 0000 		.long	.LM31
GAS LISTING /tmp/ccTR6krr.s 			page 49


 2692 01c7 1B        		.byte	0x1b
 2693 01c8 00        		.byte	0x0
 2694 01c9 05        		.uleb128 0x5
 2695 01ca 02        		.byte	0x2
 2696 01cb 0000 0000 		.long	.LM32
 2697 01cf 15        		.byte	0x15
 2698 01d0 00        		.byte	0x0
 2699 01d1 05        		.uleb128 0x5
 2700 01d2 02        		.byte	0x2
 2701 01d3 0000 0000 		.long	.LM33
 2702 01d7 17        		.byte	0x17
 2703 01d8 00        		.byte	0x0
 2704 01d9 05        		.uleb128 0x5
 2705 01da 02        		.byte	0x2
 2706 01db 0000 0000 		.long	.LM34
 2707 01df 17        		.byte	0x17
 2708 01e0 00        		.byte	0x0
 2709 01e1 05        		.uleb128 0x5
 2710 01e2 02        		.byte	0x2
 2711 01e3 0000 0000 		.long	.LM35
 2712 01e7 1E        		.byte	0x1e
 2713 01e8 00        		.byte	0x0
 2714 01e9 05        		.uleb128 0x5
 2715 01ea 02        		.byte	0x2
 2716 01eb 0000 0000 		.long	.LM36
 2717 01ef 15        		.byte	0x15
 2718 01f0 00        		.byte	0x0
 2719 01f1 05        		.uleb128 0x5
 2720 01f2 02        		.byte	0x2
 2721 01f3 0000 0000 		.long	.LM37
 2722 01f7 16        		.byte	0x16
 2723 01f8 00        		.byte	0x0
 2724 01f9 05        		.uleb128 0x5
 2725 01fa 02        		.byte	0x2
 2726 01fb 0000 0000 		.long	.LM38
 2727 01ff 18        		.byte	0x18
 2728 0200 00        		.byte	0x0
 2729 0201 05        		.uleb128 0x5
 2730 0202 02        		.byte	0x2
 2731 0203 0000 0000 		.long	.LM39
 2732 0207 15        		.byte	0x15
 2733 0208 00        		.byte	0x0
 2734 0209 05        		.uleb128 0x5
 2735 020a 02        		.byte	0x2
 2736 020b 0000 0000 		.long	.LM40
 2737 020f 03        		.byte	0x3
 2738 0210 70        		.sleb128 -16
 2739 0211 01        		.byte	0x1
 2740 0212 00        		.byte	0x0
 2741 0213 05        		.uleb128 0x5
 2742 0214 02        		.byte	0x2
 2743 0215 0000 0000 		.long	.LM41
 2744 0219 15        		.byte	0x15
 2745 021a 00        		.byte	0x0
 2746 021b 05        		.uleb128 0x5
 2747 021c 02        		.byte	0x2
 2748 021d 0000 0000 		.long	.LM42
GAS LISTING /tmp/ccTR6krr.s 			page 50


 2749 0221 22        		.byte	0x22
 2750 0222 00        		.byte	0x0
 2751 0223 05        		.uleb128 0x5
 2752 0224 02        		.byte	0x2
 2753 0225 0000 0000 		.long	.LM43
 2754 0229 15        		.byte	0x15
 2755 022a 00        		.byte	0x0
 2756 022b 05        		.uleb128 0x5
 2757 022c 02        		.byte	0x2
 2758 022d 0000 0000 		.long	.LM44
 2759 0231 03        		.byte	0x3
 2760 0232 61        		.sleb128 -31
 2761 0233 01        		.byte	0x1
 2762 0234 00        		.byte	0x0
 2763 0235 05        		.uleb128 0x5
 2764 0236 02        		.byte	0x2
 2765 0237 0000 0000 		.long	.LM45
 2766 023b 32        		.byte	0x32
 2767 023c 00        		.byte	0x0
 2768 023d 05        		.uleb128 0x5
 2769 023e 02        		.byte	0x2
 2770 023f 0000 0000 		.long	.LM46
 2771 0243 15        		.byte	0x15
 2772 0244 00        		.byte	0x0
 2773 0245 05        		.uleb128 0x5
 2774 0246 02        		.byte	0x2
 2775 0247 0000 0000 		.long	.LM47
 2776 024b 27        		.byte	0x27
 2777 024c 00        		.byte	0x0
 2778 024d 05        		.uleb128 0x5
 2779 024e 02        		.byte	0x2
 2780 024f 0000 0000 		.long	.LM48
 2781 0253 16        		.byte	0x16
 2782 0254 00        		.byte	0x0
 2783 0255 05        		.uleb128 0x5
 2784 0256 02        		.byte	0x2
 2785 0257 0000 0000 		.long	.LM49
 2786 025b 17        		.byte	0x17
 2787 025c 00        		.byte	0x0
 2788 025d 05        		.uleb128 0x5
 2789 025e 02        		.byte	0x2
 2790 025f 0000 0000 		.long	.LM50
 2791 0263 19        		.byte	0x19
 2792 0264 00        		.byte	0x0
 2793 0265 05        		.uleb128 0x5
 2794 0266 02        		.byte	0x2
 2795 0267 0000 0000 		.long	.LM51
 2796 026b 19        		.byte	0x19
 2797 026c 00        		.byte	0x0
 2798 026d 05        		.uleb128 0x5
 2799 026e 02        		.byte	0x2
 2800 026f 0000 0000 		.long	.LM52
 2801 0273 16        		.byte	0x16
 2802 0274 00        		.byte	0x0
 2803 0275 05        		.uleb128 0x5
 2804 0276 02        		.byte	0x2
 2805 0277 0000 0000 		.long	.LM53
GAS LISTING /tmp/ccTR6krr.s 			page 51


 2806 027b 1F        		.byte	0x1f
 2807 027c 00        		.byte	0x0
 2808 027d 05        		.uleb128 0x5
 2809 027e 02        		.byte	0x2
 2810 027f 0000 0000 		.long	.LM54
 2811 0283 15        		.byte	0x15
 2812 0284 00        		.byte	0x0
 2813 0285 05        		.uleb128 0x5
 2814 0286 02        		.byte	0x2
 2815 0287 0000 0000 		.long	.LM55
 2816 028b 15        		.byte	0x15
 2817 028c 00        		.byte	0x0
 2818 028d 05        		.uleb128 0x5
 2819 028e 02        		.byte	0x2
 2820 028f 0000 0000 		.long	.LM56
 2821 0293 17        		.byte	0x17
 2822 0294 00        		.byte	0x0
 2823 0295 05        		.uleb128 0x5
 2824 0296 02        		.byte	0x2
 2825 0297 0000 0000 		.long	.LM57
 2826 029b 15        		.byte	0x15
 2827 029c 00        		.byte	0x0
 2828 029d 05        		.uleb128 0x5
 2829 029e 02        		.byte	0x2
 2830 029f 0000 0000 		.long	.LM58
 2831 02a3 16        		.byte	0x16
 2832 02a4 00        		.byte	0x0
 2833 02a5 05        		.uleb128 0x5
 2834 02a6 02        		.byte	0x2
 2835 02a7 0000 0000 		.long	.LM59
 2836 02ab 17        		.byte	0x17
 2837 02ac 00        		.byte	0x0
 2838 02ad 05        		.uleb128 0x5
 2839 02ae 02        		.byte	0x2
 2840 02af 0000 0000 		.long	.LM60
 2841 02b3 15        		.byte	0x15
 2842 02b4 00        		.byte	0x0
 2843 02b5 05        		.uleb128 0x5
 2844 02b6 02        		.byte	0x2
 2845 02b7 0000 0000 		.long	.LM61
 2846 02bb 18        		.byte	0x18
 2847 02bc 00        		.byte	0x0
 2848 02bd 05        		.uleb128 0x5
 2849 02be 02        		.byte	0x2
 2850 02bf 0000 0000 		.long	.LM62
 2851 02c3 03        		.byte	0x3
 2852 02c4 5E        		.sleb128 -34
 2853 02c5 01        		.byte	0x1
 2854 02c6 00        		.byte	0x0
 2855 02c7 05        		.uleb128 0x5
 2856 02c8 02        		.byte	0x2
 2857 02c9 0000 0000 		.long	.LM63
 2858 02cd 36        		.byte	0x36
 2859 02ce 00        		.byte	0x0
 2860 02cf 05        		.uleb128 0x5
 2861 02d0 02        		.byte	0x2
 2862 02d1 0000 0000 		.long	.LM64
GAS LISTING /tmp/ccTR6krr.s 			page 52


 2863 02d5 03        		.byte	0x3
 2864 02d6 65        		.sleb128 -27
 2865 02d7 01        		.byte	0x1
 2866 02d8 00        		.byte	0x0
 2867 02d9 05        		.uleb128 0x5
 2868 02da 02        		.byte	0x2
 2869 02db 0000 0000 		.long	.LM65
 2870 02df 2F        		.byte	0x2f
 2871 02e0 00        		.byte	0x0
 2872 02e1 05        		.uleb128 0x5
 2873 02e2 02        		.byte	0x2
 2874 02e3 0000 0000 		.long	.LM66
 2875 02e7 03        		.byte	0x3
 2876 02e8 5A        		.sleb128 -38
 2877 02e9 01        		.byte	0x1
 2878 02ea 00        		.byte	0x0
 2879 02eb 05        		.uleb128 0x5
 2880 02ec 02        		.byte	0x2
 2881 02ed 0000 0000 		.long	.LM67
 2882 02f1 52        		.byte	0x52
 2883 02f2 00        		.byte	0x0
 2884 02f3 05        		.uleb128 0x5
 2885 02f4 02        		.byte	0x2
 2886 02f5 0000 0000 		.long	.LM68
 2887 02f9 16        		.byte	0x16
 2888 02fa 00        		.byte	0x0
 2889 02fb 05        		.uleb128 0x5
 2890 02fc 02        		.byte	0x2
 2891 02fd 0000 0000 		.long	.LM69
 2892 0301 17        		.byte	0x17
 2893 0302 00        		.byte	0x0
 2894 0303 05        		.uleb128 0x5
 2895 0304 02        		.byte	0x2
 2896 0305 0000 0000 		.long	.LM70
 2897 0309 18        		.byte	0x18
 2898 030a 00        		.byte	0x0
 2899 030b 05        		.uleb128 0x5
 2900 030c 02        		.byte	0x2
 2901 030d 0000 0000 		.long	.LM71
 2902 0311 17        		.byte	0x17
 2903 0312 00        		.byte	0x0
 2904 0313 05        		.uleb128 0x5
 2905 0314 02        		.byte	0x2
 2906 0315 0000 0000 		.long	.LM72
 2907 0319 27        		.byte	0x27
 2908 031a 00        		.byte	0x0
 2909 031b 05        		.uleb128 0x5
 2910 031c 02        		.byte	0x2
 2911 031d 0000 0000 		.long	.LM73
 2912 0321 16        		.byte	0x16
 2913 0322 00        		.byte	0x0
 2914 0323 05        		.uleb128 0x5
 2915 0324 02        		.byte	0x2
 2916 0325 0000 0000 		.long	.LM74
 2917 0329 19        		.byte	0x19
 2918 032a 00        		.byte	0x0
 2919 032b 05        		.uleb128 0x5
GAS LISTING /tmp/ccTR6krr.s 			page 53


 2920 032c 02        		.byte	0x2
 2921 032d 0000 0000 		.long	.LM75
 2922 0331 16        		.byte	0x16
 2923 0332 00        		.byte	0x0
 2924 0333 05        		.uleb128 0x5
 2925 0334 02        		.byte	0x2
 2926 0335 0000 0000 		.long	.LM76
 2927 0339 17        		.byte	0x17
 2928 033a 00        		.byte	0x0
 2929 033b 05        		.uleb128 0x5
 2930 033c 02        		.byte	0x2
 2931 033d 0000 0000 		.long	.LM77
 2932 0341 16        		.byte	0x16
 2933 0342 00        		.byte	0x0
 2934 0343 05        		.uleb128 0x5
 2935 0344 02        		.byte	0x2
 2936 0345 0000 0000 		.long	.LM78
 2937 0349 19        		.byte	0x19
 2938 034a 00        		.byte	0x0
 2939 034b 05        		.uleb128 0x5
 2940 034c 02        		.byte	0x2
 2941 034d 0000 0000 		.long	.LM79
 2942 0351 15        		.byte	0x15
 2943 0352 00        		.byte	0x0
 2944 0353 05        		.uleb128 0x5
 2945 0354 02        		.byte	0x2
 2946 0355 0000 0000 		.long	.LM80
 2947 0359 17        		.byte	0x17
 2948 035a 00        		.byte	0x0
 2949 035b 05        		.uleb128 0x5
 2950 035c 02        		.byte	0x2
 2951 035d 0000 0000 		.long	.LM81
 2952 0361 15        		.byte	0x15
 2953 0362 00        		.byte	0x0
 2954 0363 05        		.uleb128 0x5
 2955 0364 02        		.byte	0x2
 2956 0365 0000 0000 		.long	.LM82
 2957 0369 17        		.byte	0x17
 2958 036a 00        		.byte	0x0
 2959 036b 05        		.uleb128 0x5
 2960 036c 02        		.byte	0x2
 2961 036d 0000 0000 		.long	.LM83
 2962 0371 18        		.byte	0x18
 2963 0372 00        		.byte	0x0
 2964 0373 05        		.uleb128 0x5
 2965 0374 02        		.byte	0x2
 2966 0375 0000 0000 		.long	.LM84
 2967 0379 15        		.byte	0x15
 2968 037a 00        		.byte	0x0
 2969 037b 05        		.uleb128 0x5
 2970 037c 02        		.byte	0x2
 2971 037d 0000 0000 		.long	.LM85
 2972 0381 03        		.byte	0x3
 2973 0382 74        		.sleb128 -12
 2974 0383 01        		.byte	0x1
 2975 0384 00        		.byte	0x0
 2976 0385 05        		.uleb128 0x5
GAS LISTING /tmp/ccTR6krr.s 			page 54


 2977 0386 02        		.byte	0x2
 2978 0387 0000 0000 		.long	.LM86
 2979 038b 26        		.byte	0x26
 2980 038c 00        		.byte	0x0
 2981 038d 05        		.uleb128 0x5
 2982 038e 02        		.byte	0x2
 2983 038f 0000 0000 		.long	.LM87
 2984 0393 16        		.byte	0x16
 2985 0394 00        		.byte	0x0
 2986 0395 05        		.uleb128 0x5
 2987 0396 02        		.byte	0x2
 2988 0397 0000 0000 		.long	.LM88
 2989 039b 18        		.byte	0x18
 2990 039c 00        		.byte	0x0
 2991 039d 05        		.uleb128 0x5
 2992 039e 02        		.byte	0x2
 2993 039f 0000 0000 		.long	.LM89
 2994 03a3 15        		.byte	0x15
 2995 03a4 00        		.byte	0x0
 2996 03a5 05        		.uleb128 0x5
 2997 03a6 02        		.byte	0x2
 2998 03a7 0000 0000 		.long	.LM90
 2999 03ab 18        		.byte	0x18
 3000 03ac 00        		.byte	0x0
 3001 03ad 05        		.uleb128 0x5
 3002 03ae 02        		.byte	0x2
 3003 03af 0000 0000 		.long	.LM91
 3004 03b3 03        		.byte	0x3
 3005 03b4 51        		.sleb128 -47
 3006 03b5 01        		.byte	0x1
 3007 03b6 00        		.byte	0x0
 3008 03b7 05        		.uleb128 0x5
 3009 03b8 02        		.byte	0x2
 3010 03b9 0000 0000 		.long	.LM92
 3011 03bd 43        		.byte	0x43
 3012 03be 00        		.byte	0x0
 3013 03bf 05        		.uleb128 0x5
 3014 03c0 02        		.byte	0x2
 3015 03c1 0000 0000 		.long	.Letext0
 3016 03c5 00        		.byte	0x0
 3017 03c6 01        		.uleb128 0x1
 3018 03c7 01        		.byte	0x1
 3019               	.LELT0:
 3020 03c8 1600 0000 		.section	.debug_str,"MS",@progbits,1
 3020      0200 1000 
 3020      0000 0101 
 3020      FB0E 0A00 
 3020      0101 0101 
 3021               	.LASF11:
 3022 0000 4F55 5443 		.string	"OUTCLR"
 3022      4C52 00
 3023               	.LASF48:
 3024 0007 5350 495F 		.string	"SPI_INTLVL_enum"
 3024      494E 544C 
 3024      564C 5F65 
 3024      6E75 6D00 
 3025               	.LASF86:
GAS LISTING /tmp/ccTR6krr.s 			page 55


 3026 0017 5350 495F 		.string	"SPI_MasterTransceivePacket"
 3026      4D61 7374 
 3026      6572 5472 
 3026      616E 7363 
 3026      6569 7665 
 3027               	.LASF85:
 3028 0032 7265 7375 		.string	"result"
 3028      6C74 00
 3029               	.LASF26:
 3030 0039 5049 4E36 		.string	"PIN6CTRL"
 3030      4354 524C 
 3030      00
 3031               	.LASF57:
 3032 0042 7472 616E 		.string	"transmitData"
 3032      736D 6974 
 3032      4461 7461 
 3032      00
 3033               	.LASF87:
 3034 004f 474E 5520 		.string	"GNU C 4.3.4"
 3034      4320 342E 
 3034      332E 3400 
 3035               	.LASF71:
 3036 005b 5350 495F 		.string	"SPI_Slave_t"
 3036      536C 6176 
 3036      655F 7400 
 3037               	.LASF15:
 3038 0067 494E 5431 		.string	"INT1MASK"
 3038      4D41 534B 
 3038      00
 3039               	.LASF65:
 3040 0070 6D6F 6475 		.string	"module"
 3040      6C65 00
 3041               	.LASF67:
 3042 0077 696E 7465 		.string	"interrupted"
 3042      7272 7570 
 3042      7465 6400 
 3043               	.LASF45:
 3044 0083 5350 495F 		.string	"SPI_PRESCALER_DIV64_gc"
 3044      5052 4553 
 3044      4341 4C45 
 3044      525F 4449 
 3044      5636 345F 
 3045               	.LASF84:
 3046 009a 5458 6461 		.string	"TXdata"
 3046      7461 00
 3047               	.LASF54:
 3048 00a1 5350 495F 		.string	"SPI_DataPacket"
 3048      4461 7461 
 3048      5061 636B 
 3048      6574 00
 3049               	.LASF64:
 3050 00b0 5350 495F 		.string	"SPI_Master"
 3050      4D61 7374 
 3050      6572 00
 3051               	.LASF38:
 3052 00bb 5350 495F 		.string	"SPI_MODE_2_gc"
 3052      4D4F 4445 
GAS LISTING /tmp/ccTR6krr.s 			page 56


 3052      5F32 5F67 
 3052      6300 
 3053               	.LASF73:
 3054 00c9 6D6F 6465 		.string	"mode"
 3054      00
 3055               	.LASF89:
 3056 00ce 2F68 6F6D 		.string	"/home/tomlinsj/falconSvn/44x201007/firmware/mcu/chb_motor_test"
 3056      652F 746F 
 3056      6D6C 696E 
 3056      736A 2F66 
 3056      616C 636F 
 3057               	.LASF17:
 3058 010d 7265 7365 		.string	"reserved_0x0D"
 3058      7276 6564 
 3058      5F30 7830 
 3058      4400 
 3059               	.LASF75:
 3060 011b 636C 6B32 		.string	"clk2x"
 3060      7800 
 3061               	.LASF76:
 3062 0121 636C 6F63 		.string	"clockDivision"
 3062      6B44 6976 
 3062      6973 696F 
 3062      6E00 
 3063               	.LASF18:
 3064 012f 7265 7365 		.string	"reserved_0x0E"
 3064      7276 6564 
 3064      5F30 7830 
 3064      4500 
 3065               	.LASF19:
 3066 013d 7265 7365 		.string	"reserved_0x0F"
 3066      7276 6564 
 3066      5F30 7830 
 3066      4600 
 3067               	.LASF42:
 3068 014b 5350 495F 		.string	"SPI_PRESCALER_enum"
 3068      5052 4553 
 3068      4341 4C45 
 3068      525F 656E 
 3068      756D 00
 3069               	.LASF28:
 3070 015e 7569 6E74 		.string	"uint8_t"
 3070      385F 7400 
 3071               	.LASF9:
 3072 0166 4449 5254 		.string	"DIRTGL"
 3072      474C 00
 3073               	.LASF72:
 3074 016d 6C73 6246 		.string	"lsbFirst"
 3074      6972 7374 
 3074      00
 3075               	.LASF78:
 3076 0176 5350 495F 		.string	"SPI_SlaveInit"
 3076      536C 6176 
 3076      6549 6E69 
 3076      7400 
 3077               	.LASF59:
 3078 0184 6279 7465 		.string	"bytesToTransceive"
GAS LISTING /tmp/ccTR6krr.s 			page 57


 3078      7354 6F54 
 3078      7261 6E73 
 3078      6365 6976 
 3078      6500 
 3079               	.LASF35:
 3080 0196 5350 495F 		.string	"SPI_t"
 3080      7400 
 3081               	.LASF21:
 3082 019c 5049 4E31 		.string	"PIN1CTRL"
 3082      4354 524C 
 3082      00
 3083               	.LASF51:
 3084 01a5 5350 495F 		.string	"SPI_INTLVL_MED_gc"
 3084      494E 544C 
 3084      564C 5F4D 
 3084      4544 5F67 
 3084      6300 
 3085               	.LASF50:
 3086 01b7 5350 495F 		.string	"SPI_INTLVL_LO_gc"
 3086      494E 544C 
 3086      564C 5F4C 
 3086      4F5F 6763 
 3086      00
 3087               	.LASF58:
 3088 01c8 7265 6365 		.string	"receiveData"
 3088      6976 6544 
 3088      6174 6100 
 3089               	.LASF80:
 3090 01d4 5350 495F 		.string	"SPI_MasterInterruptHandler"
 3090      4D61 7374 
 3090      6572 496E 
 3090      7465 7272 
 3090      7570 7448 
 3091               	.LASF43:
 3092 01ef 5350 495F 		.string	"SPI_PRESCALER_DIV4_gc"
 3092      5052 4553 
 3092      4341 4C45 
 3092      525F 4449 
 3092      5634 5F67 
 3093               	.LASF24:
 3094 0205 5049 4E34 		.string	"PIN4CTRL"
 3094      4354 524C 
 3094      00
 3095               	.LASF29:
 3096 020e 504F 5254 		.string	"PORT_t"
 3096      5F74 00
 3097               	.LASF52:
 3098 0215 5350 495F 		.string	"SPI_INTLVL_HI_gc"
 3098      494E 544C 
 3098      564C 5F48 
 3098      495F 6763 
 3098      00
 3099               	.LASF6:
 3100 0226 6C6F 6E67 		.string	"long long unsigned int"
 3100      206C 6F6E 
 3100      6720 756E 
 3100      7369 676E 
GAS LISTING /tmp/ccTR6krr.s 			page 58


 3100      6564 2069 
 3101               	.LASF33:
 3102 023d 5354 4154 		.string	"STATUS"
 3102      5553 00
 3103               	.LASF3:
 3104 0244 6C6F 6E67 		.string	"long int"
 3104      2069 6E74 
 3104      00
 3105               	.LASF27:
 3106 024d 5049 4E37 		.string	"PIN7CTRL"
 3106      4354 524C 
 3106      00
 3107               	.LASF82:
 3108 0256 5350 495F 		.string	"SPI_MasterInterruptTransceivePacket"
 3108      4D61 7374 
 3108      6572 496E 
 3108      7465 7272 
 3108      7570 7454 
 3109               	.LASF44:
 3110 027a 5350 495F 		.string	"SPI_PRESCALER_DIV16_gc"
 3110      5052 4553 
 3110      4341 4C45 
 3110      525F 4449 
 3110      5631 365F 
 3111               	.LASF56:
 3112 0291 7373 5069 		.string	"ssPinMask"
 3112      6E4D 6173 
 3112      6B00 
 3113               	.LASF12:
 3114 029b 4F55 5454 		.string	"OUTTGL"
 3114      474C 00
 3115               	.LASF41:
 3116 02a2 5350 495F 		.string	"SPI_MODE_enum"
 3116      4D4F 4445 
 3116      5F65 6E75 
 3116      6D00 
 3117               	.LASF40:
 3118 02b0 5350 495F 		.string	"SPI_MODE_t"
 3118      4D4F 4445 
 3118      5F74 00
 3119               	.LASF69:
 3120 02bb 5350 495F 		.string	"SPI_Master_t"
 3120      4D61 7374 
 3120      6572 5F74 
 3120      00
 3121               	.LASF53:
 3122 02c8 5350 495F 		.string	"SPI_INTLVL_t"
 3122      494E 544C 
 3122      564C 5F74 
 3122      00
 3123               	.LASF34:
 3124 02d5 4441 5441 		.string	"DATA"
 3124      00
 3125               	.LASF1:
 3126 02da 756E 7369 		.string	"unsigned char"
 3126      676E 6564 
 3126      2063 6861 
GAS LISTING /tmp/ccTR6krr.s 			page 59


 3126      7200 
 3127               	.LASF32:
 3128 02e8 4354 524C 		.string	"CTRL"
 3128      00
 3129               	.LASF47:
 3130 02ed 5350 495F 		.string	"SPI_PRESCALER_t"
 3130      5052 4553 
 3130      4341 4C45 
 3130      525F 7400 
 3131               	.LASF0:
 3132 02fd 7369 676E 		.string	"signed char"
 3132      6564 2063 
 3132      6861 7200 
 3133               	.LASF77:
 3134 0309 5350 495F 		.string	"SPI_MasterInit"
 3134      4D61 7374 
 3134      6572 496E 
 3134      6974 00
 3135               	.LASF68:
 3136 0318 6461 7461 		.string	"dataPacket"
 3136      5061 636B 
 3136      6574 00
 3137               	.LASF8:
 3138 0323 4449 5243 		.string	"DIRCLR"
 3138      4C52 00
 3139               	.LASF61:
 3140 032a 636F 6D70 		.string	"complete"
 3140      6C65 7465 
 3140      00
 3141               	.LASF22:
 3142 0333 5049 4E32 		.string	"PIN2CTRL"
 3142      4354 524C 
 3142      00
 3143               	.LASF49:
 3144 033c 5350 495F 		.string	"SPI_INTLVL_OFF_gc"
 3144      494E 544C 
 3144      564C 5F4F 
 3144      4646 5F67 
 3144      6300 
 3145               	.LASF36:
 3146 034e 5350 495F 		.string	"SPI_MODE_0_gc"
 3146      4D4F 4445 
 3146      5F30 5F67 
 3146      6300 
 3147               	.LASF55:
 3148 035c 7373 506F 		.string	"ssPort"
 3148      7274 00
 3149               	.LASF16:
 3150 0363 494E 5446 		.string	"INTFLAGS"
 3150      4C41 4753 
 3150      00
 3151               	.LASF25:
 3152 036c 5049 4E35 		.string	"PIN5CTRL"
 3152      4354 524C 
 3152      00
 3153               	.LASF62:
 3154 0375 5F42 6F6F 		.string	"_Bool"
GAS LISTING /tmp/ccTR6krr.s 			page 60


 3154      6C00 
 3155               	.LASF81:
 3156 037b 6461 7461 		.string	"data"
 3156      00
 3157               	.LASF10:
 3158 0380 4F55 5453 		.string	"OUTSET"
 3158      4554 00
 3159               	.LASF46:
 3160 0387 5350 495F 		.string	"SPI_PRESCALER_DIV128_gc"
 3160      5052 4553 
 3160      4341 4C45 
 3160      525F 4449 
 3160      5631 3238 
 3161               	.LASF14:
 3162 039f 494E 5430 		.string	"INT0MASK"
 3162      4D41 534B 
 3162      00
 3163               	.LASF66:
 3164 03a8 706F 7274 		.string	"port"
 3164      00
 3165               	.LASF88:
 3166 03ad 7370 695F 		.string	"spi_driver.c"
 3166      6472 6976 
 3166      6572 2E63 
 3166      00
 3167               	.LASF4:
 3168 03ba 6C6F 6E67 		.string	"long unsigned int"
 3168      2075 6E73 
 3168      6967 6E65 
 3168      6420 696E 
 3168      7400 
 3169               	.LASF63:
 3170 03cc 5350 495F 		.string	"SPI_DataPacket_t"
 3170      4461 7461 
 3170      5061 636B 
 3170      6574 5F74 
 3170      00
 3171               	.LASF60:
 3172 03dd 6279 7465 		.string	"bytesTransceived"
 3172      7354 7261 
 3172      6E73 6365 
 3172      6976 6564 
 3172      00
 3173               	.LASF30:
 3174 03ee 504F 5254 		.string	"PORT_struct"
 3174      5F73 7472 
 3174      7563 7400 
 3175               	.LASF74:
 3176 03fa 696E 744C 		.string	"intLevel"
 3176      6576 656C 
 3176      00
 3177               	.LASF70:
 3178 0403 5350 495F 		.string	"SPI_Slave"
 3178      536C 6176 
 3178      6500 
 3179               	.LASF7:
 3180 040d 4449 5253 		.string	"DIRSET"
GAS LISTING /tmp/ccTR6krr.s 			page 61


 3180      4554 00
 3181               	.LASF31:
 3182 0414 5350 495F 		.string	"SPI_struct"
 3182      7374 7275 
 3182      6374 00
 3183               	.LASF79:
 3184 041f 5350 495F 		.string	"SPI_MasterCreateDataPacket"
 3184      4D61 7374 
 3184      6572 4372 
 3184      6561 7465 
 3184      4461 7461 
 3185               	.LASF13:
 3186 043a 494E 5443 		.string	"INTCTRL"
 3186      5452 4C00 
 3187               	.LASF37:
 3188 0442 5350 495F 		.string	"SPI_MODE_1_gc"
 3188      4D4F 4445 
 3188      5F31 5F67 
 3188      6300 
 3189               	.LASF20:
 3190 0450 5049 4E30 		.string	"PIN0CTRL"
 3190      4354 524C 
 3190      00
 3191               	.LASF2:
 3192 0459 756E 7369 		.string	"unsigned int"
 3192      676E 6564 
 3192      2069 6E74 
 3192      00
 3193               	.LASF83:
 3194 0466 5350 495F 		.string	"SPI_MasterTransceiveByte"
 3194      4D61 7374 
 3194      6572 5472 
 3194      616E 7363 
 3194      6569 7665 
 3195               	.LASF23:
 3196 047f 5049 4E33 		.string	"PIN3CTRL"
 3196      4354 524C 
 3196      00
 3197               	.LASF5:
 3198 0488 6C6F 6E67 		.string	"long long int"
 3198      206C 6F6E 
 3198      6720 696E 
 3198      7400 
 3199               	.LASF39:
 3200 0496 5350 495F 		.string	"SPI_MODE_3_gc"
 3200      4D4F 4445 
 3200      5F33 5F67 
 3200      6300 
GAS LISTING /tmp/ccTR6krr.s 			page 62


DEFINED SYMBOLS
                            *ABS*:00000000 spi_driver.c
     /tmp/ccTR6krr.s:2      *ABS*:0000003f __SREG__
     /tmp/ccTR6krr.s:3      *ABS*:0000003e __SP_H__
     /tmp/ccTR6krr.s:4      *ABS*:0000003d __SP_L__
     /tmp/ccTR6krr.s:5      *ABS*:00000034 __CCP__
     /tmp/ccTR6krr.s:6      *ABS*:00000000 __tmp_reg__
     /tmp/ccTR6krr.s:7      *ABS*:00000001 __zero_reg__
     /tmp/ccTR6krr.s:18     .text:00000000 SPI_MasterInit
     /tmp/ccTR6krr.s:107    .text:00000066 SPI_SlaveInit
     /tmp/ccTR6krr.s:166    .text:000000a4 SPI_MasterCreateDataPacket
     /tmp/ccTR6krr.s:209    .text:000000c8 SPI_MasterInterruptHandler
     /tmp/ccTR6krr.s:320    .text:0000014c SPI_MasterInterruptTransceivePacket
     /tmp/ccTR6krr.s:436    .text:000001d8 SPI_MasterTransceiveByte
     /tmp/ccTR6krr.s:468    .text:000001f2 SPI_MasterTransceivePacket

NO UNDEFINED SYMBOLS
